
8aaaf200-2450-11e4-abe2-0002a5d5c51b.elf:     file format elf64-littleaarch64
8aaaf200-2450-11e4-abe2-0002a5d5c51b.elf
architecture: aarch64, flags 0x00000150:
HAS_SYMS, DYNAMIC, D_PAGED
start address 0x0000000000000404

Program Header:
    LOAD off    0x0000000000001000 vaddr 0x0000000000000000 paddr 0x0000000000000000 align 2**12
         filesz 0x000000000000cbf0 memsz 0x000000000000cbf0 flags r-x
    LOAD off    0x000000000000e000 vaddr 0x000000000000d000 paddr 0x000000000000d000 align 2**12
         filesz 0x0000000000000454 memsz 0x000000000000b4f8 flags rw-
 DYNAMIC off    0x000000000000e000 vaddr 0x000000000000d000 paddr 0x000000000000d000 align 2**3
         filesz 0x0000000000000110 memsz 0x0000000000000110 flags rw-
   STACK off    0x0000000000000000 vaddr 0x0000000000000000 paddr 0x0000000000000000 align 2**4
         filesz 0x0000000000000000 memsz 0x0000000000000000 flags rw-

Dynamic Section:
  HASH                 0x000000000000c9a8
  GNU_HASH             0x000000000000c908
  STRTAB               0x000000000000c990
  SYMTAB               0x000000000000c930
  STRSZ                0x0000000000000011
  SYMENT               0x0000000000000018
  DEBUG                0x0000000000000000
  RELA                 0x000000000000c9c8
  RELASZ               0x0000000000000360
  RELAENT              0x0000000000000018
  FLAGS_1              0x0000000008000000
  RELACOUNT            0x0000000000000017
private flags = 0:

Sections:
Idx Name          Size      VMA               LMA               File off  Algn
  0 .ta_head      00000020  0000000000000000  0000000000000000  00001000  2**3
                  CONTENTS, ALLOC, LOAD, READONLY, DATA
  1 .text         00009858  0000000000000020  0000000000000020  00001020  2**3
                  CONTENTS, ALLOC, LOAD, READONLY, CODE
  2 .eh_frame     00001e94  0000000000009878  0000000000009878  0000a878  2**3
                  CONTENTS, ALLOC, LOAD, READONLY, DATA
  3 .rodata       000011f1  000000000000b710  000000000000b710  0000c710  2**3
                  CONTENTS, ALLOC, LOAD, READONLY, DATA
  4 .gnu.hash     00000024  000000000000c908  000000000000c908  0000d908  2**3
                  CONTENTS, ALLOC, LOAD, READONLY, DATA
  5 .dynsym       00000060  000000000000c930  000000000000c930  0000d930  2**3
                  CONTENTS, ALLOC, LOAD, READONLY, DATA
  6 .dynstr       00000011  000000000000c990  000000000000c990  0000d990  2**0
                  CONTENTS, ALLOC, LOAD, READONLY, DATA
  7 .hash         0000001c  000000000000c9a8  000000000000c9a8  0000d9a8  2**3
                  CONTENTS, ALLOC, LOAD, READONLY, DATA
  8 .rela.dyn     00000228  000000000000c9c8  000000000000c9c8  0000d9c8  2**3
                  CONTENTS, ALLOC, LOAD, READONLY, DATA
  9 .dynamic      00000110  000000000000d000  000000000000d000  0000e000  2**3
                  CONTENTS, ALLOC, LOAD, DATA
 10 .got          00000088  000000000000d110  000000000000d110  0000e110  2**3
                  CONTENTS, ALLOC, LOAD, DATA
 11 .rela.got     00000138  000000000000d198  000000000000d198  0000e198  2**3
                  CONTENTS, ALLOC, LOAD, READONLY, DATA
 12 .data         00000184  000000000000d2d0  000000000000d2d0  0000e2d0  2**3
                  CONTENTS, ALLOC, LOAD, DATA
 13 .bss          0000b0a0  000000000000d458  000000000000d458  0000e454  2**3
                  ALLOC
 14 .debug_info   00014a0c  0000000000000000  0000000000000000  0000e454  2**0
                  CONTENTS, READONLY, DEBUGGING
 15 .debug_abbrev 000038d8  0000000000000000  0000000000000000  00022e60  2**0
                  CONTENTS, READONLY, DEBUGGING
 16 .debug_loc    0001dd5b  0000000000000000  0000000000000000  00026738  2**0
                  CONTENTS, READONLY, DEBUGGING
 17 .debug_aranges 00000920  0000000000000000  0000000000000000  000444a0  2**4
                  CONTENTS, READONLY, DEBUGGING
 18 .debug_ranges 00001a00  0000000000000000  0000000000000000  00044dc0  2**4
                  CONTENTS, READONLY, DEBUGGING
 19 .debug_macro  0001606f  0000000000000000  0000000000000000  000467c0  2**0
                  CONTENTS, READONLY, DEBUGGING
 20 .debug_line   0000ccc4  0000000000000000  0000000000000000  0005c82f  2**0
                  CONTENTS, READONLY, DEBUGGING
 21 .debug_str    00016c09  0000000000000000  0000000000000000  000694f3  2**0
                  CONTENTS, READONLY, DEBUGGING
 22 .comment      0000005a  0000000000000000  0000000000000000  000800fc  2**0
                  CONTENTS, READONLY
SYMBOL TABLE:
0000000000000000 l    d  .ta_head	0000000000000000 .ta_head
0000000000000020 l    d  .text	0000000000000000 .text
0000000000009878 l    d  .eh_frame	0000000000000000 .eh_frame
000000000000b710 l    d  .rodata	0000000000000000 .rodata
000000000000c908 l    d  .gnu.hash	0000000000000000 .gnu.hash
000000000000c930 l    d  .dynsym	0000000000000000 .dynsym
000000000000c990 l    d  .dynstr	0000000000000000 .dynstr
000000000000c9a8 l    d  .hash	0000000000000000 .hash
000000000000c9c8 l    d  .rela.dyn	0000000000000000 .rela.dyn
000000000000d000 l    d  .dynamic	0000000000000000 .dynamic
000000000000d110 l    d  .got	0000000000000000 .got
000000000000d198 l    d  .rela.got	0000000000000000 .rela.got
000000000000d2d0 l    d  .data	0000000000000000 .data
000000000000d458 l    d  .bss	0000000000000000 .bss
0000000000000000 l    d  .debug_info	0000000000000000 .debug_info
0000000000000000 l    d  .debug_abbrev	0000000000000000 .debug_abbrev
0000000000000000 l    d  .debug_loc	0000000000000000 .debug_loc
0000000000000000 l    d  .debug_aranges	0000000000000000 .debug_aranges
0000000000000000 l    d  .debug_ranges	0000000000000000 .debug_ranges
0000000000000000 l    d  .debug_macro	0000000000000000 .debug_macro
0000000000000000 l    d  .debug_line	0000000000000000 .debug_line
0000000000000000 l    d  .debug_str	0000000000000000 .debug_str
0000000000000000 l    d  .comment	0000000000000000 .comment
0000000000000000 l    df *ABS*	0000000000000000 user_ta_header.c
000000000000b718 l     O .rodata	0000000000000004 __compound_literal.5
000000000000b71c l     O .rodata	0000000000000004 __compound_literal.4
000000000000b720 l     O .rodata	0000000000000004 __compound_literal.3
000000000000b724 l     O .rodata	0000000000000001 __compound_literal.2
000000000000b725 l     O .rodata	0000000000000001 __compound_literal.1
000000000000b726 l     O .rodata	0000000000000001 __compound_literal.0
0000000000000000 l    df *ABS*	0000000000000000 memcpy.c
0000000000000000 l    df *ABS*	0000000000000000 hello_qemu_ta.c
000000000000bbb7 l     O .rodata	0000000000000014 __func__.4161
000000000000bbcb l     O .rodata	0000000000000015 __func__.4165
000000000000bbe0 l     O .rodata	0000000000000019 __func__.4172
000000000000bbf9 l     O .rodata	000000000000001a __func__.4176
000000000000bc13 l     O .rodata	000000000000000a __func__.4188
000000000000bc1d l     O .rodata	000000000000000a __func__.4194
0000000000000000 l    df *ABS*	0000000000000000 dlfcn.c
0000000000000420 l     F .text	0000000000000098 invoke_system_pta.constprop.0
000000000000d458 l     O .bss	0000000000000008 sess
000000000000d460 l     O .bss	0000000000000008 hcount
0000000000000000 l    df *ABS*	0000000000000000 bget_malloc.c
0000000000000634 l     F .text	0000000000000044 raw_malloc_return_hook.constprop.0
000000000000c014 l     O .rodata	0000000000000005 __func__.3748
000000000000c019 l     O .rodata	0000000000000006 __func__.3768
000000000000c01f l     O .rodata	0000000000000005 __func__.3788
000000000000c024 l     O .rodata	0000000000000006 __func__.3779
000000000000c02a l     O .rodata	0000000000000006 __func__.3797
000000000000c030 l     O .rodata	0000000000000007 __func__.3807
000000000000c037 l     O .rodata	0000000000000014 __func__.3980
000000000000c04b l     O .rodata	000000000000000e __func__.3925
000000000000c059 l     O .rodata	0000000000000013 __func__.3869
000000000000d3a8 l     O .data	0000000000000080 malloc_ctx
0000000000000000 l    df *ABS*	0000000000000000 memset.c
0000000000000000 l    df *ABS*	0000000000000000 strlen.c
0000000000000000 l    df *ABS*	0000000000000000 trace.c
000000000000c086 l     O .rodata	0000000000000005 lvl_strs.3567
0000000000000000 l    df *ABS*	0000000000000000 snprintk.c
00000000000017f8 l     F .text	0000000000000bac kprintf.constprop.0
000000000000b7ce l     O .rodata	0000000000000011 HEXDIGITS
000000000000b7df l     O .rodata	0000000000000011 hexdigits
0000000000000000 l    df *ABS*	0000000000000000 memchr.c
0000000000000000 l    df *ABS*	0000000000000000 assert.c
0000000000000000 l    df *ABS*	0000000000000000 tee_uuid_from_str.c
0000000000002474 l     F .text	000000000000008c parse_hex
0000000000000000 l    df *ABS*	0000000000000000 trace_ext.c
0000000000000000 l    df *ABS*	0000000000000000 tee_api.c
00000000000027c4 l     F .text	00000000000000ac update_out_param
0000000000002930 l     F .text	00000000000001d0 copy_param
000000000000c0fb l     O .rodata	000000000000000b __func__.4822
000000000000d468 l     O .bss	0000000000000008 tee_api_instance_data
0000000000000000 l    df *ABS*	0000000000000000 tee_api_panic.c
0000000000002f14 l     F .text	000000000000001c check_access
0000000000002f38 l     F .text	0000000000000010 check_res.isra.0
0000000000000000 l    df *ABS*	0000000000000000 tee_system_pta.c
0000000000003074 l     F .text	0000000000000088 invoke_system_pta
000000000000b7f0 l     O .rodata	0000000000000010 uuid.4227
000000000000b800 l     O .rodata	000000000000000a __func__.4247
000000000000d470 l     O .bss	0000000000000008 sess.4226
0000000000000000 l    df *ABS*	0000000000000000 utee_syscalls_a64.o
0000000000000000 l    df *ABS*	0000000000000000 tcb.c
000000000000c1c6 l     O .rodata	0000000000000010 __func__.3977
000000000000c1d6 l     O .rodata	0000000000000010 __func__.4004
000000000000d478 l     O .bss	0000000000000008 _tls_size
000000000000d480 l     O .bss	0000000000000008 _tcb
0000000000000000 l    df *ABS*	0000000000000000 user_ta_entry.c
00000000000037e4 l     F .text	0000000000000028 ta_header_get_session
000000000000380c l     F .text	000000000000006c to_utee_params
0000000000003878 l     F .text	0000000000000060 from_utee_params
00000000000038d8 l     F .text	0000000000000094 _init_iterate_phdr_cb
000000000000396c l     F .text	0000000000000014 ta_header_save_params.part.0
0000000000003980 l     F .text	00000000000000ac _get_fn_array.constprop.0
0000000000003a2c l     F .text	0000000000000058 _fini_iterate_phdr_cb
0000000000003bb4 l     F .text	0000000000000098 ta_header_remove_session
000000000000c1ff l     O .rodata	0000000000000016 __func__.4864
000000000000d488 l     O .bss	0000000000000008 _num_mod_init
000000000000d490 l     O .bss	0000000000000001 init_done
000000000000d428 l     O .data	0000000000000010 ta_sessions
000000000000d438 l     O .data	0000000000000010 __phdr_info_head
0000000000000000 l    df *ABS*	0000000000000000 abort.c
0000000000000000 l    df *ABS*	0000000000000000 tee_api_arith_mpi.c
0000000000003e74 l     F .text	0000000000000030 api_panic
0000000000003ea4 l     F .text	0000000000000030 mpi_panic
0000000000003ed4 l     F .text	0000000000000098 get_mpi
0000000000003f6c l     F .text	0000000000000064 copy_mpi_to_bigint
0000000000003fd0 l     F .text	0000000000000118 bigint_binary
00000000000040e8 l     F .text	0000000000000020 mpi_is_odd
0000000000004108 l     F .text	0000000000000028 rng_read
0000000000004130 l     F .text	0000000000000540 mpi_egcd
000000000000d4f0 l     O .bss	0000000000003000 data.4809
0000000000004a08 l     F .text	0000000000000194 bigint_binary_mod
000000000000c2d3 l     O .rodata	0000000000000008 __func__.4843
000000000000c2db l     O .rodata	000000000000000e __func__.4940
000000000000c2e9 l     O .rodata	0000000000000009 __func__.5086
000000000000c2f2 l     O .rodata	0000000000000012 __func__.4810
000000000000c304 l     O .rodata	000000000000000f __func__.4849
000000000000c313 l     O .rodata	000000000000001f __func__.4867
000000000000c332 l     O .rodata	0000000000000019 __func__.4874
000000000000c34b l     O .rodata	0000000000000012 __func__.4952
000000000000c35d l     O .rodata	0000000000000015 __func__.4905
000000000000c372 l     O .rodata	000000000000000e __func__.4980
000000000000c380 l     O .rodata	000000000000000e __func__.5009
000000000000c38e l     O .rodata	000000000000000e __func__.5017
000000000000c39c l     O .rodata	0000000000000011 __func__.5046
000000000000c3ad l     O .rodata	0000000000000018 __func__.5063
000000000000c3c5 l     O .rodata	000000000000001d __func__.5143
000000000000c3e2 l     O .rodata	0000000000000019 __func__.5196
000000000000c3fb l     O .rodata	0000000000000015 __func__.5211
0000000000000000 l    df *ABS*	0000000000000000 bignum.c
00000000000057b4 l     F .text	0000000000000064 mpi_get_digit
0000000000005818 l     F .text	0000000000000060 mpi_sub_hlp
0000000000005878 l     F .text	0000000000000404 mpi_mul_hlp
0000000000005c7c l     F .text	0000000000000074 mpi_bigendian_to_host.part.0
0000000000007b2c l     F .text	0000000000000090 mpi_check_small_factors
0000000000008658 l     F .text	0000000000000270 mpi_miller_rabin
000000000000b80c l     O .rodata	00000000000002a0 small_prime
000000000000baac l     O .rodata	0000000000000024 gcd_pairs
0000000000000000 l    df *ABS*	0000000000000000 platform_util.c
000000000000d448 l     O .data	0000000000000008 memset_func
0000000000000000 l    df *ABS*	0000000000000000 isxdigit.c
0000000000000000 l    df *ABS*	0000000000000000 snprintf.c
0000000000000000 l    df *ABS*	0000000000000000 tolower.c
0000000000000000 l    df *ABS*	0000000000000000 memmove.c
0000000000000000 l    df *ABS*	0000000000000000 strnlen.c
0000000000000000 l    df *ABS*	0000000000000000 mempool.c
000000000000c8e0 l     O .rodata	0000000000000013 __func__.3621
000000000000c8f3 l     O .rodata	000000000000000e __func__.3630
0000000000000000 l    df *ABS*	0000000000000000 consttime_memcmp.c
0000000000000000 l    df *ABS*	0000000000000000 
000000000000d000 l     O *ABS*	0000000000000000 _DYNAMIC
000000000000d128 l     O *ABS*	0000000000000000 _GLOBAL_OFFSET_TABLE_
0000000000002788 g     F .text	000000000000003c putchar
0000000000005600 g     F .text	0000000000000004 TEE_BigIntConvertToFMM
000000000000515c g     F .text	000000000000000c TEE_BigIntSquareMod
0000000000004b9c g     F .text	000000000000016c TEE_BigIntShiftRight
0000000000005d94 g     F .text	00000000000000e8 mbedtls_mpi_grow
0000000000002ef0 g     F .text	0000000000000008 TEE_Realloc
0000000000003054 g     F .text	0000000000000020 __utee_check_inout_annotation
0000000000002680 g     F .text	00000000000000c8 printf
0000000000003204 g     F .text	000000000000000c _utee_log
0000000000002bf8 g     F .text	0000000000000128 TEE_InvokeTACommand
0000000000002f48 g     F .text	000000000000004c __utee_check_outbuf_annotation
0000000000005d00 g     F .text	0000000000000028 mbedtls_mpi_init_mempool
0000000000003384 g     F .text	000000000000000c _utee_cryp_random_number_generate
0000000000006660 g     F .text	00000000000000c4 mbedtls_mpi_write_binary
0000000000002500 g     F .text	0000000000000150 tee_uuid_from_str
000000000000172c g     F .text	0000000000000058 vsnprintk
0000000000006eb8 g     F .text	0000000000000040 mbedtls_mpi_sub_int
00000000000095dc g     F .text	000000000000005c memmove
00000000000094f8 g     F .text	0000000000000078 snprintf
00000000000049c0 g     F .text	0000000000000048 TEE_BigIntCmpS32
0000000000005e7c g     F .text	0000000000000120 mbedtls_mpi_shrink
0000000000004d94 g     F .text	000000000000000c TEE_BigIntAdd
0000000000003324 g     F .text	000000000000000c _utee_cryp_obj_restrict_usage
000000000000b728 g     O .rodata	0000000000000008 ta_heap_size
00000000000033cc g     F .text	000000000000000c _utee_asymm_operate
0000000000007078 g     F .text	00000000000001e4 mbedtls_mpi_read_string
0000000000004dac g     F .text	00000000000000b0 TEE_BigIntNeg
0000000000003420 g     F .text	000000000000000c _utee_storage_free_enum
0000000000000020 g       .text	0000000000000000 __text_start
0000000000006834 g     F .text	00000000000000c0 mbedtls_mpi_shift_r
0000000000001374 g     F .text	0000000000000064 malloc_buffer_overlaps_heap
00000000000032d0 g     F .text	000000000000000c _utee_hash_init
0000000000005144 g     F .text	000000000000000c TEE_BigIntSubMod
0000000000008da4 g     F .text	0000000000000318 mbedtls_mpi_gen_prime
00000000000062b8 g     F .text	000000000000002c mbedtls_mpi_get_bit
00000000000064e0 g     F .text	00000000000000c8 mbedtls_mpi_read_binary
000000000000162c g     F .text	0000000000000070 trace_printf
0000000000007bf8 g     F .text	0000000000000130 mbedtls_mpi_montmul
000000000000348c g     F .text	000000000000000c _utee_cache_operation
0000000000000020 g     F .text	00000000000000ec memcpy
0000000000005604 g     F .text	000000000000009c TEE_BigIntConvertFromFMM
0000000000002f30 g     F .text	0000000000000008 TEE_Panic
0000000000002748 g     F .text	0000000000000040 puts
00000000000056a0 g     F .text	0000000000000114 TEE_BigIntComputeFMM
0000000000000edc g     F .text	0000000000000038 malloc_get_stats
0000000000002e6c g     F .text	0000000000000028 TEE_GetREETime
00000000000095c8 g     F .text	0000000000000014 tolower
000000000000d2d0 g     O .data	00000000000000d8 ta_props
0000000000002f94 g     F .text	0000000000000030 __utee_check_instring_annotation
0000000000000f14 g     F .text	0000000000000058 malloc
0000000000009570 g     F .text	0000000000000058 vsnprintf
000000000000d450 g     O .data	0000000000000004 trace_level
0000000000004958 g     F .text	0000000000000068 TEE_BigIntCmp
000000000000b710 g     O .rodata	0000000000000008 ta_num_props
0000000000000c84 g     F .text	00000000000000d4 bgetr
00000000000033e4 g     F .text	000000000000000c _utee_storage_obj_open
00000000000097c4 g     F .text	0000000000000044 mempool_free
00000000000032dc g     F .text	000000000000000c _utee_hash_update
00000000000047b8 g     F .text	0000000000000094 TEE_BigIntConvertToOctetString
00000000000063c4 g     F .text	000000000000005c mbedtls_mpi_bitlen
0000000000004d08 g     F .text	000000000000004c TEE_BigIntGetBit
000000000000b730 g     O .rodata	0000000000000003 trace_ext_prefix
0000000000003444 g     F .text	000000000000000c _utee_storage_next_enum
000000000000093c g     F .text	000000000000008c bgetz
0000000000002d2c g     F .text	000000000000000c TEE_GetInstanceData
0000000000002d78 g     F .text	000000000000003c TEE_Wait
0000000000006ef8 g     F .text	000000000000014c mbedtls_mpi_mul_mpi
0000000000002f04 g     F .text	0000000000000008 TEE_CacheFlush
000000000000143c g     F .text	00000000000001f0 trace_vprintf
0000000000000140 g     F .text	0000000000000024 TA_DestroyEntryPoint
0000000000005cf0 g     F .text	0000000000000010 mbedtls_mpi_init
00000000000033fc g     F .text	000000000000000c _utee_storage_obj_del
0000000000006370 g     F .text	0000000000000054 mbedtls_mpi_lsb
000000000000241c g     F .text	0000000000000044 _assert_log
00000000000032b8 g     F .text	000000000000000c _utee_cryp_state_copy
00000000000055f8 g     F .text	0000000000000008 TEE_BigIntFMMContextSizeInU32
0000000000003160 g     F .text	000000000000008c tee_unmap
0000000000000578 g     F .text	0000000000000048 dlclose
0000000000004670 g     F .text	0000000000000050 _TEE_MathAPI_Init
0000000000003498 g     F .text	0000000000000240 __utee_tcb_init
0000000000006d64 g     F .text	0000000000000088 mbedtls_mpi_add_mpi
0000000000003e54 g     F .text	0000000000000020 abort
0000000000003010 g     F .text	0000000000000020 __utee_check_out_annotation
00000000000104f8 g     O .bss	0000000000008000 ta_heap
0000000000005168 g     F .text	000000000000011c TEE_BigIntInvMod
00000000000094d0 g     F .text	0000000000000028 isxdigit
0000000000003a84 g     F .text	0000000000000120 __utee_call_elf_init_fn
00000000000001d4 g     F .text	0000000000000024 TA_CloseSessionEntryPoint
0000000000003240 g     F .text	000000000000000c _utee_close_ta_session
0000000000006dec g     F .text	000000000000008c mbedtls_mpi_sub_mpi
0000000000009808 g     F .text	0000000000000070 consttime_memcmp
00000000000031f8 g     F .text	000000000000000c _utee_return
0000000000003210 g     F .text	000000000000000c __utee_panic
00000000000036d8 g     F .text	000000000000001c __tls_get_addr
0000000000009638 g     F .text	0000000000000028 strnlen
00000000000001f8 g     F .text	000000000000020c TA_InvokeCommandEntryPoint
0000000000003ba4 g     F .text	0000000000000010 __utee_call_elf_fini_fn
00000000000010bc g     F .text	0000000000000018 free_wipe
00000000000096c8 g     F .text	00000000000000ac mempool_alloc
00000000000031ec g     F .text	000000000000000c _utee_panic
0000000000009774 g     F .text	0000000000000050 mempool_calloc
0000000000003480 g     F .text	000000000000000c _utee_cryp_obj_generate_key
0000000000003468 g     F .text	000000000000000c _utee_storage_obj_trunc
0000000000003270 g     F .text	000000000000000c _utee_unmask_cancellation
0000000000000f6c g     F .text	0000000000000068 calloc
0000000000002e94 g     F .text	000000000000005c TEE_Malloc
000000000000291c g     F .text	0000000000000014 TEE_CheckMemoryAccessRights
000000000000321c g     F .text	000000000000000c _utee_get_property
0000000000006250 g     F .text	0000000000000068 mbedtls_mpi_lset
0000000000000164 g     F .text	0000000000000070 TA_OpenSessionEntryPoint
00000000000036f4 g     F .text	00000000000000f0 dl_iterate_phdr
00000000000184f8 g       .bss	0000000000000000 __ftrace_buf_end
000000000000d498 g     O .bss	0000000000000004 ta_param_types
000000000000775c g     F .text	0000000000000040 mbedtls_mpi_div_int
0000000000008cec g     F .text	00000000000000a8 mbedtls_mpi_is_prime_ext
0000000000005590 g     F .text	0000000000000050 TEE_BigIntIsProbablePrime
0000000000007044 g     F .text	0000000000000034 mbedtls_mpi_mul_int
0000000000007d68 g     F .text	000000000000068c mbedtls_mpi_exp_mod
00000000000060b0 g     F .text	00000000000000c0 mbedtls_mpi_safe_cond_assign
0000000000006a64 g     F .text	00000000000000cc mbedtls_mpi_lt_mpi_ct
00000000000046c0 g     F .text	0000000000000064 TEE_BigIntInit
0000000000002fc4 g     F .text	000000000000004c __utee_check_outstring_annotation
0000000000002d38 g     F .text	0000000000000008 TEE_MemMove
00000000000094b0 g     F .text	0000000000000020 mbedtls_platform_zeroize
0000000000004724 g     F .text	0000000000000094 TEE_BigIntConvertFromOctetString
00000000000033c0 g     F .text	000000000000000c _utee_authenc_dec_final
00000000000068f4 g     F .text	000000000000009c mbedtls_mpi_cmp_abs
0000000000003450 g     F .text	000000000000000c _utee_storage_obj_read
00000000000023f0 g     F .text	000000000000002c memchr
00000000000028c4 g     F .text	000000000000002c TEE_UnmaskCancellation
00000000000090bc g     F .text	00000000000003f4 mbedtls_mpi_self_test
0000000000003474 g     F .text	000000000000000c _utee_storage_obj_seek
0000000000003264 g     F .text	000000000000000c _utee_check_access_rights
0000000000006b30 g     F .text	0000000000000040 mbedtls_mpi_cmp_int
000000000000342c g     F .text	000000000000000c _utee_storage_reset_enum
0000000000003030 g     F .text	0000000000000024 __utee_check_attr_in_annotation
00000000000033a8 g     F .text	000000000000000c _utee_authenc_update_payload
00000000000050cc g     F .text	000000000000006c TEE_BigIntMod
0000000000007850 g     F .text	00000000000000a0 mbedtls_mpi_mod_int
000000000000643c g     F .text	00000000000000a4 mbedtls_mpi_read_binary_le
0000000000004f4c g     F .text	0000000000000180 TEE_BigIntDiv
000000000000333c g     F .text	000000000000000c _utee_cryp_obj_alloc
00000000000184f8 g       .bss	0000000000000000 __ftrace_buf_start
00000000000004b8 g     F .text	00000000000000c0 dlopen
0000000000005f9c g     F .text	00000000000000b4 mbedtls_mpi_copy
0000000000000ec4 g     F .text	0000000000000018 malloc_reset_stats
00000000000023a4 g     F .text	000000000000004c __vsprintf
00000000000032a0 g     F .text	000000000000000c _utee_set_ta_time
000000000000324c g     F .text	000000000000000c _utee_invoke_ta_command
0000000000000fd4 g     F .text	0000000000000058 realloc
0000000000006050 g     F .text	0000000000000060 mbedtls_mpi_swap
0000000000009660 g     F .text	0000000000000068 mempool_alloc_pool
0000000000004e5c g     F .text	00000000000000e8 TEE_BigIntMul
0000000000006724 g     F .text	0000000000000110 mbedtls_mpi_shift_l
0000000000006990 g     F .text	00000000000000d4 mbedtls_mpi_cmp_mpi
0000000000002d48 g     F .text	0000000000000008 TEE_MemFill
00000000000010d4 g     F .text	0000000000000124 malloc_add_pool
000000000000142c g     F .text	0000000000000010 trace_get_level
0000000000006b70 g     F .text	0000000000000120 mbedtls_mpi_add_abs
00000000000055e8 g     F .text	0000000000000010 TEE_BigIntFMMSizeInU32
00000000000055e0 g     F .text	0000000000000004 TEE_BigIntInitFMM
00000000000032f4 g     F .text	000000000000000c _utee_cipher_init
0000000000003c4c g     F .text	0000000000000208 __utee_entry
0000000000009878 g       .text	0000000000000000 __text_end
0000000000005284 g     F .text	00000000000000d4 TEE_BigIntRelativePrime
000000000000779c g     F .text	00000000000000b4 mbedtls_mpi_mod_mpi
0000000000003318 g     F .text	000000000000000c _utee_cryp_obj_get_info
0000000000000d58 g     F .text	00000000000000d4 bpool
00000000000005c0 g     F .text	0000000000000074 dlsym
00000000000032ac g     F .text	000000000000000c _utee_cryp_state_alloc
0000000000002898 g     F .text	000000000000002c TEE_GetCancellationFlag
00000000000083f4 g     F .text	00000000000001a8 mbedtls_mpi_gcd
0000000000002e28 g     F .text	0000000000000044 TEE_SetTAPersistentTime
00000000000065a8 g     F .text	00000000000000b8 mbedtls_mpi_write_binary_le
00000000000013d8 g     F .text	000000000000001c memset
0000000000002db4 g     F .text	0000000000000074 TEE_GetTAPersistentTime
000000000000169c g     F .text	0000000000000004 dhex_dump
00000000000028f0 g     F .text	000000000000002c TEE_MaskCancellation
0000000000003330 g     F .text	000000000000000c _utee_cryp_obj_get_attr
000000000000330c g     F .text	000000000000000c _utee_cipher_final
0000000000001410 g     F .text	000000000000001c trace_set_level
00000000000032c4 g     F .text	000000000000000c _utee_cryp_state_free
0000000000003234 g     F .text	000000000000000c _utee_open_ta_session
00000000000048d0 g     F .text	0000000000000088 TEE_BigIntConvertToS32
0000000000004da0 g     F .text	000000000000000c TEE_BigIntSub
0000000000000418 g     F .text	0000000000000008 tahead_get_trace_level
0000000000003438 g     F .text	000000000000000c _utee_storage_start_enum
00000000000030fc g     F .text	0000000000000064 tee_map_zi
0000000000007d28 g     F .text	0000000000000040 mbedtls_mpi_montred
000000000000102c g     F .text	0000000000000078 memalign
000000000000484c g     F .text	0000000000000084 TEE_BigIntConvertFromS32
0000000000006e78 g     F .text	0000000000000040 mbedtls_mpi_add_int
00000000000033b4 g     F .text	000000000000000c _utee_authenc_enc_final
00000000000011f8 g     F .text	000000000000017c malloc_buffer_is_within_alloced
0000000000003348 g     F .text	000000000000000c _utee_cryp_obj_close
00000000000055e4 g     F .text	0000000000000004 TEE_BigIntInitFMMContext
000000000000327c g     F .text	000000000000000c _utee_mask_cancellation
0000000000003408 g     F .text	000000000000000c _utee_storage_obj_rename
0000000000004f44 g     F .text	0000000000000008 TEE_BigIntSquare
000000000000345c g     F .text	000000000000000c _utee_storage_obj_write
000000000000010c g     F .text	0000000000000034 TA_CreateEntryPoint
0000000000000404 g     F .text	0000000000000014 __ta_entry
000000000000339c g     F .text	000000000000000c _utee_authenc_update_aad
0000000000007bbc g     F .text	000000000000003c mbedtls_mpi_montg_init
0000000000001784 g     F .text	0000000000000074 snprintk
0000000000004d54 g     F .text	0000000000000040 TEE_BigIntGetBitCount
000000000000336c g     F .text	000000000000000c _utee_cryp_obj_copy
0000000000005150 g     F .text	000000000000000c TEE_BigIntMulMod
00000000000088c8 g     F .text	0000000000000424 mbedtls_mpi_inv_mod
000000000000d4a0 g     O .bss	0000000000000040 ta_params
000000000000725c g     F .text	0000000000000500 mbedtls_mpi_div_mpi
0000000000006420 g     F .text	000000000000001c mbedtls_mpi_size
0000000000000678 g     F .text	00000000000002c4 bget
0000000000003288 g     F .text	000000000000000c _utee_wait
00000000000062e4 g     F .text	000000000000008c mbedtls_mpi_set_bit
0000000000002ef8 g     F .text	0000000000000004 TEE_Free
0000000000008d94 g     F .text	0000000000000010 mbedtls_mpi_is_prime
0000000000002f0c g     F .text	0000000000000008 TEE_CacheInvalidate
0000000000002460 g     F .text	0000000000000014 _assert_break
0000000000005138 g     F .text	000000000000000c TEE_BigIntAddMod
0000000000003294 g     F .text	000000000000000c _utee_get_time
0000000000003360 g     F .text	000000000000000c _utee_cryp_obj_populate
0000000000002d40 g     F .text	0000000000000008 TEE_MemCompare
0000000000003300 g     F .text	000000000000000c _utee_cipher_update
00000000000016a0 g     F .text	000000000000008c __vsnprintf
000000000000d4e0 g     O .bss	0000000000000010 __elf_phdr_info
0000000000002b00 g     F .text	00000000000000f8 TEE_OpenTASession
0000000000002650 g     F .text	0000000000000028 trace_ext_puts
0000000000002678 g     F .text	0000000000000008 trace_ext_get_thread_id
0000000000003378 g     F .text	000000000000000c _utee_cryp_derive_key
0000000000005d28 g     F .text	000000000000006c mbedtls_mpi_free
0000000000003354 g     F .text	000000000000000c _utee_cryp_obj_reset
0000000000002efc g     F .text	0000000000000008 TEE_CacheClean
0000000000003228 g     F .text	000000000000000c _utee_get_property_name_to_index
0000000000006170 g     F .text	00000000000000e0 mbedtls_mpi_safe_cond_swap
0000000000003390 g     F .text	000000000000000c _utee_authenc_init
00000000000013f4 g     F .text	000000000000001c strlen
0000000000005358 g     F .text	0000000000000238 TEE_BigIntComputeExtendedGcd
0000000000003414 g     F .text	000000000000000c _utee_storage_alloc_enum
0000000000002d50 g     F .text	0000000000000028 TEE_GetSystemTime
00000000000033d8 g     F .text	000000000000000c _utee_asymm_verify
0000000000000000 g     O .ta_head	0000000000000020 ta_head
00000000000009c8 g     F .text	00000000000002bc brel
0000000000006c90 g     F .text	00000000000000d4 mbedtls_mpi_sub_abs
000000000000859c g     F .text	00000000000000bc mbedtls_mpi_fill_random
0000000000002d20 g     F .text	000000000000000c TEE_SetInstanceData
0000000000003258 g     F .text	000000000000000c _utee_get_cancellation_flag
00000000000078f0 g     F .text	000000000000023c mbedtls_mpi_write_string
0000000000002870 g     F .text	0000000000000028 TEE_CloseTASession
00000000000033f0 g     F .text	000000000000000c _utee_storage_obj_create
00000000000010a4 g     F .text	0000000000000018 free
0000000000000e2c g     F .text	0000000000000098 bstats
00000000000104f0 g     O .bss	0000000000000008 mbedtls_mpi_mempool
00000000000032e8 g     F .text	000000000000000c _utee_hash_final



Disassembly of section .text:

0000000000000020 <memcpy>:
memcpy():
/home/jayanth/quemu-v8/source/optee_os/lib/libutils/isoc/newlib/memcpy.c:106
      20:	f1007c5f 	cmp	x2, #0x1f
      24:	54000629 	b.ls	e8 <memcpy+0xc8>  // b.plast
/home/jayanth/quemu-v8/source/optee_os/lib/libutils/isoc/newlib/memcpy.c:106 (discriminator 1)
      28:	aa000025 	orr	x5, x1, x0
      2c:	f24008a5 	ands	x5, x5, #0x7
      30:	54000641 	b.ne	f8 <memcpy+0xd8>  // b.any
      34:	d1008048 	sub	x8, x2, #0x20
/home/jayanth/quemu-v8/source/optee_os/lib/libutils/isoc/newlib/memcpy.c:108
      38:	aa0103e4 	mov	x4, x1
      3c:	927be908 	and	x8, x8, #0xffffffffffffffe0
/home/jayanth/quemu-v8/source/optee_os/lib/libutils/isoc/newlib/memcpy.c:107
      40:	aa0003e3 	mov	x3, x0
      44:	91008108 	add	x8, x8, #0x20
      48:	8b080007 	add	x7, x0, x8
      4c:	d503201f 	nop
/home/jayanth/quemu-v8/source/optee_os/lib/libutils/isoc/newlib/memcpy.c:112
      50:	f9400086 	ldr	x6, [x4]
      54:	f9000066 	str	x6, [x3]
/home/jayanth/quemu-v8/source/optee_os/lib/libutils/isoc/newlib/memcpy.c:113
      58:	91008084 	add	x4, x4, #0x20
      5c:	91008063 	add	x3, x3, #0x20
      60:	f85e8086 	ldur	x6, [x4, #-24]
      64:	f81e8066 	stur	x6, [x3, #-24]
/home/jayanth/quemu-v8/source/optee_os/lib/libutils/isoc/newlib/memcpy.c:114
      68:	f85f0086 	ldur	x6, [x4, #-16]
      6c:	f81f0066 	stur	x6, [x3, #-16]
/home/jayanth/quemu-v8/source/optee_os/lib/libutils/isoc/newlib/memcpy.c:111
      70:	eb0300ff 	cmp	x7, x3
/home/jayanth/quemu-v8/source/optee_os/lib/libutils/isoc/newlib/memcpy.c:115
      74:	f85f8086 	ldur	x6, [x4, #-8]
      78:	f81f8066 	stur	x6, [x3, #-8]
/home/jayanth/quemu-v8/source/optee_os/lib/libutils/isoc/newlib/memcpy.c:111
      7c:	54fffea1 	b.ne	50 <memcpy+0x30>  // b.any
      80:	8b080021 	add	x1, x1, x8
/home/jayanth/quemu-v8/source/optee_os/lib/libutils/isoc/newlib/memcpy.c:120
      84:	f27d045f 	tst	x2, #0x18
      88:	92401044 	and	x4, x2, #0x1f
      8c:	540003c0 	b.eq	104 <memcpy+0xe4>  // b.none
/home/jayanth/quemu-v8/source/optee_os/lib/libutils/isoc/newlib/memcpy.c:121
      90:	f8656826 	ldr	x6, [x1, x5]
      94:	f8256866 	str	x6, [x3, x5]
/home/jayanth/quemu-v8/source/optee_os/lib/libutils/isoc/newlib/memcpy.c:120
      98:	910020a5 	add	x5, x5, #0x8
      9c:	cb050086 	sub	x6, x4, x5
      a0:	f1001cdf 	cmp	x6, #0x7
      a4:	54ffff68 	b.hi	90 <memcpy+0x70>  // b.pmore
      a8:	d1002084 	sub	x4, x4, #0x8
      ac:	92400842 	and	x2, x2, #0x7
      b0:	927df084 	and	x4, x4, #0xfffffffffffffff8
/home/jayanth/quemu-v8/source/optee_os/lib/libutils/isoc/newlib/memcpy.c:130
      b4:	d1000446 	sub	x6, x2, #0x1
      b8:	91002084 	add	x4, x4, #0x8
      bc:	8b040063 	add	x3, x3, x4
      c0:	8b040021 	add	x1, x1, x4
      c4:	b4000102 	cbz	x2, e4 <memcpy+0xc4>
/home/jayanth/quemu-v8/source/optee_os/lib/libutils/isoc/newlib/memcpy.c:99
      c8:	d2800002 	mov	x2, #0x0                   	// #0
      cc:	d503201f 	nop
/home/jayanth/quemu-v8/source/optee_os/lib/libutils/isoc/newlib/memcpy.c:131
      d0:	38626825 	ldrb	w5, [x1, x2]
/home/jayanth/quemu-v8/source/optee_os/lib/libutils/isoc/newlib/memcpy.c:130
      d4:	eb0200df 	cmp	x6, x2
/home/jayanth/quemu-v8/source/optee_os/lib/libutils/isoc/newlib/memcpy.c:131
      d8:	38226865 	strb	w5, [x3, x2]
/home/jayanth/quemu-v8/source/optee_os/lib/libutils/isoc/newlib/memcpy.c:130
      dc:	91000442 	add	x2, x2, #0x1
      e0:	54ffff81 	b.ne	d0 <memcpy+0xb0>  // b.any
/home/jayanth/quemu-v8/source/optee_os/lib/libutils/isoc/newlib/memcpy.c:135
      e4:	d65f03c0 	ret
/home/jayanth/quemu-v8/source/optee_os/lib/libutils/isoc/newlib/memcpy.c:99
      e8:	aa0003e3 	mov	x3, x0
/home/jayanth/quemu-v8/source/optee_os/lib/libutils/isoc/newlib/memcpy.c:130
      ec:	d1000446 	sub	x6, x2, #0x1
      f0:	b5fffec2 	cbnz	x2, c8 <memcpy+0xa8>
/home/jayanth/quemu-v8/source/optee_os/lib/libutils/isoc/newlib/memcpy.c:135
      f4:	d65f03c0 	ret
/home/jayanth/quemu-v8/source/optee_os/lib/libutils/isoc/newlib/memcpy.c:130
      f8:	d1000446 	sub	x6, x2, #0x1
/home/jayanth/quemu-v8/source/optee_os/lib/libutils/isoc/newlib/memcpy.c:99
      fc:	aa0003e3 	mov	x3, x0
     100:	17fffff2 	b	c8 <memcpy+0xa8>
/home/jayanth/quemu-v8/source/optee_os/lib/libutils/isoc/newlib/memcpy.c:120
     104:	aa0403e2 	mov	x2, x4
     108:	17fffff9 	b	ec <memcpy+0xcc>

000000000000010c <TA_CreateEntryPoint>:
TA_CreateEntryPoint():
/home/jayanth/quemu-v8/source/optee_examples/hello_qemu/ta/hello_qemu_ta.c:38
     10c:	a9bf7bfd 	stp	x29, x30, [sp, #-16]!
/home/jayanth/quemu-v8/source/optee_examples/hello_qemu/ta/hello_qemu_ta.c:39
     110:	52800023 	mov	w3, #0x1                   	// #1
     114:	52800062 	mov	w2, #0x3                   	// #3
/home/jayanth/quemu-v8/source/optee_examples/hello_qemu/ta/hello_qemu_ta.c:38
     118:	910003fd 	mov	x29, sp
/home/jayanth/quemu-v8/source/optee_examples/hello_qemu/ta/hello_qemu_ta.c:39
     11c:	528004e1 	mov	w1, #0x27                  	// #39
     120:	f0000044 	adrp	x4, b000 <__text_end+0x1788>
     124:	f0000040 	adrp	x0, b000 <__text_end+0x1788>
     128:	912b4084 	add	x4, x4, #0xad0
     12c:	912edc00 	add	x0, x0, #0xbb7
     130:	9400053f 	bl	162c <trace_printf>
/home/jayanth/quemu-v8/source/optee_examples/hello_qemu/ta/hello_qemu_ta.c:42
     134:	52800000 	mov	w0, #0x0                   	// #0
     138:	a8c17bfd 	ldp	x29, x30, [sp], #16
     13c:	d65f03c0 	ret

0000000000000140 <TA_DestroyEntryPoint>:
TA_DestroyEntryPoint():
/home/jayanth/quemu-v8/source/optee_examples/hello_qemu/ta/hello_qemu_ta.c:50
     140:	f0000040 	adrp	x0, b000 <__text_end+0x1788>
     144:	912edc00 	add	x0, x0, #0xbb7
     148:	91005000 	add	x0, x0, #0x14
     14c:	f0000044 	adrp	x4, b000 <__text_end+0x1788>
     150:	52800023 	mov	w3, #0x1                   	// #1
     154:	912b4084 	add	x4, x4, #0xad0
     158:	52800062 	mov	w2, #0x3                   	// #3
     15c:	52800641 	mov	w1, #0x32                  	// #50
     160:	14000533 	b	162c <trace_printf>

0000000000000164 <TA_OpenSessionEntryPoint>:
TA_OpenSessionEntryPoint():
/home/jayanth/quemu-v8/source/optee_examples/hello_qemu/ta/hello_qemu_ta.c:62
     164:	a9be7bfd 	stp	x29, x30, [sp, #-32]!
/home/jayanth/quemu-v8/source/optee_examples/hello_qemu/ta/hello_qemu_ta.c:68
     168:	f0000044 	adrp	x4, b000 <__text_end+0x1788>
     16c:	52800023 	mov	w3, #0x1                   	// #1
/home/jayanth/quemu-v8/source/optee_examples/hello_qemu/ta/hello_qemu_ta.c:62
     170:	910003fd 	mov	x29, sp
     174:	a90153f3 	stp	x19, x20, [sp, #16]
/home/jayanth/quemu-v8/source/optee_examples/hello_qemu/ta/hello_qemu_ta.c:68
     178:	f0000053 	adrp	x19, b000 <__text_end+0x1788>
     17c:	912ede73 	add	x19, x19, #0xbb7
     180:	9100a673 	add	x19, x19, #0x29
/home/jayanth/quemu-v8/source/optee_examples/hello_qemu/ta/hello_qemu_ta.c:62
     184:	2a0003f4 	mov	w20, w0
/home/jayanth/quemu-v8/source/optee_examples/hello_qemu/ta/hello_qemu_ta.c:68
     188:	912b4084 	add	x4, x4, #0xad0
     18c:	aa1303e0 	mov	x0, x19
     190:	52800062 	mov	w2, #0x3                   	// #3
     194:	52800881 	mov	w1, #0x44                  	// #68
     198:	94000525 	bl	162c <trace_printf>
/home/jayanth/quemu-v8/source/optee_examples/hello_qemu/ta/hello_qemu_ta.c:70
     19c:	35000194 	cbnz	w20, 1cc <TA_OpenSessionEntryPoint+0x68>
/home/jayanth/quemu-v8/source/optee_examples/hello_qemu/ta/hello_qemu_ta.c:81
     1a0:	f0000044 	adrp	x4, b000 <__text_end+0x1788>
     1a4:	aa1303e0 	mov	x0, x19
     1a8:	912b8084 	add	x4, x4, #0xae0
     1ac:	52800023 	mov	w3, #0x1                   	// #1
     1b0:	52800042 	mov	w2, #0x2                   	// #2
     1b4:	52800a21 	mov	w1, #0x51                  	// #81
     1b8:	9400051d 	bl	162c <trace_printf>
/home/jayanth/quemu-v8/source/optee_examples/hello_qemu/ta/hello_qemu_ta.c:85
     1bc:	2a1403e0 	mov	w0, w20
     1c0:	a94153f3 	ldp	x19, x20, [sp, #16]
     1c4:	a8c27bfd 	ldp	x29, x30, [sp], #32
     1c8:	d65f03c0 	ret
/home/jayanth/quemu-v8/source/optee_examples/hello_qemu/ta/hello_qemu_ta.c:71
     1cc:	129fff34 	mov	w20, #0xffff0006            	// #-65530
     1d0:	17fffffb 	b	1bc <TA_OpenSessionEntryPoint+0x58>

00000000000001d4 <TA_CloseSessionEntryPoint>:
TA_CloseSessionEntryPoint():
/home/jayanth/quemu-v8/source/optee_examples/hello_qemu/ta/hello_qemu_ta.c:94
     1d4:	f0000040 	adrp	x0, b000 <__text_end+0x1788>
     1d8:	912edc00 	add	x0, x0, #0xbb7
     1dc:	91010800 	add	x0, x0, #0x42
     1e0:	f0000044 	adrp	x4, b000 <__text_end+0x1788>
     1e4:	52800023 	mov	w3, #0x1                   	// #1
     1e8:	912bb884 	add	x4, x4, #0xaee
     1ec:	52800042 	mov	w2, #0x2                   	// #2
     1f0:	52800bc1 	mov	w1, #0x5e                  	// #94
     1f4:	1400050e 	b	162c <trace_printf>

00000000000001f8 <TA_InvokeCommandEntryPoint>:
TA_InvokeCommandEntryPoint():
/home/jayanth/quemu-v8/source/optee_examples/hello_qemu/ta/hello_qemu_ta.c:177
     1f8:	a9bd7bfd 	stp	x29, x30, [sp, #-48]!
     1fc:	910003fd 	mov	x29, sp
     200:	a90153f3 	stp	x19, x20, [sp, #16]
     204:	2a0103f3 	mov	w19, w1
     208:	a9025bf5 	stp	x21, x22, [sp, #32]
     20c:	2a0203f6 	mov	w22, w2
     210:	aa0303f5 	mov	x21, x3
/home/jayanth/quemu-v8/source/optee_examples/hello_qemu/ta/hello_qemu_ta.c:180
     214:	34000121 	cbz	w1, 238 <TA_InvokeCommandEntryPoint+0x40>
     218:	7100043f 	cmp	w1, #0x1
     21c:	54000b40 	b.eq	384 <TA_InvokeCommandEntryPoint+0x18c>  // b.none
inc_value():
/home/jayanth/quemu-v8/source/optee_examples/hello_qemu/ta/hello_qemu_ta.c:112
     220:	129fff33 	mov	w19, #0xffff0006            	// #-65530
TA_InvokeCommandEntryPoint():
/home/jayanth/quemu-v8/source/optee_examples/hello_qemu/ta/hello_qemu_ta.c:188
     224:	2a1303e0 	mov	w0, w19
     228:	a94153f3 	ldp	x19, x20, [sp, #16]
     22c:	a9425bf5 	ldp	x21, x22, [sp, #32]
     230:	a8c37bfd 	ldp	x29, x30, [sp], #48
     234:	d65f03c0 	ret
inc_value():
/home/jayanth/quemu-v8/source/optee_examples/hello_qemu/ta/hello_qemu_ta.c:109
     238:	f0000054 	adrp	x20, b000 <__text_end+0x1788>
     23c:	912ede94 	add	x20, x20, #0xbb7
     240:	91017294 	add	x20, x20, #0x5c
     244:	f0000044 	adrp	x4, b000 <__text_end+0x1788>
     248:	aa1403e0 	mov	x0, x20
     24c:	912b4084 	add	x4, x4, #0xad0
     250:	52800023 	mov	w3, #0x1                   	// #1
     254:	52800062 	mov	w2, #0x3                   	// #3
     258:	52800da1 	mov	w1, #0x6d                  	// #109
     25c:	940004f4 	bl	162c <trace_printf>
/home/jayanth/quemu-v8/source/optee_examples/hello_qemu/ta/hello_qemu_ta.c:111
     260:	71000edf 	cmp	w22, #0x3
     264:	54fffde1 	b.ne	220 <TA_InvokeCommandEntryPoint+0x28>  // b.any
/home/jayanth/quemu-v8/source/optee_examples/hello_qemu/ta/hello_qemu_ta.c:114
     268:	52822041 	mov	w1, #0x1102                	// #4354
     26c:	f0000040 	adrp	x0, b000 <__text_end+0x1788>
     270:	912be000 	add	x0, x0, #0xaf8
     274:	94000091 	bl	4b8 <dlopen>
     278:	aa0003f6 	mov	x22, x0
/home/jayanth/quemu-v8/source/optee_examples/hello_qemu/ta/hello_qemu_ta.c:116
     27c:	b5000140 	cbnz	x0, 2a4 <TA_InvokeCommandEntryPoint+0xac>
/home/jayanth/quemu-v8/source/optee_examples/hello_qemu/ta/hello_qemu_ta.c:118
     280:	f0000044 	adrp	x4, b000 <__text_end+0x1788>
     284:	912c7484 	add	x4, x4, #0xb1d
     288:	52800023 	mov	w3, #0x1                   	// #1
     28c:	52800022 	mov	w2, #0x1                   	// #1
     290:	52800ec1 	mov	w1, #0x76                  	// #118
/home/jayanth/quemu-v8/source/optee_examples/hello_qemu/ta/hello_qemu_ta.c:128
     294:	aa1403e0 	mov	x0, x20
/home/jayanth/quemu-v8/source/optee_examples/hello_qemu/ta/hello_qemu_ta.c:129
     298:	52bffff3 	mov	w19, #0xffff0000            	// #-65536
/home/jayanth/quemu-v8/source/optee_examples/hello_qemu/ta/hello_qemu_ta.c:128
     29c:	940004e4 	bl	162c <trace_printf>
/home/jayanth/quemu-v8/source/optee_examples/hello_qemu/ta/hello_qemu_ta.c:129
     2a0:	17ffffe1 	b	224 <TA_InvokeCommandEntryPoint+0x2c>
/home/jayanth/quemu-v8/source/optee_examples/hello_qemu/ta/hello_qemu_ta.c:123
     2a4:	f0000044 	adrp	x4, b000 <__text_end+0x1788>
     2a8:	912cc884 	add	x4, x4, #0xb32
     2ac:	52800042 	mov	w2, #0x2                   	// #2
     2b0:	52800023 	mov	w3, #0x1                   	// #1
     2b4:	aa1403e0 	mov	x0, x20
     2b8:	52800f61 	mov	w1, #0x7b                  	// #123
     2bc:	940004dc 	bl	162c <trace_printf>
/home/jayanth/quemu-v8/source/optee_examples/hello_qemu/ta/hello_qemu_ta.c:125
     2c0:	aa1603e0 	mov	x0, x22
     2c4:	f0000041 	adrp	x1, b000 <__text_end+0x1788>
     2c8:	912d1c21 	add	x1, x1, #0xb47
     2cc:	940000bd 	bl	5c0 <dlsym>
     2d0:	aa0003e2 	mov	x2, x0
/home/jayanth/quemu-v8/source/optee_examples/hello_qemu/ta/hello_qemu_ta.c:126
     2d4:	b50000e0 	cbnz	x0, 2f0 <TA_InvokeCommandEntryPoint+0xf8>
/home/jayanth/quemu-v8/source/optee_examples/hello_qemu/ta/hello_qemu_ta.c:128
     2d8:	f0000044 	adrp	x4, b000 <__text_end+0x1788>
     2dc:	52800023 	mov	w3, #0x1                   	// #1
     2e0:	912d2c84 	add	x4, x4, #0xb4b
     2e4:	52800022 	mov	w2, #0x1                   	// #1
     2e8:	52801001 	mov	w1, #0x80                  	// #128
     2ec:	17ffffea 	b	294 <TA_InvokeCommandEntryPoint+0x9c>
/home/jayanth/quemu-v8/source/optee_examples/hello_qemu/ta/hello_qemu_ta.c:133
     2f0:	52800101 	mov	w1, #0x8                   	// #8
     2f4:	528000a0 	mov	w0, #0x5                   	// #5
     2f8:	d63f0040 	blr	x2
/home/jayanth/quemu-v8/source/optee_examples/hello_qemu/ta/hello_qemu_ta.c:134
     2fc:	2a0003e5 	mov	w5, w0
     300:	52800023 	mov	w3, #0x1                   	// #1
     304:	aa1403e0 	mov	x0, x20
     308:	52800042 	mov	w2, #0x2                   	// #2
     30c:	528010c1 	mov	w1, #0x86                  	// #134
     310:	f0000044 	adrp	x4, b000 <__text_end+0x1788>
     314:	912d6884 	add	x4, x4, #0xb5a
     318:	940004c5 	bl	162c <trace_printf>
/home/jayanth/quemu-v8/source/optee_examples/hello_qemu/ta/hello_qemu_ta.c:137
     31c:	aa1403e0 	mov	x0, x20
     320:	52800023 	mov	w3, #0x1                   	// #1
     324:	52800042 	mov	w2, #0x2                   	// #2
     328:	52801121 	mov	w1, #0x89                  	// #137
     32c:	f0000044 	adrp	x4, b000 <__text_end+0x1788>
     330:	912dc084 	add	x4, x4, #0xb70
     334:	940004be 	bl	162c <trace_printf>
/home/jayanth/quemu-v8/source/optee_examples/hello_qemu/ta/hello_qemu_ta.c:143
     338:	b94002a5 	ldr	w5, [x21]
     33c:	aa1403e0 	mov	x0, x20
     340:	52800023 	mov	w3, #0x1                   	// #1
     344:	52800042 	mov	w2, #0x2                   	// #2
     348:	528011e1 	mov	w1, #0x8f                  	// #143
     34c:	f0000044 	adrp	x4, b000 <__text_end+0x1788>
     350:	912dd484 	add	x4, x4, #0xb75
     354:	940004b6 	bl	162c <trace_printf>
/home/jayanth/quemu-v8/source/optee_examples/hello_qemu/ta/hello_qemu_ta.c:144
     358:	b94002a5 	ldr	w5, [x21]
/home/jayanth/quemu-v8/source/optee_examples/hello_qemu/ta/hello_qemu_ta.c:145
     35c:	aa1403e0 	mov	x0, x20
     360:	f0000044 	adrp	x4, b000 <__text_end+0x1788>
     364:	52800023 	mov	w3, #0x1                   	// #1
/home/jayanth/quemu-v8/source/optee_examples/hello_qemu/ta/hello_qemu_ta.c:144
     368:	110004a5 	add	w5, w5, #0x1
     36c:	b90002a5 	str	w5, [x21]
/home/jayanth/quemu-v8/source/optee_examples/hello_qemu/ta/hello_qemu_ta.c:145
     370:	912e2c84 	add	x4, x4, #0xb8b
     374:	52800042 	mov	w2, #0x2                   	// #2
     378:	52801221 	mov	w1, #0x91                  	// #145
     37c:	940004ac 	bl	162c <trace_printf>
/home/jayanth/quemu-v8/source/optee_examples/hello_qemu/ta/hello_qemu_ta.c:147
     380:	17ffffa9 	b	224 <TA_InvokeCommandEntryPoint+0x2c>
dec_value():
/home/jayanth/quemu-v8/source/optee_examples/hello_qemu/ta/hello_qemu_ta.c:158
     384:	f0000054 	adrp	x20, b000 <__text_end+0x1788>
     388:	912ede94 	add	x20, x20, #0xbb7
     38c:	91019a94 	add	x20, x20, #0x66
     390:	2a0103e3 	mov	w3, w1
     394:	aa1403e0 	mov	x0, x20
     398:	f0000044 	adrp	x4, b000 <__text_end+0x1788>
     39c:	52800062 	mov	w2, #0x3                   	// #3
     3a0:	912b4084 	add	x4, x4, #0xad0
     3a4:	528013c1 	mov	w1, #0x9e                  	// #158
     3a8:	940004a1 	bl	162c <trace_printf>
/home/jayanth/quemu-v8/source/optee_examples/hello_qemu/ta/hello_qemu_ta.c:160
     3ac:	71000edf 	cmp	w22, #0x3
     3b0:	54fff381 	b.ne	220 <TA_InvokeCommandEntryPoint+0x28>  // b.any
/home/jayanth/quemu-v8/source/optee_examples/hello_qemu/ta/hello_qemu_ta.c:163
     3b4:	b94002a5 	ldr	w5, [x21]
     3b8:	2a1303e3 	mov	w3, w19
     3bc:	aa1403e0 	mov	x0, x20
     3c0:	52800042 	mov	w2, #0x2                   	// #2
     3c4:	52801461 	mov	w1, #0xa3                  	// #163
     3c8:	f0000044 	adrp	x4, b000 <__text_end+0x1788>
     3cc:	912dd484 	add	x4, x4, #0xb75
     3d0:	94000497 	bl	162c <trace_printf>
/home/jayanth/quemu-v8/source/optee_examples/hello_qemu/ta/hello_qemu_ta.c:164
     3d4:	b94002a5 	ldr	w5, [x21]
/home/jayanth/quemu-v8/source/optee_examples/hello_qemu/ta/hello_qemu_ta.c:165
     3d8:	2a1303e3 	mov	w3, w19
     3dc:	aa1403e0 	mov	x0, x20
     3e0:	f0000044 	adrp	x4, b000 <__text_end+0x1788>
/home/jayanth/quemu-v8/source/optee_examples/hello_qemu/ta/hello_qemu_ta.c:164
     3e4:	510004a5 	sub	w5, w5, #0x1
     3e8:	b90002a5 	str	w5, [x21]
/home/jayanth/quemu-v8/source/optee_examples/hello_qemu/ta/hello_qemu_ta.c:165
     3ec:	912e8484 	add	x4, x4, #0xba1
     3f0:	52800042 	mov	w2, #0x2                   	// #2
     3f4:	528014a1 	mov	w1, #0xa5                  	// #165
/home/jayanth/quemu-v8/source/optee_examples/hello_qemu/ta/hello_qemu_ta.c:167
     3f8:	52800013 	mov	w19, #0x0                   	// #0
/home/jayanth/quemu-v8/source/optee_examples/hello_qemu/ta/hello_qemu_ta.c:165
     3fc:	9400048c 	bl	162c <trace_printf>
/home/jayanth/quemu-v8/source/optee_examples/hello_qemu/ta/hello_qemu_ta.c:167
     400:	17ffff89 	b	224 <TA_InvokeCommandEntryPoint+0x2c>

0000000000000404 <__ta_entry>:
__ta_entry():
/home/jayanth/quemu-v8/source/optee_os/out/arm/export-ta_arm64/src/user_ta_header.c:47
     404:	a9bf7bfd 	stp	x29, x30, [sp, #-16]!
     408:	910003fd 	mov	x29, sp
/home/jayanth/quemu-v8/source/optee_os/out/arm/export-ta_arm64/src/user_ta_header.c:48
     40c:	94000e10 	bl	3c4c <__utee_entry>
/home/jayanth/quemu-v8/source/optee_os/out/arm/export-ta_arm64/src/user_ta_header.c:59
     410:	2a0003e0 	mov	w0, w0
     414:	94000b79 	bl	31f8 <_utee_return>

0000000000000418 <tahead_get_trace_level>:
tahead_get_trace_level():
/home/jayanth/quemu-v8/source/optee_os/out/arm/export-ta_arm64/src/user_ta_header.c:149
     418:	52800080 	mov	w0, #0x4                   	// #4
     41c:	d65f03c0 	ret

0000000000000420 <invoke_system_pta.constprop.0>:
invoke_system_pta():
/home/jayanth/quemu-v8/source/optee_os/lib/libdl/dlfcn.c:18
     420:	a9bc7bfd 	stp	x29, x30, [sp, #-64]!
/home/jayanth/quemu-v8/source/optee_os/lib/libdl/dlfcn.c:21
     424:	9100c3e6 	add	x6, sp, #0x30
/home/jayanth/quemu-v8/source/optee_os/lib/libdl/dlfcn.c:18
     428:	910003fd 	mov	x29, sp
     42c:	a90153f3 	stp	x19, x20, [sp, #16]
     430:	2a0003f4 	mov	w20, w0
/home/jayanth/quemu-v8/source/optee_os/lib/libdl/dlfcn.c:21
     434:	aa0603e0 	mov	x0, x6
/home/jayanth/quemu-v8/source/optee_os/lib/libdl/dlfcn.c:18
     438:	a9025bf5 	stp	x21, x22, [sp, #32]
     43c:	2a0103f5 	mov	w21, w1
     440:	aa0203f6 	mov	x22, x2
/home/jayanth/quemu-v8/source/optee_os/lib/libdl/dlfcn.c:21
     444:	f0000041 	adrp	x1, b000 <__text_end+0x1788>
     448:	d2800202 	mov	x2, #0x10                  	// #16
     44c:	911cd021 	add	x1, x1, #0x734
     450:	97fffef4 	bl	20 <memcpy>
/home/jayanth/quemu-v8/source/optee_os/lib/libdl/dlfcn.c:24
     454:	b0000063 	adrp	x3, d000 <_DYNAMIC>
/home/jayanth/quemu-v8/source/optee_os/lib/libdl/dlfcn.c:21
     458:	aa0003e6 	mov	x6, x0
/home/jayanth/quemu-v8/source/optee_os/lib/libdl/dlfcn.c:24
     45c:	aa0303f3 	mov	x19, x3
     460:	f9422c60 	ldr	x0, [x3, #1112]
     464:	b4000180 	cbz	x0, 494 <invoke_system_pta.constprop.0+0x74>
/home/jayanth/quemu-v8/source/optee_os/lib/libdl/dlfcn.c:30
     468:	f9422e60 	ldr	x0, [x19, #1112]
     46c:	aa1603e4 	mov	x4, x22
     470:	2a1503e3 	mov	w3, w21
     474:	2a1403e2 	mov	w2, w20
     478:	d2800005 	mov	x5, #0x0                   	// #0
     47c:	12800001 	mov	w1, #0xffffffff            	// #-1
     480:	940009de 	bl	2bf8 <TEE_InvokeTACommand>
/home/jayanth/quemu-v8/source/optee_os/lib/libdl/dlfcn.c:32
     484:	a94153f3 	ldp	x19, x20, [sp, #16]
     488:	a9425bf5 	ldp	x21, x22, [sp, #32]
     48c:	a8c47bfd 	ldp	x29, x30, [sp], #64
     490:	d65f03c0 	ret
     494:	91116064 	add	x4, x3, #0x458
/home/jayanth/quemu-v8/source/optee_os/lib/libdl/dlfcn.c:25
     498:	aa0603e0 	mov	x0, x6
     49c:	d2800005 	mov	x5, #0x0                   	// #0
     4a0:	d2800003 	mov	x3, #0x0                   	// #0
     4a4:	52800002 	mov	w2, #0x0                   	// #0
     4a8:	12800001 	mov	w1, #0xffffffff            	// #-1
     4ac:	94000995 	bl	2b00 <TEE_OpenTASession>
/home/jayanth/quemu-v8/source/optee_os/lib/libdl/dlfcn.c:27
     4b0:	34fffdc0 	cbz	w0, 468 <invoke_system_pta.constprop.0+0x48>
     4b4:	17fffff4 	b	484 <invoke_system_pta.constprop.0+0x64>

00000000000004b8 <dlopen>:
dlopen():
/home/jayanth/quemu-v8/source/optee_os/lib/libdl/dlfcn.c:39
     4b8:	a9b87bfd 	stp	x29, x30, [sp, #-128]!
     4bc:	910003fd 	mov	x29, sp
     4c0:	a90153f3 	stp	x19, x20, [sp, #16]
     4c4:	aa0003f4 	mov	x20, x0
/home/jayanth/quemu-v8/source/optee_os/lib/libdl/dlfcn.c:46
     4c8:	d2800200 	mov	x0, #0x10                  	// #16
/home/jayanth/quemu-v8/source/optee_os/lib/libdl/dlfcn.c:39
     4cc:	a9025bf5 	stp	x21, x22, [sp, #32]
     4d0:	2a0103f5 	mov	w21, w1
/home/jayanth/quemu-v8/source/optee_os/lib/libdl/dlfcn.c:44
     4d4:	a9037fff 	stp	xzr, xzr, [sp, #48]
/home/jayanth/quemu-v8/source/optee_os/lib/libdl/dlfcn.c:40
     4d8:	a9047fff 	stp	xzr, xzr, [sp, #64]
     4dc:	a9057fff 	stp	xzr, xzr, [sp, #80]
     4e0:	a9067fff 	stp	xzr, xzr, [sp, #96]
     4e4:	a9077fff 	stp	xzr, xzr, [sp, #112]
/home/jayanth/quemu-v8/source/optee_os/lib/libdl/dlfcn.c:46
     4e8:	9400028b 	bl	f14 <malloc>
     4ec:	aa0003f3 	mov	x19, x0
/home/jayanth/quemu-v8/source/optee_os/lib/libdl/dlfcn.c:47
     4f0:	b4000320 	cbz	x0, 554 <dlopen+0x9c>
/home/jayanth/quemu-v8/source/optee_os/lib/libdl/dlfcn.c:50
     4f4:	b4000234 	cbz	x20, 538 <dlopen+0x80>
/home/jayanth/quemu-v8/source/optee_os/lib/libdl/dlfcn.c:51
     4f8:	9100c3f6 	add	x22, sp, #0x30
     4fc:	aa1403e1 	mov	x1, x20
     500:	aa1603e0 	mov	x0, x22
     504:	940007ff 	bl	2500 <tee_uuid_from_str>
/home/jayanth/quemu-v8/source/optee_os/lib/libdl/dlfcn.c:52
     508:	35000300 	cbnz	w0, 568 <dlopen+0xb0>
/home/jayanth/quemu-v8/source/optee_os/lib/libdl/dlfcn.c:61
     50c:	52800200 	mov	w0, #0x10                  	// #16
/home/jayanth/quemu-v8/source/optee_os/lib/libdl/dlfcn.c:64
     510:	910103e2 	add	x2, sp, #0x40
     514:	528002a1 	mov	w1, #0x15                  	// #21
/home/jayanth/quemu-v8/source/optee_os/lib/libdl/dlfcn.c:60
     518:	f90023f6 	str	x22, [sp, #64]
/home/jayanth/quemu-v8/source/optee_os/lib/libdl/dlfcn.c:61
     51c:	b9004be0 	str	w0, [sp, #72]
/home/jayanth/quemu-v8/source/optee_os/lib/libdl/dlfcn.c:64
     520:	52800140 	mov	w0, #0xa                   	// #10
/home/jayanth/quemu-v8/source/optee_os/lib/libdl/dlfcn.c:62
     524:	b90053f5 	str	w21, [sp, #80]
/home/jayanth/quemu-v8/source/optee_os/lib/libdl/dlfcn.c:64
     528:	97ffffbe 	bl	420 <invoke_system_pta.constprop.0>
/home/jayanth/quemu-v8/source/optee_os/lib/libdl/dlfcn.c:65
     52c:	350001e0 	cbnz	w0, 568 <dlopen+0xb0>
/home/jayanth/quemu-v8/source/optee_os/lib/libdl/dlfcn.c:68
     530:	94000bda 	bl	3498 <__utee_tcb_init>
/home/jayanth/quemu-v8/source/optee_os/lib/libdl/dlfcn.c:69
     534:	94000d54 	bl	3a84 <__utee_call_elf_init_fn>
/home/jayanth/quemu-v8/source/optee_os/lib/libdl/dlfcn.c:72
     538:	b0000060 	adrp	x0, d000 <_DYNAMIC>
     53c:	91116000 	add	x0, x0, #0x458
     540:	f9400401 	ldr	x1, [x0, #8]
     544:	91000421 	add	x1, x1, #0x1
     548:	f9000401 	str	x1, [x0, #8]
/home/jayanth/quemu-v8/source/optee_os/lib/libdl/dlfcn.c:73
     54c:	a94307e0 	ldp	x0, x1, [sp, #48]
     550:	a9000660 	stp	x0, x1, [x19]
/home/jayanth/quemu-v8/source/optee_os/lib/libdl/dlfcn.c:78
     554:	aa1303e0 	mov	x0, x19
     558:	a94153f3 	ldp	x19, x20, [sp, #16]
     55c:	a9425bf5 	ldp	x21, x22, [sp, #32]
     560:	a8c87bfd 	ldp	x29, x30, [sp], #128
     564:	d65f03c0 	ret
/home/jayanth/quemu-v8/source/optee_os/lib/libdl/dlfcn.c:76
     568:	aa1303e0 	mov	x0, x19
/home/jayanth/quemu-v8/source/optee_os/lib/libdl/dlfcn.c:77
     56c:	d2800013 	mov	x19, #0x0                   	// #0
/home/jayanth/quemu-v8/source/optee_os/lib/libdl/dlfcn.c:76
     570:	940002cd 	bl	10a4 <free>
/home/jayanth/quemu-v8/source/optee_os/lib/libdl/dlfcn.c:77
     574:	17fffff8 	b	554 <dlopen+0x9c>

0000000000000578 <dlclose>:
dlclose():
/home/jayanth/quemu-v8/source/optee_os/lib/libdl/dlfcn.c:81
     578:	a9be7bfd 	stp	x29, x30, [sp, #-32]!
     57c:	910003fd 	mov	x29, sp
     580:	f9000bf3 	str	x19, [sp, #16]
/home/jayanth/quemu-v8/source/optee_os/lib/libdl/dlfcn.c:82
     584:	940002c8 	bl	10a4 <free>
/home/jayanth/quemu-v8/source/optee_os/lib/libdl/dlfcn.c:83
     588:	b0000073 	adrp	x19, d000 <_DYNAMIC>
     58c:	91116261 	add	x1, x19, #0x458
     590:	f9400420 	ldr	x0, [x1, #8]
     594:	d1000400 	sub	x0, x0, #0x1
     598:	f9000420 	str	x0, [x1, #8]
/home/jayanth/quemu-v8/source/optee_os/lib/libdl/dlfcn.c:84
     59c:	b50000a0 	cbnz	x0, 5b0 <dlclose+0x38>
/home/jayanth/quemu-v8/source/optee_os/lib/libdl/dlfcn.c:84 (discriminator 1)
     5a0:	f9422e60 	ldr	x0, [x19, #1112]
     5a4:	b4000060 	cbz	x0, 5b0 <dlclose+0x38>
/home/jayanth/quemu-v8/source/optee_os/lib/libdl/dlfcn.c:85
     5a8:	940008b2 	bl	2870 <TEE_CloseTASession>
/home/jayanth/quemu-v8/source/optee_os/lib/libdl/dlfcn.c:86
     5ac:	f9022e7f 	str	xzr, [x19, #1112]
/home/jayanth/quemu-v8/source/optee_os/lib/libdl/dlfcn.c:89
     5b0:	52800000 	mov	w0, #0x0                   	// #0
     5b4:	f9400bf3 	ldr	x19, [sp, #16]
     5b8:	a8c27bfd 	ldp	x29, x30, [sp], #32
     5bc:	d65f03c0 	ret

00000000000005c0 <dlsym>:
dlsym():
/home/jayanth/quemu-v8/source/optee_os/lib/libdl/dlfcn.c:92
     5c0:	a9bb7bfd 	stp	x29, x30, [sp, #-80]!
/home/jayanth/quemu-v8/source/optee_os/lib/libdl/dlfcn.c:99
     5c4:	f100001f 	cmp	x0, #0x0
/home/jayanth/quemu-v8/source/optee_os/lib/libdl/dlfcn.c:92
     5c8:	aa0003e2 	mov	x2, x0
     5cc:	910003fd 	mov	x29, sp
/home/jayanth/quemu-v8/source/optee_os/lib/libdl/dlfcn.c:94
     5d0:	a9017fff 	stp	xzr, xzr, [sp, #16]
/home/jayanth/quemu-v8/source/optee_os/lib/libdl/dlfcn.c:99
     5d4:	fa401824 	ccmp	x1, #0x0, #0x4, ne  // ne = any
/home/jayanth/quemu-v8/source/optee_os/lib/libdl/dlfcn.c:94
     5d8:	a9027fff 	stp	xzr, xzr, [sp, #32]
     5dc:	a9037fff 	stp	xzr, xzr, [sp, #48]
     5e0:	a9047fff 	stp	xzr, xzr, [sp, #64]
/home/jayanth/quemu-v8/source/optee_os/lib/libdl/dlfcn.c:99
     5e4:	54000081 	b.ne	5f4 <dlsym+0x34>  // b.any
/home/jayanth/quemu-v8/source/optee_os/lib/libdl/dlfcn.c:100
     5e8:	d2800000 	mov	x0, #0x0                   	// #0
/home/jayanth/quemu-v8/source/optee_os/lib/libdl/dlfcn.c:118
     5ec:	a8c57bfd 	ldp	x29, x30, [sp], #80
     5f0:	d65f03c0 	ret
     5f4:	aa0103e0 	mov	x0, x1
/home/jayanth/quemu-v8/source/optee_os/lib/libdl/dlfcn.c:108
     5f8:	52800201 	mov	w1, #0x10                  	// #16
/home/jayanth/quemu-v8/source/optee_os/lib/libdl/dlfcn.c:107
     5fc:	f9000be2 	str	x2, [sp, #16]
/home/jayanth/quemu-v8/source/optee_os/lib/libdl/dlfcn.c:108
     600:	b9001be1 	str	w1, [sp, #24]
/home/jayanth/quemu-v8/source/optee_os/lib/libdl/dlfcn.c:109
     604:	f90013e0 	str	x0, [sp, #32]
/home/jayanth/quemu-v8/source/optee_os/lib/libdl/dlfcn.c:110
     608:	9400037b 	bl	13f4 <strlen>
     60c:	11000400 	add	w0, w0, #0x1
/home/jayanth/quemu-v8/source/optee_os/lib/libdl/dlfcn.c:112
     610:	910043e2 	add	x2, sp, #0x10
     614:	52804aa1 	mov	w1, #0x255                 	// #597
/home/jayanth/quemu-v8/source/optee_os/lib/libdl/dlfcn.c:110
     618:	b9002be0 	str	w0, [sp, #40]
/home/jayanth/quemu-v8/source/optee_os/lib/libdl/dlfcn.c:112
     61c:	52800160 	mov	w0, #0xb                   	// #11
     620:	97ffff80 	bl	420 <invoke_system_pta.constprop.0>
/home/jayanth/quemu-v8/source/optee_os/lib/libdl/dlfcn.c:113
     624:	35fffe20 	cbnz	w0, 5e8 <dlsym+0x28>
reg_pair_to_64():
/home/jayanth/quemu-v8/source/optee_os/lib/libutils/ext/include/util.h:156
     628:	294607e0 	ldp	w0, w1, [sp, #48]
     62c:	aa008020 	orr	x0, x1, x0, lsl #32
     630:	17ffffef 	b	5ec <dlsym+0x2c>

0000000000000634 <raw_malloc_return_hook.constprop.0>:
raw_malloc_return_hook():
/home/jayanth/quemu-v8/source/optee_os/lib/libutils/isoc/bget_malloc.c:211
     634:	b0000062 	adrp	x2, d000 <_DYNAMIC>
     638:	910ea044 	add	x4, x2, #0x3a8
     63c:	f9401083 	ldr	x3, [x4, #32]
     640:	b9406c85 	ldr	w5, [x4, #108]
     644:	eb05007f 	cmp	x3, x5
     648:	5400004d 	b.le	650 <raw_malloc_return_hook.constprop.0+0x1c>
/home/jayanth/quemu-v8/source/optee_os/lib/libutils/isoc/bget_malloc.c:212
     64c:	b9006c83 	str	w3, [x4, #108]
/home/jayanth/quemu-v8/source/optee_os/lib/libutils/isoc/bget_malloc.c:214
     650:	b5000120 	cbnz	x0, 674 <raw_malloc_return_hook.constprop.0+0x40>
/home/jayanth/quemu-v8/source/optee_os/lib/libutils/isoc/bget_malloc.c:215
     654:	910ea040 	add	x0, x2, #0x3a8
     658:	b9407402 	ldr	w2, [x0, #116]
     65c:	11000442 	add	w2, w2, #0x1
     660:	b9007402 	str	w2, [x0, #116]
/home/jayanth/quemu-v8/source/optee_os/lib/libutils/isoc/bget_malloc.c:217
     664:	b9407802 	ldr	w2, [x0, #120]
     668:	eb01005f 	cmp	x2, x1
     66c:	54000042 	b.cs	674 <raw_malloc_return_hook.constprop.0+0x40>  // b.hs, b.nlast
/home/jayanth/quemu-v8/source/optee_os/lib/libutils/isoc/bget_malloc.c:219
     670:	290f0c01 	stp	w1, w3, [x0, #120]
/home/jayanth/quemu-v8/source/optee_os/lib/libutils/isoc/bget_malloc.c:223
     674:	d65f03c0 	ret

0000000000000678 <bget>:
bget():
/home/jayanth/quemu-v8/source/optee_os/lib/libutils/isoc/bget.c:612
     678:	a9bf7bfd 	stp	x29, x30, [sp, #-16]!
/home/jayanth/quemu-v8/source/optee_os/lib/libutils/isoc/bget.c:625
     67c:	f100005f 	cmp	x2, #0x0
/home/jayanth/quemu-v8/source/optee_os/lib/libutils/isoc/bget.c:612
     680:	910003fd 	mov	x29, sp
/home/jayanth/quemu-v8/source/optee_os/lib/libutils/isoc/bget.c:625
     684:	5400014c 	b.gt	6ac <bget+0x34>
/home/jayanth/quemu-v8/source/optee_os/lib/libutils/isoc/bget.c:625 (discriminator 1)
     688:	90000063 	adrp	x3, c000 <__func__.4194+0x3e3>
     68c:	f0000041 	adrp	x1, b000 <__text_end+0x1788>
     690:	f0000040 	adrp	x0, b000 <__text_end+0x1788>
     694:	91005063 	add	x3, x3, #0x14
     698:	91353c21 	add	x1, x1, #0xd4f
     69c:	913f7400 	add	x0, x0, #0xfdd
     6a0:	52804e22 	mov	w2, #0x271                 	// #625
/home/jayanth/quemu-v8/source/optee_os/lib/libutils/isoc/bget.c:690
     6a4:	9400075e 	bl	241c <_assert_log>
     6a8:	9400076e 	bl	2460 <_assert_break>
/home/jayanth/quemu-v8/source/optee_os/lib/libutils/isoc/bget.c:628 (discriminator 2)
     6ac:	f100001f 	cmp	x0, #0x0
     6b0:	5400022b 	b.lt	6f4 <bget+0x7c>  // b.tstop
/home/jayanth/quemu-v8/source/optee_os/lib/libutils/isoc/bget.c:628 (discriminator 1)
     6b4:	54000080 	b.eq	6c4 <bget+0x4c>  // b.none
/home/jayanth/quemu-v8/source/optee_os/lib/libutils/isoc/bget.c:628 (discriminator 3)
     6b8:	cb0003e4 	neg	x4, x0
     6bc:	ea24001f 	bics	xzr, x0, x4
     6c0:	540001a1 	b.ne	6f4 <bget+0x7c>  // b.any
/home/jayanth/quemu-v8/source/optee_os/lib/libutils/isoc/bget.c:630
     6c4:	f2400c3f 	tst	x1, #0xf
     6c8:	54000161 	b.ne	6f4 <bget+0x7c>  // b.any
/home/jayanth/quemu-v8/source/optee_os/lib/libutils/isoc/bget.c:640
     6cc:	d2800205 	mov	x5, #0x10                  	// #16
     6d0:	eb05005f 	cmp	x2, x5
     6d4:	9a85a042 	csel	x2, x2, x5, ge  // ge = tcont
     6d8:	b1003c44 	adds	x4, x2, #0xf
     6dc:	540000c4 	b.mi	6f4 <bget+0x7c>  // b.first
     6e0:	eb02009f 	cmp	x4, x2
     6e4:	54000083 	b.cc	6f4 <bget+0x7c>  // b.lo, b.ul, b.last
/home/jayanth/quemu-v8/source/optee_os/lib/libutils/isoc/bget.c:643
     6e8:	927cec84 	and	x4, x4, #0xfffffffffffffff0
/home/jayanth/quemu-v8/source/optee_os/lib/libutils/isoc/bget.c:648
     6ec:	b1004084 	adds	x4, x4, #0x10
     6f0:	54000067 	b.vc	6fc <bget+0x84>
/home/jayanth/quemu-v8/source/optee_os/lib/libutils/isoc/bget.c:629
     6f4:	d2800000 	mov	x0, #0x0                   	// #0
     6f8:	1400008d 	b	92c <bget+0x2b4>
/home/jayanth/quemu-v8/source/optee_os/lib/libutils/isoc/bget.c:650
     6fc:	ab010084 	adds	x4, x4, x1
     700:	54ffffa6 	b.vs	6f4 <bget+0x7c>
     704:	f100401f 	cmp	x0, #0x10
     708:	91004027 	add	x7, x1, #0x10
     70c:	9a85a000 	csel	x0, x0, x5, ge  // ge = tcont
buf_get_pos():
/home/jayanth/quemu-v8/source/optee_os/lib/libutils/isoc/bget.c:592
     710:	cb0400e7 	sub	x7, x7, x4
bget():
/home/jayanth/quemu-v8/source/optee_os/lib/libutils/isoc/bget.c:660
     714:	f9400862 	ldr	x2, [x3, #16]
buf_get_pos():
/home/jayanth/quemu-v8/source/optee_os/lib/libutils/isoc/bget.c:594
     718:	cb0003e0 	neg	x0, x0
/home/jayanth/quemu-v8/source/optee_os/lib/libutils/isoc/bget.c:599
     71c:	b27be7ea 	mov	x10, #0x7fffffffffffffe0    	// #9223372036854775776
bget():
/home/jayanth/quemu-v8/source/optee_os/lib/libutils/isoc/bget.c:684
     720:	eb03005f 	cmp	x2, x3
     724:	54fffe80 	b.eq	6f4 <bget+0x7c>  // b.none
buf_get_pos():
/home/jayanth/quemu-v8/source/optee_os/lib/libutils/isoc/bget.c:585
     728:	f9400445 	ldr	x5, [x2, #8]
     72c:	eb05009f 	cmp	x4, x5
     730:	5400102c 	b.gt	934 <bget+0x2bc>
/home/jayanth/quemu-v8/source/optee_os/lib/libutils/isoc/bget.c:592
     734:	8b0200a9 	add	x9, x5, x2
/home/jayanth/quemu-v8/source/optee_os/lib/libutils/isoc/bget.c:595
     738:	8b010048 	add	x8, x2, x1
/home/jayanth/quemu-v8/source/optee_os/lib/libutils/isoc/bget.c:592
     73c:	8b070126 	add	x6, x9, x7
/home/jayanth/quemu-v8/source/optee_os/lib/libutils/isoc/bget.c:594
     740:	8a060006 	and	x6, x0, x6
/home/jayanth/quemu-v8/source/optee_os/lib/libutils/isoc/bget.c:595
     744:	cb0800c6 	sub	x6, x6, x8
/home/jayanth/quemu-v8/source/optee_os/lib/libutils/isoc/bget.c:597
     748:	f10040c8 	subs	x8, x6, #0x10
     74c:	54000080 	b.eq	75c <bget+0xe4>  // b.none
/home/jayanth/quemu-v8/source/optee_os/lib/libutils/isoc/bget.c:599
     750:	d100c0c6 	sub	x6, x6, #0x30
     754:	eb0a00df 	cmp	x6, x10
     758:	54000ee2 	b.cs	934 <bget+0x2bc>  // b.hs, b.nlast
bget():
/home/jayanth/quemu-v8/source/optee_os/lib/libutils/isoc/bget.c:690
     75c:	f8656841 	ldr	x1, [x2, x5]
/home/jayanth/quemu-v8/source/optee_os/lib/libutils/isoc/bget.c:687
     760:	8b080040 	add	x0, x2, x8
/home/jayanth/quemu-v8/source/optee_os/lib/libutils/isoc/bget.c:690
     764:	eb05003f 	cmp	x1, x5
     768:	54000120 	b.eq	78c <bget+0x114>  // b.none
     76c:	90000063 	adrp	x3, c000 <__func__.4194+0x3e3>
     770:	f0000041 	adrp	x1, b000 <__text_end+0x1788>
     774:	f0000040 	adrp	x0, b000 <__text_end+0x1788>
     778:	91005063 	add	x3, x3, #0x14
     77c:	91353c21 	add	x1, x1, #0xd4f
     780:	9135a000 	add	x0, x0, #0xd68
     784:	52805642 	mov	w2, #0x2b2                 	// #690
     788:	17ffffc7 	b	6a4 <bget+0x2c>
/home/jayanth/quemu-v8/source/optee_os/lib/libutils/isoc/bget.c:698
     78c:	f9400c41 	ldr	x1, [x2, #24]
/home/jayanth/quemu-v8/source/optee_os/lib/libutils/isoc/bget.c:696
     790:	f825685f 	str	xzr, [x2, x5]
/home/jayanth/quemu-v8/source/optee_os/lib/libutils/isoc/bget.c:698
     794:	f9400826 	ldr	x6, [x1, #16]
     798:	eb06005f 	cmp	x2, x6
     79c:	54000120 	b.eq	7c0 <bget+0x148>  // b.none
     7a0:	90000063 	adrp	x3, c000 <__func__.4194+0x3e3>
     7a4:	f0000041 	adrp	x1, b000 <__text_end+0x1788>
     7a8:	f0000040 	adrp	x0, b000 <__text_end+0x1788>
     7ac:	91005063 	add	x3, x3, #0x14
     7b0:	91353c21 	add	x1, x1, #0xd4f
     7b4:	91362000 	add	x0, x0, #0xd88
     7b8:	52805742 	mov	w2, #0x2ba                 	// #698
     7bc:	17ffffba 	b	6a4 <bget+0x2c>
/home/jayanth/quemu-v8/source/optee_os/lib/libutils/isoc/bget.c:699
     7c0:	f9400846 	ldr	x6, [x2, #16]
     7c4:	f9400cc7 	ldr	x7, [x6, #24]
     7c8:	eb07005f 	cmp	x2, x7
     7cc:	54000120 	b.eq	7f0 <bget+0x178>  // b.none
     7d0:	90000063 	adrp	x3, c000 <__func__.4194+0x3e3>
     7d4:	f0000041 	adrp	x1, b000 <__text_end+0x1788>
     7d8:	f0000040 	adrp	x0, b000 <__text_end+0x1788>
     7dc:	91005063 	add	x3, x3, #0x14
     7e0:	91353c21 	add	x1, x1, #0xd4f
     7e4:	91368c00 	add	x0, x0, #0xda3
     7e8:	52805762 	mov	w2, #0x2bb                 	// #699
     7ec:	17ffffae 	b	6a4 <bget+0x2c>
/home/jayanth/quemu-v8/source/optee_os/lib/libutils/isoc/bget.c:701
     7f0:	b5000208 	cbnz	x8, 830 <bget+0x1b8>
/home/jayanth/quemu-v8/source/optee_os/lib/libutils/isoc/bget.c:706
     7f4:	f9000826 	str	x6, [x1, #16]
/home/jayanth/quemu-v8/source/optee_os/lib/libutils/isoc/bget.c:710
     7f8:	cb0503e5 	neg	x5, x5
/home/jayanth/quemu-v8/source/optee_os/lib/libutils/isoc/bget.c:707
     7fc:	f9400846 	ldr	x6, [x2, #16]
     800:	f9000cc1 	str	x1, [x6, #24]
/home/jayanth/quemu-v8/source/optee_os/lib/libutils/isoc/bget.c:710
     804:	f9000445 	str	x5, [x2, #8]
/home/jayanth/quemu-v8/source/optee_os/lib/libutils/isoc/bget.c:721
     808:	f9400402 	ldr	x2, [x0, #8]
     80c:	b7f801a2 	tbnz	x2, #63, 840 <bget+0x1c8>
     810:	90000063 	adrp	x3, c000 <__func__.4194+0x3e3>
     814:	f0000041 	adrp	x1, b000 <__text_end+0x1788>
     818:	f0000040 	adrp	x0, b000 <__text_end+0x1788>
     81c:	91005063 	add	x3, x3, #0x14
     820:	91353c21 	add	x1, x1, #0xd4f
     824:	9136f800 	add	x0, x0, #0xdbe
     828:	52805a22 	mov	w2, #0x2d1                 	// #721
     82c:	17ffff9e 	b	6a4 <bget+0x2c>
/home/jayanth/quemu-v8/source/optee_os/lib/libutils/isoc/bget.c:716
     830:	cb050105 	sub	x5, x8, x5
     834:	a9001408 	stp	x8, x5, [x0]
/home/jayanth/quemu-v8/source/optee_os/lib/libutils/isoc/bget.c:718
     838:	f9000448 	str	x8, [x2, #8]
     83c:	17fffff3 	b	808 <bget+0x190>
/home/jayanth/quemu-v8/source/optee_os/lib/libutils/isoc/bget.c:727
     840:	cb0203e2 	neg	x2, x2
     844:	cb040042 	sub	x2, x2, x4
     848:	f100805f 	cmp	x2, #0x20
     84c:	54000609 	b.ls	90c <bget+0x294>  // b.plast
/home/jayanth/quemu-v8/source/optee_os/lib/libutils/isoc/bget.c:733
     850:	8b040001 	add	x1, x0, x4
/home/jayanth/quemu-v8/source/optee_os/lib/libutils/isoc/bget.c:734
     854:	f9000422 	str	x2, [x1, #8]
/home/jayanth/quemu-v8/source/optee_os/lib/libutils/isoc/bget.c:735
     858:	f824681f 	str	xzr, [x0, x4]
/home/jayanth/quemu-v8/source/optee_os/lib/libutils/isoc/bget.c:736
     85c:	f9400404 	ldr	x4, [x0, #8]
     860:	8b020082 	add	x2, x4, x2
     864:	f9000402 	str	x2, [x0, #8]
/home/jayanth/quemu-v8/source/optee_os/lib/libutils/isoc/bget.c:738
     868:	f9400c62 	ldr	x2, [x3, #24]
     86c:	f9400844 	ldr	x4, [x2, #16]
     870:	eb03009f 	cmp	x4, x3
     874:	54000120 	b.eq	898 <bget+0x220>  // b.none
     878:	90000063 	adrp	x3, c000 <__func__.4194+0x3e3>
     87c:	f0000041 	adrp	x1, b000 <__text_end+0x1788>
     880:	f0000040 	adrp	x0, b000 <__text_end+0x1788>
     884:	91005063 	add	x3, x3, #0x14
     888:	91353c21 	add	x1, x1, #0xd4f
     88c:	91374400 	add	x0, x0, #0xdd1
     890:	52805c42 	mov	w2, #0x2e2                 	// #738
     894:	17ffff84 	b	6a4 <bget+0x2c>
/home/jayanth/quemu-v8/source/optee_os/lib/libutils/isoc/bget.c:740
     898:	f9400864 	ldr	x4, [x3, #16]
     89c:	f9400c84 	ldr	x4, [x4, #24]
     8a0:	eb03009f 	cmp	x4, x3
     8a4:	54000120 	b.eq	8c8 <bget+0x250>  // b.none
     8a8:	90000063 	adrp	x3, c000 <__func__.4194+0x3e3>
     8ac:	f0000041 	adrp	x1, b000 <__text_end+0x1788>
     8b0:	f0000040 	adrp	x0, b000 <__text_end+0x1788>
     8b4:	91005063 	add	x3, x3, #0x14
     8b8:	91353c21 	add	x1, x1, #0xd4f
     8bc:	91383000 	add	x0, x0, #0xe0c
     8c0:	52805c82 	mov	w2, #0x2e4                 	// #740
     8c4:	17ffff78 	b	6a4 <bget+0x2c>
/home/jayanth/quemu-v8/source/optee_os/lib/libutils/isoc/bget.c:743
     8c8:	a9010823 	stp	x3, x2, [x1, #16]
/home/jayanth/quemu-v8/source/optee_os/lib/libutils/isoc/bget.c:744
     8cc:	f9000c61 	str	x1, [x3, #24]
/home/jayanth/quemu-v8/source/optee_os/lib/libutils/isoc/bget.c:745
     8d0:	f9400c22 	ldr	x2, [x1, #24]
     8d4:	f9000841 	str	x1, [x2, #16]
/home/jayanth/quemu-v8/source/optee_os/lib/libutils/isoc/bget.c:747
     8d8:	f9400422 	ldr	x2, [x1, #8]
     8dc:	8b020021 	add	x1, x1, x2
     8e0:	eb01013f 	cmp	x9, x1
     8e4:	54000120 	b.eq	908 <bget+0x290>  // b.none
     8e8:	90000063 	adrp	x3, c000 <__func__.4194+0x3e3>
     8ec:	f0000041 	adrp	x1, b000 <__text_end+0x1788>
     8f0:	f0000040 	adrp	x0, b000 <__text_end+0x1788>
     8f4:	91005063 	add	x3, x3, #0x14
     8f8:	91353c21 	add	x1, x1, #0xd4f
     8fc:	91391c00 	add	x0, x0, #0xe47
     900:	52805d62 	mov	w2, #0x2eb                 	// #747
     904:	17ffff68 	b	6a4 <bget+0x2c>
/home/jayanth/quemu-v8/source/optee_os/lib/libutils/isoc/bget.c:748
     908:	f9000122 	str	x2, [x9]
/home/jayanth/quemu-v8/source/optee_os/lib/libutils/isoc/bget.c:752
     90c:	f9400402 	ldr	x2, [x0, #8]
/home/jayanth/quemu-v8/source/optee_os/lib/libutils/isoc/bget.c:755
     910:	91004000 	add	x0, x0, #0x10
/home/jayanth/quemu-v8/source/optee_os/lib/libutils/isoc/bget.c:752
     914:	f9401061 	ldr	x1, [x3, #32]
     918:	cb020021 	sub	x1, x1, x2
     91c:	f9001061 	str	x1, [x3, #32]
/home/jayanth/quemu-v8/source/optee_os/lib/libutils/isoc/bget.c:753
     920:	f9401461 	ldr	x1, [x3, #40]
     924:	91000421 	add	x1, x1, #0x1
     928:	f9001461 	str	x1, [x3, #40]
/home/jayanth/quemu-v8/source/optee_os/lib/libutils/isoc/bget.c:839
     92c:	a8c17bfd 	ldp	x29, x30, [sp], #16
     930:	d65f03c0 	ret
/home/jayanth/quemu-v8/source/optee_os/lib/libutils/isoc/bget.c:759
     934:	f9400842 	ldr	x2, [x2, #16]
     938:	17ffff7a 	b	720 <bget+0xa8>

000000000000093c <bgetz>:
bgetz():
/home/jayanth/quemu-v8/source/optee_os/lib/libutils/isoc/bget.c:850
     93c:	a9be7bfd 	stp	x29, x30, [sp, #-32]!
     940:	910003fd 	mov	x29, sp
     944:	f9000bf3 	str	x19, [sp, #16]
     948:	aa0203f3 	mov	x19, x2
/home/jayanth/quemu-v8/source/optee_os/lib/libutils/isoc/bget.c:851
     94c:	97ffff4b 	bl	678 <bget>
     950:	aa0003e3 	mov	x3, x0
/home/jayanth/quemu-v8/source/optee_os/lib/libutils/isoc/bget.c:853
     954:	b4000320 	cbz	x0, 9b8 <bgetz+0x7c>
/home/jayanth/quemu-v8/source/optee_os/lib/libutils/isoc/bget.c:858
     958:	f85f8002 	ldur	x2, [x0, #-8]
/home/jayanth/quemu-v8/source/optee_os/lib/libutils/isoc/bget.c:859
     95c:	b5000202 	cbnz	x2, 99c <bgetz+0x60>
/home/jayanth/quemu-v8/source/optee_os/lib/libutils/isoc/bget.c:863
     960:	a97e0801 	ldp	x1, x2, [x0, #-32]
     964:	d1008021 	sub	x1, x1, #0x20
/home/jayanth/quemu-v8/source/optee_os/lib/libutils/isoc/bget.c:865
     968:	cb020022 	sub	x2, x1, x2
/home/jayanth/quemu-v8/source/optee_os/lib/libutils/isoc/bget.c:867
     96c:	eb13005f 	cmp	x2, x19
     970:	540001aa 	b.ge	9a4 <bgetz+0x68>  // b.tcont
     974:	90000063 	adrp	x3, c000 <__func__.4194+0x3e3>
     978:	91005063 	add	x3, x3, #0x14
     97c:	91001463 	add	x3, x3, #0x5
     980:	f0000041 	adrp	x1, b000 <__text_end+0x1788>
     984:	f0000040 	adrp	x0, b000 <__text_end+0x1788>
     988:	91353c21 	add	x1, x1, #0xd4f
     98c:	9139b400 	add	x0, x0, #0xe6d
     990:	52806c62 	mov	w2, #0x363                 	// #867
     994:	940006a2 	bl	241c <_assert_log>
     998:	940006b2 	bl	2460 <_assert_break>
/home/jayanth/quemu-v8/source/optee_os/lib/libutils/isoc/bget.c:865
     99c:	928001e1 	mov	x1, #0xfffffffffffffff0    	// #-16
     9a0:	17fffff2 	b	968 <bgetz+0x2c>
memset_unchecked():
/home/jayanth/quemu-v8/source/optee_os/lib/libutils/isoc/bget_malloc.c:131 (discriminator 2)
     9a4:	aa0303e0 	mov	x0, x3
     9a8:	93407c42 	sxtw	x2, w2
     9ac:	52800001 	mov	w1, #0x0                   	// #0
     9b0:	9400028a 	bl	13d8 <memset>
     9b4:	aa0003e3 	mov	x3, x0
bgetz():
/home/jayanth/quemu-v8/source/optee_os/lib/libutils/isoc/bget.c:871
     9b8:	aa0303e0 	mov	x0, x3
     9bc:	f9400bf3 	ldr	x19, [sp, #16]
     9c0:	a8c27bfd 	ldp	x29, x30, [sp], #32
     9c4:	d65f03c0 	ret

00000000000009c8 <brel>:
brel():
/home/jayanth/quemu-v8/source/optee_os/lib/libutils/isoc/bget.c:925
     9c8:	a9be7bfd 	stp	x29, x30, [sp, #-32]!
     9cc:	910003fd 	mov	x29, sp
/home/jayanth/quemu-v8/source/optee_os/lib/libutils/isoc/bget.c:931
     9d0:	f9401823 	ldr	x3, [x1, #48]
/home/jayanth/quemu-v8/source/optee_os/lib/libutils/isoc/bget.c:925
     9d4:	a90153f3 	stp	x19, x20, [sp, #16]
/home/jayanth/quemu-v8/source/optee_os/lib/libutils/isoc/bget.c:931
     9d8:	91000463 	add	x3, x3, #0x1
     9dc:	f9001823 	str	x3, [x1, #48]
/home/jayanth/quemu-v8/source/optee_os/lib/libutils/isoc/bget.c:933
     9e0:	b5000160 	cbnz	x0, a0c <brel+0x44>
/home/jayanth/quemu-v8/source/optee_os/lib/libutils/isoc/bget.c:933 (discriminator 1)
     9e4:	90000063 	adrp	x3, c000 <__func__.4194+0x3e3>
     9e8:	91005063 	add	x3, x3, #0x14
     9ec:	f0000041 	adrp	x1, b000 <__text_end+0x1788>
     9f0:	f0000040 	adrp	x0, b000 <__text_end+0x1788>
     9f4:	91002c63 	add	x3, x3, #0xb
     9f8:	91353c21 	add	x1, x1, #0xd4f
     9fc:	9139ec00 	add	x0, x0, #0xe7b
     a00:	528074a2 	mov	w2, #0x3a5                 	// #933
/home/jayanth/quemu-v8/source/optee_os/lib/libutils/isoc/bget.c:968 (discriminator 1)
     a04:	94000686 	bl	241c <_assert_log>
     a08:	94000696 	bl	2460 <_assert_break>
/home/jayanth/quemu-v8/source/optee_os/lib/libutils/isoc/bget.c:965 (discriminator 2)
     a0c:	f85f8003 	ldur	x3, [x0, #-8]
/home/jayanth/quemu-v8/source/optee_os/lib/libutils/isoc/bget.c:968 (discriminator 2)
     a10:	b7f80143 	tbnz	x3, #63, a38 <brel+0x70>
/home/jayanth/quemu-v8/source/optee_os/lib/libutils/isoc/bget.c:968 (discriminator 1)
     a14:	90000063 	adrp	x3, c000 <__func__.4194+0x3e3>
     a18:	91005063 	add	x3, x3, #0x14
     a1c:	f0000041 	adrp	x1, b000 <__text_end+0x1788>
     a20:	f0000040 	adrp	x0, b000 <__text_end+0x1788>
     a24:	91002c63 	add	x3, x3, #0xb
     a28:	91353c21 	add	x1, x1, #0xd4f
     a2c:	913a1c00 	add	x0, x0, #0xe87
     a30:	52807902 	mov	w2, #0x3c8                 	// #968
     a34:	17fffff4 	b	a04 <brel+0x3c>
     a38:	d1004013 	sub	x19, x0, #0x10
/home/jayanth/quemu-v8/source/optee_os/lib/libutils/isoc/bget.c:974 (discriminator 2)
     a3c:	cb030264 	sub	x4, x19, x3
     a40:	f9400084 	ldr	x4, [x4]
     a44:	b4000144 	cbz	x4, a6c <brel+0xa4>
/home/jayanth/quemu-v8/source/optee_os/lib/libutils/isoc/bget.c:974 (discriminator 1)
     a48:	90000063 	adrp	x3, c000 <__func__.4194+0x3e3>
     a4c:	91005063 	add	x3, x3, #0x14
     a50:	f0000041 	adrp	x1, b000 <__text_end+0x1788>
     a54:	f0000040 	adrp	x0, b000 <__text_end+0x1788>
     a58:	91002c63 	add	x3, x3, #0xb
     a5c:	91353c21 	add	x1, x1, #0xd4f
     a60:	913a5c00 	add	x0, x0, #0xe97
     a64:	528079c2 	mov	w2, #0x3ce                 	// #974
     a68:	17ffffe7 	b	a04 <brel+0x3c>
/home/jayanth/quemu-v8/source/optee_os/lib/libutils/isoc/bget.c:977 (discriminator 2)
     a6c:	f9401024 	ldr	x4, [x1, #32]
     a70:	8b040064 	add	x4, x3, x4
     a74:	f9001024 	str	x4, [x1, #32]
/home/jayanth/quemu-v8/source/optee_os/lib/libutils/isoc/bget.c:978 (discriminator 2)
     a78:	b6f80144 	tbz	x4, #63, aa0 <brel+0xd8>
/home/jayanth/quemu-v8/source/optee_os/lib/libutils/isoc/bget.c:978 (discriminator 1)
     a7c:	90000063 	adrp	x3, c000 <__func__.4194+0x3e3>
     a80:	91005063 	add	x3, x3, #0x14
     a84:	f0000041 	adrp	x1, b000 <__text_end+0x1788>
     a88:	f0000040 	adrp	x0, b000 <__text_end+0x1788>
     a8c:	91002c63 	add	x3, x3, #0xb
     a90:	91353c21 	add	x1, x1, #0xd4f
     a94:	913b0c00 	add	x0, x0, #0xec3
     a98:	52807a42 	mov	w2, #0x3d2                 	// #978
     a9c:	17ffffda 	b	a04 <brel+0x3c>
/home/jayanth/quemu-v8/source/optee_os/lib/libutils/isoc/bget.c:983 (discriminator 2)
     aa0:	f85f0004 	ldur	x4, [x0, #-16]
     aa4:	b4000424 	cbz	x4, b28 <brel+0x160>
/home/jayanth/quemu-v8/source/optee_os/lib/libutils/isoc/bget.c:994
     aa8:	cb040273 	sub	x19, x19, x4
     aac:	f9400660 	ldr	x0, [x19, #8]
     ab0:	eb00009f 	cmp	x4, x0
     ab4:	54000140 	b.eq	adc <brel+0x114>  // b.none
/home/jayanth/quemu-v8/source/optee_os/lib/libutils/isoc/bget.c:994 (discriminator 1)
     ab8:	90000063 	adrp	x3, c000 <__func__.4194+0x3e3>
     abc:	91005063 	add	x3, x3, #0x14
     ac0:	f0000041 	adrp	x1, b000 <__text_end+0x1788>
     ac4:	f0000040 	adrp	x0, b000 <__text_end+0x1788>
     ac8:	91002c63 	add	x3, x3, #0xb
     acc:	91353c21 	add	x1, x1, #0xd4f
     ad0:	913b6800 	add	x0, x0, #0xeda
     ad4:	52807c42 	mov	w2, #0x3e2                 	// #994
     ad8:	17ffffcb 	b	a04 <brel+0x3c>
/home/jayanth/quemu-v8/source/optee_os/lib/libutils/isoc/bget.c:996 (discriminator 2)
     adc:	cb030083 	sub	x3, x4, x3
     ae0:	f9000663 	str	x3, [x19, #8]
/home/jayanth/quemu-v8/source/optee_os/lib/libutils/isoc/bget.c:1016
     ae4:	f9400660 	ldr	x0, [x19, #8]
     ae8:	8b000274 	add	x20, x19, x0
/home/jayanth/quemu-v8/source/optee_os/lib/libutils/isoc/bget.c:1017
     aec:	f9400681 	ldr	x1, [x20, #8]
     af0:	f100003f 	cmp	x1, #0x0
     af4:	540009ad 	b.le	c28 <brel+0x260>
/home/jayanth/quemu-v8/source/optee_os/lib/libutils/isoc/bget.c:1022
     af8:	f8616a83 	ldr	x3, [x20, x1]
     afc:	eb03003f 	cmp	x1, x3
     b00:	54000560 	b.eq	bac <brel+0x1e4>  // b.none
/home/jayanth/quemu-v8/source/optee_os/lib/libutils/isoc/bget.c:1022 (discriminator 1)
     b04:	90000063 	adrp	x3, c000 <__func__.4194+0x3e3>
     b08:	91005063 	add	x3, x3, #0x14
     b0c:	f0000041 	adrp	x1, b000 <__text_end+0x1788>
     b10:	f0000040 	adrp	x0, b000 <__text_end+0x1788>
     b14:	91002c63 	add	x3, x3, #0xb
     b18:	91353c21 	add	x1, x1, #0xd4f
     b1c:	913c4c00 	add	x0, x0, #0xf13
     b20:	52807fc2 	mov	w2, #0x3fe                 	// #1022
     b24:	17ffffb8 	b	a04 <brel+0x3c>
/home/jayanth/quemu-v8/source/optee_os/lib/libutils/isoc/bget.c:1002
     b28:	f9400c25 	ldr	x5, [x1, #24]
     b2c:	f94008a4 	ldr	x4, [x5, #16]
     b30:	eb01009f 	cmp	x4, x1
     b34:	54000140 	b.eq	b5c <brel+0x194>  // b.none
/home/jayanth/quemu-v8/source/optee_os/lib/libutils/isoc/bget.c:1002 (discriminator 1)
     b38:	90000063 	adrp	x3, c000 <__func__.4194+0x3e3>
     b3c:	91005063 	add	x3, x3, #0x14
     b40:	f0000041 	adrp	x1, b000 <__text_end+0x1788>
     b44:	f0000040 	adrp	x0, b000 <__text_end+0x1788>
     b48:	91002c63 	add	x3, x3, #0xb
     b4c:	91353c21 	add	x1, x1, #0xd4f
     b50:	91374400 	add	x0, x0, #0xdd1
     b54:	52807d42 	mov	w2, #0x3ea                 	// #1002
     b58:	17ffffab 	b	a04 <brel+0x3c>
/home/jayanth/quemu-v8/source/optee_os/lib/libutils/isoc/bget.c:1003 (discriminator 2)
     b5c:	f9400881 	ldr	x1, [x4, #16]
     b60:	f9400c21 	ldr	x1, [x1, #24]
     b64:	eb01009f 	cmp	x4, x1
     b68:	54000140 	b.eq	b90 <brel+0x1c8>  // b.none
/home/jayanth/quemu-v8/source/optee_os/lib/libutils/isoc/bget.c:1003 (discriminator 1)
     b6c:	90000063 	adrp	x3, c000 <__func__.4194+0x3e3>
     b70:	91005063 	add	x3, x3, #0x14
     b74:	f0000041 	adrp	x1, b000 <__text_end+0x1788>
     b78:	f0000040 	adrp	x0, b000 <__text_end+0x1788>
     b7c:	91002c63 	add	x3, x3, #0xb
     b80:	91353c21 	add	x1, x1, #0xd4f
     b84:	91383000 	add	x0, x0, #0xe0c
     b88:	52807d62 	mov	w2, #0x3eb                 	// #1003
     b8c:	17ffff9e 	b	a04 <brel+0x3c>
/home/jayanth/quemu-v8/source/optee_os/lib/libutils/isoc/bget.c:1005 (discriminator 2)
     b90:	a9011664 	stp	x4, x5, [x19, #16]
/home/jayanth/quemu-v8/source/optee_os/lib/libutils/isoc/bget.c:969 (discriminator 2)
     b94:	cb0303e3 	neg	x3, x3
/home/jayanth/quemu-v8/source/optee_os/lib/libutils/isoc/bget.c:1006 (discriminator 2)
     b98:	f9000c93 	str	x19, [x4, #24]
/home/jayanth/quemu-v8/source/optee_os/lib/libutils/isoc/bget.c:1007 (discriminator 2)
     b9c:	f9400e61 	ldr	x1, [x19, #24]
     ba0:	f9000833 	str	x19, [x1, #16]
/home/jayanth/quemu-v8/source/optee_os/lib/libutils/isoc/bget.c:1008 (discriminator 2)
     ba4:	f81f8003 	stur	x3, [x0, #-8]
     ba8:	17ffffcf 	b	ae4 <brel+0x11c>
/home/jayanth/quemu-v8/source/optee_os/lib/libutils/isoc/bget.c:1023 (discriminator 2)
     bac:	f9400e84 	ldr	x4, [x20, #24]
     bb0:	f9400885 	ldr	x5, [x4, #16]
     bb4:	eb1400bf 	cmp	x5, x20
     bb8:	54000140 	b.eq	be0 <brel+0x218>  // b.none
/home/jayanth/quemu-v8/source/optee_os/lib/libutils/isoc/bget.c:1023 (discriminator 1)
     bbc:	90000063 	adrp	x3, c000 <__func__.4194+0x3e3>
     bc0:	91005063 	add	x3, x3, #0x14
     bc4:	f0000041 	adrp	x1, b000 <__text_end+0x1788>
     bc8:	f0000040 	adrp	x0, b000 <__text_end+0x1788>
     bcc:	91002c63 	add	x3, x3, #0xb
     bd0:	91353c21 	add	x1, x1, #0xd4f
     bd4:	913d3000 	add	x0, x0, #0xf4c
     bd8:	52807fe2 	mov	w2, #0x3ff                 	// #1023
     bdc:	17ffff8a 	b	a04 <brel+0x3c>
/home/jayanth/quemu-v8/source/optee_os/lib/libutils/isoc/bget.c:1024 (discriminator 2)
     be0:	f94008a3 	ldr	x3, [x5, #16]
     be4:	f9400c66 	ldr	x6, [x3, #24]
     be8:	eb0500df 	cmp	x6, x5
     bec:	54000140 	b.eq	c14 <brel+0x24c>  // b.none
/home/jayanth/quemu-v8/source/optee_os/lib/libutils/isoc/bget.c:1024 (discriminator 1)
     bf0:	90000063 	adrp	x3, c000 <__func__.4194+0x3e3>
     bf4:	91005063 	add	x3, x3, #0x14
     bf8:	f0000041 	adrp	x1, b000 <__text_end+0x1788>
     bfc:	f0000040 	adrp	x0, b000 <__text_end+0x1788>
     c00:	91002c63 	add	x3, x3, #0xb
     c04:	91353c21 	add	x1, x1, #0xd4f
     c08:	913da400 	add	x0, x0, #0xf69
     c0c:	52808002 	mov	w2, #0x400                 	// #1024
     c10:	17ffff7d 	b	a04 <brel+0x3c>
/home/jayanth/quemu-v8/source/optee_os/lib/libutils/isoc/bget.c:1025 (discriminator 2)
     c14:	f9000883 	str	x3, [x4, #16]
/home/jayanth/quemu-v8/source/optee_os/lib/libutils/isoc/bget.c:1027 (discriminator 2)
     c18:	8b010014 	add	x20, x0, x1
/home/jayanth/quemu-v8/source/optee_os/lib/libutils/isoc/bget.c:1026 (discriminator 2)
     c1c:	f9000c64 	str	x4, [x3, #24]
/home/jayanth/quemu-v8/source/optee_os/lib/libutils/isoc/bget.c:1027 (discriminator 2)
     c20:	f9000674 	str	x20, [x19, #8]
/home/jayanth/quemu-v8/source/optee_os/lib/libutils/isoc/bget.c:1036 (discriminator 2)
     c24:	8b140274 	add	x20, x19, x20
/home/jayanth/quemu-v8/source/optee_os/lib/libutils/isoc/bget.c:1038
     c28:	340000e2 	cbz	w2, c44 <brel+0x27c>
/home/jayanth/quemu-v8/source/optee_os/lib/libutils/isoc/bget.c:1040
     c2c:	f9400662 	ldr	x2, [x19, #8]
memset_unchecked():
/home/jayanth/quemu-v8/source/optee_os/lib/libutils/isoc/bget_malloc.c:131
     c30:	91008260 	add	x0, x19, #0x20
     c34:	52800aa1 	mov	w1, #0x55                  	// #85
brel():
/home/jayanth/quemu-v8/source/optee_os/lib/libutils/isoc/bget.c:1040
     c38:	51008042 	sub	w2, w2, #0x20
memset_unchecked():
/home/jayanth/quemu-v8/source/optee_os/lib/libutils/isoc/bget_malloc.c:131
     c3c:	93407c42 	sxtw	x2, w2
     c40:	940001e6 	bl	13d8 <memset>
brel():
/home/jayanth/quemu-v8/source/optee_os/lib/libutils/isoc/bget.c:1042
     c44:	f9400680 	ldr	x0, [x20, #8]
     c48:	b7f80140 	tbnz	x0, #63, c70 <brel+0x2a8>
/home/jayanth/quemu-v8/source/optee_os/lib/libutils/isoc/bget.c:1042 (discriminator 1)
     c4c:	90000063 	adrp	x3, c000 <__func__.4194+0x3e3>
     c50:	91005063 	add	x3, x3, #0x14
     c54:	f0000041 	adrp	x1, b000 <__text_end+0x1788>
     c58:	f0000040 	adrp	x0, b000 <__text_end+0x1788>
     c5c:	91002c63 	add	x3, x3, #0xb
     c60:	91353c21 	add	x1, x1, #0xd4f
     c64:	913e1800 	add	x0, x0, #0xf86
     c68:	52808242 	mov	w2, #0x412                 	// #1042
     c6c:	17ffff66 	b	a04 <brel+0x3c>
/home/jayanth/quemu-v8/source/optee_os/lib/libutils/isoc/bget.c:1047 (discriminator 2)
     c70:	f9400660 	ldr	x0, [x19, #8]
     c74:	f9000280 	str	x0, [x20]
/home/jayanth/quemu-v8/source/optee_os/lib/libutils/isoc/bget.c:1075 (discriminator 2)
     c78:	a94153f3 	ldp	x19, x20, [sp, #16]
     c7c:	a8c27bfd 	ldp	x29, x30, [sp], #32
     c80:	d65f03c0 	ret

0000000000000c84 <bgetr>:
bgetr():
/home/jayanth/quemu-v8/source/optee_os/lib/libutils/isoc/bget.c:884
     c84:	a9bc7bfd 	stp	x29, x30, [sp, #-64]!
     c88:	910003fd 	mov	x29, sp
     c8c:	a90153f3 	stp	x19, x20, [sp, #16]
     c90:	aa0303f4 	mov	x20, x3
/home/jayanth/quemu-v8/source/optee_os/lib/libutils/isoc/bget.c:889
     c94:	aa0403e3 	mov	x3, x4
/home/jayanth/quemu-v8/source/optee_os/lib/libutils/isoc/bget.c:884
     c98:	a9025bf5 	stp	x21, x22, [sp, #32]
     c9c:	aa0003f5 	mov	x21, x0
     ca0:	aa0103e0 	mov	x0, x1
     ca4:	aa0203e1 	mov	x1, x2
/home/jayanth/quemu-v8/source/optee_os/lib/libutils/isoc/bget.c:889
     ca8:	aa1403e2 	mov	x2, x20
/home/jayanth/quemu-v8/source/optee_os/lib/libutils/isoc/bget.c:884
     cac:	f9001bf7 	str	x23, [sp, #48]
     cb0:	aa0403f7 	mov	x23, x4
/home/jayanth/quemu-v8/source/optee_os/lib/libutils/isoc/bget.c:889
     cb4:	97fffe71 	bl	678 <bget>
     cb8:	aa0003f6 	mov	x22, x0
     cbc:	b4000420 	cbz	x0, d40 <bgetr+0xbc>
/home/jayanth/quemu-v8/source/optee_os/lib/libutils/isoc/bget.c:892
     cc0:	b4000415 	cbz	x21, d40 <bgetr+0xbc>
/home/jayanth/quemu-v8/source/optee_os/lib/libutils/isoc/bget.c:906
     cc4:	f85f82a1 	ldur	x1, [x21, #-8]
     cc8:	928001f3 	mov	x19, #0xfffffffffffffff0    	// #-16
     ccc:	cb010273 	sub	x19, x19, x1
/home/jayanth/quemu-v8/source/optee_os/lib/libutils/isoc/bget.c:907
     cd0:	f100027f 	cmp	x19, #0x0
     cd4:	5400016c 	b.gt	d00 <bgetr+0x7c>
     cd8:	90000063 	adrp	x3, c000 <__func__.4194+0x3e3>
     cdc:	91005063 	add	x3, x3, #0x14
     ce0:	91004063 	add	x3, x3, #0x10
     ce4:	f0000041 	adrp	x1, b000 <__text_end+0x1788>
     ce8:	f0000040 	adrp	x0, b000 <__text_end+0x1788>
     cec:	91353c21 	add	x1, x1, #0xd4f
     cf0:	913e5c00 	add	x0, x0, #0xf97
     cf4:	52807162 	mov	w2, #0x38b                 	// #907
     cf8:	940005c9 	bl	241c <_assert_log>
     cfc:	940005d9 	bl	2460 <_assert_break>
/home/jayanth/quemu-v8/source/optee_os/lib/libutils/isoc/bget.c:908 (discriminator 2)
     d00:	eb13029f 	cmp	x20, x19
     d04:	93407e81 	sxtw	x1, w20
     d08:	93407e62 	sxtw	x2, w19
     d0c:	9a81a042 	csel	x2, x2, x1, ge  // ge = tcont
     d10:	aa1503e1 	mov	x1, x21
     d14:	97fffcc3 	bl	20 <memcpy>
/home/jayanth/quemu-v8/source/optee_os/lib/libutils/isoc/bget.c:912 (discriminator 2)
     d18:	eb13029f 	cmp	x20, x19
     d1c:	540000ad 	b.le	d30 <bgetr+0xac>
/home/jayanth/quemu-v8/source/optee_os/lib/libutils/isoc/bget.c:913
     d20:	cb130282 	sub	x2, x20, x19
     d24:	8b1302c0 	add	x0, x22, x19
     d28:	52800001 	mov	w1, #0x0                   	// #0
     d2c:	940001ab 	bl	13d8 <memset>
/home/jayanth/quemu-v8/source/optee_os/lib/libutils/isoc/bget.c:915
     d30:	aa1703e1 	mov	x1, x23
     d34:	aa1503e0 	mov	x0, x21
     d38:	52800002 	mov	w2, #0x0                   	// #0
     d3c:	97ffff23 	bl	9c8 <brel>
/home/jayanth/quemu-v8/source/optee_os/lib/libutils/isoc/bget.c:917
     d40:	aa1603e0 	mov	x0, x22
     d44:	a94153f3 	ldp	x19, x20, [sp, #16]
     d48:	a9425bf5 	ldp	x21, x22, [sp, #32]
     d4c:	f9401bf7 	ldr	x23, [sp, #48]
     d50:	a8c47bfd 	ldp	x29, x30, [sp], #64
     d54:	d65f03c0 	ret

0000000000000d58 <bpool>:
bpool():
/home/jayanth/quemu-v8/source/optee_os/lib/libutils/isoc/bget.c:1101
     d58:	a9bf7bfd 	stp	x29, x30, [sp, #-16]!
/home/jayanth/quemu-v8/source/optee_os/lib/libutils/isoc/bget.c:1106
     d5c:	927cec21 	and	x1, x1, #0xfffffffffffffff0
/home/jayanth/quemu-v8/source/optee_os/lib/libutils/isoc/bget.c:1125
     d60:	f1004021 	subs	x1, x1, #0x10
/home/jayanth/quemu-v8/source/optee_os/lib/libutils/isoc/bget.c:1101
     d64:	910003fd 	mov	x29, sp
/home/jayanth/quemu-v8/source/optee_os/lib/libutils/isoc/bget.c:1125
     d68:	54000165 	b.pl	d94 <bpool+0x3c>  // b.nfrst
/home/jayanth/quemu-v8/source/optee_os/lib/libutils/isoc/bget.c:1125 (discriminator 1)
     d6c:	90000063 	adrp	x3, c000 <__func__.4194+0x3e3>
     d70:	91005063 	add	x3, x3, #0x14
     d74:	f0000041 	adrp	x1, b000 <__text_end+0x1788>
     d78:	f0000040 	adrp	x0, b000 <__text_end+0x1788>
     d7c:	91005863 	add	x3, x3, #0x16
     d80:	91353c21 	add	x1, x1, #0xd4f
     d84:	913e8400 	add	x0, x0, #0xfa1
     d88:	52808ca2 	mov	w2, #0x465                 	// #1125
/home/jayanth/quemu-v8/source/optee_os/lib/libutils/isoc/bget.c:1135 (discriminator 1)
     d8c:	940005a4 	bl	241c <_assert_log>
     d90:	940005b4 	bl	2460 <_assert_break>
/home/jayanth/quemu-v8/source/optee_os/lib/libutils/isoc/bget.c:1135 (discriminator 2)
     d94:	f9400c44 	ldr	x4, [x2, #24]
     d98:	f9400883 	ldr	x3, [x4, #16]
/home/jayanth/quemu-v8/source/optee_os/lib/libutils/isoc/bget.c:1131 (discriminator 2)
     d9c:	f900001f 	str	xzr, [x0]
/home/jayanth/quemu-v8/source/optee_os/lib/libutils/isoc/bget.c:1135 (discriminator 2)
     da0:	eb02007f 	cmp	x3, x2
     da4:	54000140 	b.eq	dcc <bpool+0x74>  // b.none
/home/jayanth/quemu-v8/source/optee_os/lib/libutils/isoc/bget.c:1135 (discriminator 1)
     da8:	90000063 	adrp	x3, c000 <__func__.4194+0x3e3>
     dac:	91005063 	add	x3, x3, #0x14
     db0:	f0000041 	adrp	x1, b000 <__text_end+0x1788>
     db4:	f0000040 	adrp	x0, b000 <__text_end+0x1788>
     db8:	91005863 	add	x3, x3, #0x16
     dbc:	91353c21 	add	x1, x1, #0xd4f
     dc0:	91374400 	add	x0, x0, #0xdd1
     dc4:	52808de2 	mov	w2, #0x46f                 	// #1135
     dc8:	17fffff1 	b	d8c <bpool+0x34>
/home/jayanth/quemu-v8/source/optee_os/lib/libutils/isoc/bget.c:1136 (discriminator 2)
     dcc:	f9400862 	ldr	x2, [x3, #16]
     dd0:	f9400c42 	ldr	x2, [x2, #24]
     dd4:	eb02007f 	cmp	x3, x2
     dd8:	54000140 	b.eq	e00 <bpool+0xa8>  // b.none
/home/jayanth/quemu-v8/source/optee_os/lib/libutils/isoc/bget.c:1136
     ddc:	90000063 	adrp	x3, c000 <__func__.4194+0x3e3>
     de0:	91005063 	add	x3, x3, #0x14
     de4:	f0000041 	adrp	x1, b000 <__text_end+0x1788>
     de8:	f0000040 	adrp	x0, b000 <__text_end+0x1788>
     dec:	91005863 	add	x3, x3, #0x16
     df0:	91353c21 	add	x1, x1, #0xd4f
     df4:	91383000 	add	x0, x0, #0xe0c
     df8:	52808e02 	mov	w2, #0x470                 	// #1136
     dfc:	17ffffe4 	b	d8c <bpool+0x34>
/home/jayanth/quemu-v8/source/optee_os/lib/libutils/isoc/bget.c:1138 (discriminator 2)
     e00:	a9011003 	stp	x3, x4, [x0, #16]
/home/jayanth/quemu-v8/source/optee_os/lib/libutils/isoc/bget.c:1139 (discriminator 2)
     e04:	f9000c60 	str	x0, [x3, #24]
/home/jayanth/quemu-v8/source/optee_os/lib/libutils/isoc/bget.c:1140 (discriminator 2)
     e08:	f9400c02 	ldr	x2, [x0, #24]
     e0c:	f9000840 	str	x0, [x2, #16]
/home/jayanth/quemu-v8/source/optee_os/lib/libutils/isoc/bget.c:1156 (discriminator 2)
     e10:	8b010002 	add	x2, x0, x1
/home/jayanth/quemu-v8/source/optee_os/lib/libutils/isoc/bget.c:1151 (discriminator 2)
     e14:	f9000401 	str	x1, [x0, #8]
/home/jayanth/quemu-v8/source/optee_os/lib/libutils/isoc/bget.c:1157 (discriminator 2)
     e18:	f8216801 	str	x1, [x0, x1]
/home/jayanth/quemu-v8/source/optee_os/lib/libutils/isoc/bget.c:1160 (discriminator 2)
     e1c:	d2f00000 	mov	x0, #0x8000000000000000    	// #-9223372036854775808
     e20:	f9000440 	str	x0, [x2, #8]
/home/jayanth/quemu-v8/source/optee_os/lib/libutils/isoc/bget.c:1161 (discriminator 2)
     e24:	a8c17bfd 	ldp	x29, x30, [sp], #16
     e28:	d65f03c0 	ret

0000000000000e2c <bstats>:
bstats():
/home/jayanth/quemu-v8/source/optee_os/lib/libutils/isoc/bget.c:1174
     e2c:	f94014a7 	ldr	x7, [x5, #40]
/home/jayanth/quemu-v8/source/optee_os/lib/libutils/isoc/bget.c:1172
     e30:	f94008a6 	ldr	x6, [x5, #16]
/home/jayanth/quemu-v8/source/optee_os/lib/libutils/isoc/bget.c:1174
     e34:	f9000067 	str	x7, [x3]
/home/jayanth/quemu-v8/source/optee_os/lib/libutils/isoc/bget.c:1175
     e38:	f94018a3 	ldr	x3, [x5, #48]
     e3c:	f9000083 	str	x3, [x4]
/home/jayanth/quemu-v8/source/optee_os/lib/libutils/isoc/bget.c:1176
     e40:	f94010a3 	ldr	x3, [x5, #32]
     e44:	f9000003 	str	x3, [x0]
/home/jayanth/quemu-v8/source/optee_os/lib/libutils/isoc/bget.c:1177
     e48:	f900003f 	str	xzr, [x1]
/home/jayanth/quemu-v8/source/optee_os/lib/libutils/isoc/bget.c:1178
     e4c:	92800000 	mov	x0, #0xffffffffffffffff    	// #-1
     e50:	f9000040 	str	x0, [x2]
/home/jayanth/quemu-v8/source/optee_os/lib/libutils/isoc/bget.c:1179
     e54:	eb0600bf 	cmp	x5, x6
     e58:	54000041 	b.ne	e60 <bstats+0x34>  // b.any
     e5c:	d65f03c0 	ret
/home/jayanth/quemu-v8/source/optee_os/lib/libutils/isoc/bget.c:1180
     e60:	f94004c3 	ldr	x3, [x6, #8]
     e64:	f100007f 	cmp	x3, #0x0
     e68:	540001ac 	b.gt	e9c <bstats+0x70>
/home/jayanth/quemu-v8/source/optee_os/lib/libutils/isoc/bget.c:1180 (discriminator 1)
     e6c:	90000063 	adrp	x3, c000 <__func__.4194+0x3e3>
     e70:	91005063 	add	x3, x3, #0x14
     e74:	91007063 	add	x3, x3, #0x1c
     e78:	f0000041 	adrp	x1, b000 <__text_end+0x1788>
     e7c:	f0000040 	adrp	x0, b000 <__text_end+0x1788>
     e80:	91353c21 	add	x1, x1, #0xd4f
     e84:	913f5800 	add	x0, x0, #0xfd6
/home/jayanth/quemu-v8/source/optee_os/lib/libutils/isoc/bget.c:1171 (discriminator 1)
     e88:	a9bf7bfd 	stp	x29, x30, [sp, #-16]!
/home/jayanth/quemu-v8/source/optee_os/lib/libutils/isoc/bget.c:1180 (discriminator 1)
     e8c:	52809382 	mov	w2, #0x49c                 	// #1180
/home/jayanth/quemu-v8/source/optee_os/lib/libutils/isoc/bget.c:1171 (discriminator 1)
     e90:	910003fd 	mov	x29, sp
/home/jayanth/quemu-v8/source/optee_os/lib/libutils/isoc/bget.c:1180 (discriminator 1)
     e94:	94000562 	bl	241c <_assert_log>
     e98:	94000572 	bl	2460 <_assert_break>
/home/jayanth/quemu-v8/source/optee_os/lib/libutils/isoc/bget.c:1181 (discriminator 2)
     e9c:	f9400020 	ldr	x0, [x1]
     ea0:	8b030000 	add	x0, x0, x3
     ea4:	f9000020 	str	x0, [x1]
/home/jayanth/quemu-v8/source/optee_os/lib/libutils/isoc/bget.c:1182 (discriminator 2)
     ea8:	f9400043 	ldr	x3, [x2]
     eac:	f94004c0 	ldr	x0, [x6, #8]
     eb0:	eb03001f 	cmp	x0, x3
     eb4:	5400004d 	b.le	ebc <bstats+0x90>
/home/jayanth/quemu-v8/source/optee_os/lib/libutils/isoc/bget.c:1183
     eb8:	f9000040 	str	x0, [x2]
/home/jayanth/quemu-v8/source/optee_os/lib/libutils/isoc/bget.c:1185
     ebc:	f94008c6 	ldr	x6, [x6, #16]
     ec0:	17ffffe5 	b	e54 <bstats+0x28>

0000000000000ec4 <malloc_reset_stats>:
gen_malloc_reset_stats():
/home/jayanth/quemu-v8/source/optee_os/lib/libutils/isoc/bget_malloc.c:229
     ec4:	b0000060 	adrp	x0, d000 <_DYNAMIC>
     ec8:	910ea000 	add	x0, x0, #0x3a8
     ecc:	b9006c1f 	str	wzr, [x0, #108]
/home/jayanth/quemu-v8/source/optee_os/lib/libutils/isoc/bget_malloc.c:230
     ed0:	b900741f 	str	wzr, [x0, #116]
/home/jayanth/quemu-v8/source/optee_os/lib/libutils/isoc/bget_malloc.c:231
     ed4:	f9003c1f 	str	xzr, [x0, #120]
malloc_reset_stats():
/home/jayanth/quemu-v8/source/optee_os/lib/libutils/isoc/bget_malloc.c:239
     ed8:	d65f03c0 	ret

0000000000000edc <malloc_get_stats>:
malloc_get_stats():
/home/jayanth/quemu-v8/source/optee_os/lib/libutils/isoc/bget_malloc.c:252
     edc:	a9be7bfd 	stp	x29, x30, [sp, #-32]!
memcpy_unchecked():
/home/jayanth/quemu-v8/source/optee_os/lib/libutils/isoc/bget_malloc.c:137
     ee0:	d2800702 	mov	x2, #0x38                  	// #56
malloc_get_stats():
/home/jayanth/quemu-v8/source/optee_os/lib/libutils/isoc/bget_malloc.c:252
     ee4:	910003fd 	mov	x29, sp
     ee8:	a90153f3 	stp	x19, x20, [sp, #16]
memcpy_unchecked():
/home/jayanth/quemu-v8/source/optee_os/lib/libutils/isoc/bget_malloc.c:137
     eec:	b0000073 	adrp	x19, d000 <_DYNAMIC>
     ef0:	910ea273 	add	x19, x19, #0x3a8
malloc_get_stats():
/home/jayanth/quemu-v8/source/optee_os/lib/libutils/isoc/bget_malloc.c:252
     ef4:	aa0003f4 	mov	x20, x0
memcpy_unchecked():
/home/jayanth/quemu-v8/source/optee_os/lib/libutils/isoc/bget_malloc.c:137
     ef8:	91012261 	add	x1, x19, #0x48
     efc:	97fffc49 	bl	20 <memcpy>
gen_malloc_get_stats():
/home/jayanth/quemu-v8/source/optee_os/lib/libutils/isoc/bget_malloc.c:247
     f00:	f9401260 	ldr	x0, [x19, #32]
     f04:	b9002280 	str	w0, [x20, #32]
malloc_get_stats():
/home/jayanth/quemu-v8/source/optee_os/lib/libutils/isoc/bget_malloc.c:254
     f08:	a94153f3 	ldp	x19, x20, [sp, #16]
     f0c:	a8c27bfd 	ldp	x29, x30, [sp], #32
     f10:	d65f03c0 	ret

0000000000000f14 <malloc>:
malloc():
/home/jayanth/quemu-v8/source/optee_os/lib/libutils/isoc/bget_malloc.c:690
     f14:	a9be7bfd 	stp	x29, x30, [sp, #-32]!
     f18:	910003fd 	mov	x29, sp
     f1c:	f9000bf3 	str	x19, [sp, #16]
     f20:	aa0003f3 	mov	x19, x0
raw_memalign():
/home/jayanth/quemu-v8/source/optee_os/lib/libutils/isoc/bget_malloc.c:361
     f24:	b7f80200 	tbnz	x0, #63, f64 <malloc+0x50>
/home/jayanth/quemu-v8/source/optee_os/lib/libutils/isoc/bget_malloc.c:366
     f28:	f100001f 	cmp	x0, #0x0
/home/jayanth/quemu-v8/source/optee_os/lib/libutils/isoc/bget_malloc.c:368
     f2c:	b0000063 	adrp	x3, d000 <_DYNAMIC>
     f30:	9a9f1402 	csinc	x2, x0, xzr, ne  // ne = any
     f34:	910ea063 	add	x3, x3, #0x3a8
     f38:	d2800001 	mov	x1, #0x0                   	// #0
     f3c:	d2800200 	mov	x0, #0x10                  	// #16
     f40:	97fffdce 	bl	678 <bget>
     f44:	aa0003e6 	mov	x6, x0
/home/jayanth/quemu-v8/source/optee_os/lib/libutils/isoc/bget_malloc.c:370
     f48:	aa1303e1 	mov	x1, x19
     f4c:	aa0603e0 	mov	x0, x6
     f50:	97fffdb9 	bl	634 <raw_malloc_return_hook.constprop.0>
malloc():
/home/jayanth/quemu-v8/source/optee_os/lib/libutils/isoc/bget_malloc.c:697
     f54:	aa0603e0 	mov	x0, x6
     f58:	f9400bf3 	ldr	x19, [sp, #16]
     f5c:	a8c27bfd 	ldp	x29, x30, [sp], #32
     f60:	d65f03c0 	ret
raw_memalign():
/home/jayanth/quemu-v8/source/optee_os/lib/libutils/isoc/bget_malloc.c:352
     f64:	d2800006 	mov	x6, #0x0                   	// #0
     f68:	17fffff8 	b	f48 <malloc+0x34>

0000000000000f6c <calloc>:
calloc():
/home/jayanth/quemu-v8/source/optee_os/lib/libutils/isoc/bget_malloc.c:708
     f6c:	a9be7bfd 	stp	x29, x30, [sp, #-32]!
raw_calloc():
/home/jayanth/quemu-v8/source/optee_os/lib/libutils/isoc/bget_malloc.c:402
     f70:	d2800022 	mov	x2, #0x1                   	// #1
calloc():
/home/jayanth/quemu-v8/source/optee_os/lib/libutils/isoc/bget_malloc.c:708
     f74:	910003fd 	mov	x29, sp
     f78:	f9000bf3 	str	x19, [sp, #16]
raw_calloc():
/home/jayanth/quemu-v8/source/optee_os/lib/libutils/isoc/bget_malloc.c:402
     f7c:	9b017c13 	mul	x19, x0, x1
     f80:	9bc17c00 	umulh	x0, x0, x1
     f84:	f100001f 	cmp	x0, #0x0
     f88:	9a9f07e0 	cset	x0, ne  // ne = any
     f8c:	f100027f 	cmp	x19, #0x0
     f90:	9a82a000 	csel	x0, x0, x2, ge  // ge = tcont
     f94:	b50001c0 	cbnz	x0, fcc <calloc+0x60>
/home/jayanth/quemu-v8/source/optee_os/lib/libutils/isoc/bget_malloc.c:411
     f98:	9a821262 	csel	x2, x19, x2, ne  // ne = any
     f9c:	b0000063 	adrp	x3, d000 <_DYNAMIC>
     fa0:	d2800001 	mov	x1, #0x0                   	// #0
     fa4:	910ea063 	add	x3, x3, #0x3a8
     fa8:	97fffe65 	bl	93c <bgetz>
     fac:	aa0003e6 	mov	x6, x0
/home/jayanth/quemu-v8/source/optee_os/lib/libutils/isoc/bget_malloc.c:413
     fb0:	aa1303e1 	mov	x1, x19
     fb4:	aa0603e0 	mov	x0, x6
     fb8:	97fffd9f 	bl	634 <raw_malloc_return_hook.constprop.0>
calloc():
/home/jayanth/quemu-v8/source/optee_os/lib/libutils/isoc/bget_malloc.c:715
     fbc:	aa0603e0 	mov	x0, x6
     fc0:	f9400bf3 	ldr	x19, [sp, #16]
     fc4:	a8c27bfd 	ldp	x29, x30, [sp], #32
     fc8:	d65f03c0 	ret
raw_calloc():
/home/jayanth/quemu-v8/source/optee_os/lib/libutils/isoc/bget_malloc.c:396
     fcc:	d2800006 	mov	x6, #0x0                   	// #0
     fd0:	17fffff8 	b	fb0 <calloc+0x44>

0000000000000fd4 <realloc>:
realloc():
/home/jayanth/quemu-v8/source/optee_os/lib/libutils/isoc/bget_malloc.c:724
     fd4:	a9be7bfd 	stp	x29, x30, [sp, #-32]!
     fd8:	910003fd 	mov	x29, sp
     fdc:	f9000bf3 	str	x19, [sp, #16]
     fe0:	aa0103f3 	mov	x19, x1
raw_realloc():
/home/jayanth/quemu-v8/source/optee_os/lib/libutils/isoc/bget_malloc.c:425
     fe4:	b7f80201 	tbnz	x1, #63, 1024 <realloc+0x50>
/home/jayanth/quemu-v8/source/optee_os/lib/libutils/isoc/bget_malloc.c:434
     fe8:	f100003f 	cmp	x1, #0x0
/home/jayanth/quemu-v8/source/optee_os/lib/libutils/isoc/bget_malloc.c:436
     fec:	b0000064 	adrp	x4, d000 <_DYNAMIC>
     ff0:	9a9f1423 	csinc	x3, x1, xzr, ne  // ne = any
     ff4:	910ea084 	add	x4, x4, #0x3a8
     ff8:	d2800002 	mov	x2, #0x0                   	// #0
     ffc:	d2800001 	mov	x1, #0x0                   	// #0
    1000:	97ffff21 	bl	c84 <bgetr>
    1004:	aa0003e6 	mov	x6, x0
/home/jayanth/quemu-v8/source/optee_os/lib/libutils/isoc/bget_malloc.c:438
    1008:	aa1303e1 	mov	x1, x19
    100c:	aa0603e0 	mov	x0, x6
    1010:	97fffd89 	bl	634 <raw_malloc_return_hook.constprop.0>
realloc():
/home/jayanth/quemu-v8/source/optee_os/lib/libutils/isoc/bget_malloc.c:731
    1014:	aa0603e0 	mov	x0, x6
    1018:	f9400bf3 	ldr	x19, [sp, #16]
    101c:	a8c27bfd 	ldp	x29, x30, [sp], #32
    1020:	d65f03c0 	ret
raw_realloc():
/home/jayanth/quemu-v8/source/optee_os/lib/libutils/isoc/bget_malloc.c:421
    1024:	d2800006 	mov	x6, #0x0                   	// #0
    1028:	17fffff8 	b	1008 <realloc+0x34>

000000000000102c <memalign>:
raw_memalign():
/home/jayanth/quemu-v8/source/optee_os/lib/libutils/isoc/bget_malloc.c:355
    102c:	b4000320 	cbz	x0, 1090 <memalign+0x64>
memalign():
/home/jayanth/quemu-v8/source/optee_os/lib/libutils/isoc/bget_malloc.c:734
    1030:	a9be7bfd 	stp	x29, x30, [sp, #-32]!
    1034:	910003fd 	mov	x29, sp
    1038:	f9000bf3 	str	x19, [sp, #16]
    103c:	aa0103f3 	mov	x19, x1
raw_memalign():
/home/jayanth/quemu-v8/source/optee_os/lib/libutils/isoc/bget_malloc.c:355
    1040:	cb0003e1 	neg	x1, x0
    1044:	ea21001f 	bics	xzr, x0, x1
    1048:	540002a1 	b.ne	109c <memalign+0x70>  // b.any
/home/jayanth/quemu-v8/source/optee_os/lib/libutils/isoc/bget_malloc.c:361
    104c:	b7f801f3 	tbnz	x19, #63, 1088 <memalign+0x5c>
/home/jayanth/quemu-v8/source/optee_os/lib/libutils/isoc/bget_malloc.c:366
    1050:	f100027f 	cmp	x19, #0x0
/home/jayanth/quemu-v8/source/optee_os/lib/libutils/isoc/bget_malloc.c:368
    1054:	90000063 	adrp	x3, d000 <_DYNAMIC>
    1058:	9a9f1662 	csinc	x2, x19, xzr, ne  // ne = any
    105c:	910ea063 	add	x3, x3, #0x3a8
    1060:	d2800001 	mov	x1, #0x0                   	// #0
    1064:	97fffd85 	bl	678 <bget>
    1068:	aa0003e6 	mov	x6, x0
/home/jayanth/quemu-v8/source/optee_os/lib/libutils/isoc/bget_malloc.c:370
    106c:	aa1303e1 	mov	x1, x19
    1070:	aa0603e0 	mov	x0, x6
    1074:	97fffd70 	bl	634 <raw_malloc_return_hook.constprop.0>
memalign():
/home/jayanth/quemu-v8/source/optee_os/lib/libutils/isoc/bget_malloc.c:741
    1078:	aa0603e0 	mov	x0, x6
    107c:	f9400bf3 	ldr	x19, [sp, #16]
    1080:	a8c27bfd 	ldp	x29, x30, [sp], #32
    1084:	d65f03c0 	ret
raw_memalign():
/home/jayanth/quemu-v8/source/optee_os/lib/libutils/isoc/bget_malloc.c:352
    1088:	d2800006 	mov	x6, #0x0                   	// #0
    108c:	17fffff8 	b	106c <memalign+0x40>
/home/jayanth/quemu-v8/source/optee_os/lib/libutils/isoc/bget_malloc.c:356
    1090:	d2800006 	mov	x6, #0x0                   	// #0
memalign():
/home/jayanth/quemu-v8/source/optee_os/lib/libutils/isoc/bget_malloc.c:741
    1094:	aa0603e0 	mov	x0, x6
    1098:	d65f03c0 	ret
raw_memalign():
/home/jayanth/quemu-v8/source/optee_os/lib/libutils/isoc/bget_malloc.c:356
    109c:	d2800006 	mov	x6, #0x0                   	// #0
memalign():
/home/jayanth/quemu-v8/source/optee_os/lib/libutils/isoc/bget_malloc.c:740
    10a0:	17fffff6 	b	1078 <memalign+0x4c>

00000000000010a4 <free>:
raw_free():
/home/jayanth/quemu-v8/source/optee_os/lib/libutils/isoc/bget_malloc.c:389
    10a4:	b40000a0 	cbz	x0, 10b8 <free+0x14>
/home/jayanth/quemu-v8/source/optee_os/lib/libutils/isoc/bget_malloc.c:390
    10a8:	52800002 	mov	w2, #0x0                   	// #0
    10ac:	90000061 	adrp	x1, d000 <_DYNAMIC>
    10b0:	910ea021 	add	x1, x1, #0x3a8
    10b4:	17fffe45 	b	9c8 <brel>
free():
/home/jayanth/quemu-v8/source/optee_os/lib/libutils/isoc/bget_malloc.c:754
    10b8:	d65f03c0 	ret

00000000000010bc <free_wipe>:
raw_free():
/home/jayanth/quemu-v8/source/optee_os/lib/libutils/isoc/bget_malloc.c:389
    10bc:	b40000a0 	cbz	x0, 10d0 <free_wipe+0x14>
/home/jayanth/quemu-v8/source/optee_os/lib/libutils/isoc/bget_malloc.c:390
    10c0:	52800022 	mov	w2, #0x1                   	// #1
    10c4:	90000061 	adrp	x1, d000 <_DYNAMIC>
    10c8:	910ea021 	add	x1, x1, #0x3a8
    10cc:	17fffe3f 	b	9c8 <brel>
free_wipe():
/home/jayanth/quemu-v8/source/optee_os/lib/libutils/isoc/bget_malloc.c:759
    10d0:	d65f03c0 	ret

00000000000010d4 <malloc_add_pool>:
malloc_add_pool():
/home/jayanth/quemu-v8/source/optee_os/lib/libutils/isoc/bget_malloc.c:867
    10d4:	a9bc7bfd 	stp	x29, x30, [sp, #-64]!
    10d8:	910003fd 	mov	x29, sp
    10dc:	a90153f3 	stp	x19, x20, [sp, #16]
gen_malloc_add_pool():
/home/jayanth/quemu-v8/source/optee_os/lib/libutils/isoc/bget_malloc.c:767
    10e0:	8b010013 	add	x19, x0, x1
/home/jayanth/quemu-v8/source/optee_os/lib/libutils/isoc/bget_malloc.c:773
    10e4:	91003c00 	add	x0, x0, #0xf
malloc_add_pool():
/home/jayanth/quemu-v8/source/optee_os/lib/libutils/isoc/bget_malloc.c:867
    10e8:	a9025bf5 	stp	x21, x22, [sp, #32]
gen_malloc_add_pool():
/home/jayanth/quemu-v8/source/optee_os/lib/libutils/isoc/bget_malloc.c:774
    10ec:	927cee73 	and	x19, x19, #0xfffffffffffffff0
/home/jayanth/quemu-v8/source/optee_os/lib/libutils/isoc/bget_malloc.c:773
    10f0:	927cec15 	and	x21, x0, #0xfffffffffffffff0
malloc_add_pool():
/home/jayanth/quemu-v8/source/optee_os/lib/libutils/isoc/bget_malloc.c:867
    10f4:	a90363f7 	stp	x23, x24, [sp, #48]
gen_malloc_add_pool():
/home/jayanth/quemu-v8/source/optee_os/lib/libutils/isoc/bget_malloc.c:775
    10f8:	eb1302bf 	cmp	x21, x19
    10fc:	54000163 	b.cc	1128 <malloc_add_pool+0x54>  // b.lo, b.ul, b.last
    1100:	f0000043 	adrp	x3, c000 <__func__.4194+0x3e3>
    1104:	91005063 	add	x3, x3, #0x14
    1108:	d0000041 	adrp	x1, b000 <__text_end+0x1788>
    110c:	f0000040 	adrp	x0, c000 <__func__.4194+0x3e3>
    1110:	91008c63 	add	x3, x3, #0x23
    1114:	913f9821 	add	x1, x1, #0xfe6
    1118:	91001800 	add	x0, x0, #0x6
    111c:	528060e2 	mov	w2, #0x307                 	// #775
/home/jayanth/quemu-v8/source/optee_os/lib/libutils/isoc/bget_malloc.c:788
    1120:	940004bf 	bl	241c <_assert_log>
    1124:	940004cf 	bl	2460 <_assert_break>
/home/jayanth/quemu-v8/source/optee_os/lib/libutils/isoc/bget_malloc.c:777
    1128:	cb150273 	sub	x19, x19, x21
    112c:	f100be7f 	cmp	x19, #0x2f
    1130:	540005a9 	b.ls	11e4 <malloc_add_pool+0x110>  // b.plast
/home/jayanth/quemu-v8/source/optee_os/lib/libutils/isoc/bget_malloc.c:785
    1134:	90000074 	adrp	x20, d000 <_DYNAMIC>
    1138:	910ea298 	add	x24, x20, #0x3a8
    113c:	aa1803e2 	mov	x2, x24
    1140:	aa1303e1 	mov	x1, x19
    1144:	aa1503e0 	mov	x0, x21
    1148:	97ffff04 	bl	d58 <bpool>
/home/jayanth/quemu-v8/source/optee_os/lib/libutils/isoc/bget_malloc.c:786
    114c:	f9402316 	ldr	x22, [x24, #64]
    1150:	910006d6 	add	x22, x22, #0x1
/home/jayanth/quemu-v8/source/optee_os/lib/libutils/isoc/bget_malloc.c:787
    1154:	d37ceed7 	lsl	x23, x22, #4
raw_realloc():
/home/jayanth/quemu-v8/source/optee_os/lib/libutils/isoc/bget_malloc.c:425
    1158:	b7d802d6 	tbnz	x22, #59, 11b0 <malloc_add_pool+0xdc>
/home/jayanth/quemu-v8/source/optee_os/lib/libutils/isoc/bget_malloc.c:436
    115c:	f9401f00 	ldr	x0, [x24, #56]
/home/jayanth/quemu-v8/source/optee_os/lib/libutils/isoc/bget_malloc.c:434
    1160:	f10002ff 	cmp	x23, #0x0
/home/jayanth/quemu-v8/source/optee_os/lib/libutils/isoc/bget_malloc.c:436
    1164:	aa1803e4 	mov	x4, x24
    1168:	9a9f16e3 	csinc	x3, x23, xzr, ne  // ne = any
    116c:	d2800002 	mov	x2, #0x0                   	// #0
    1170:	d2800001 	mov	x1, #0x0                   	// #0
    1174:	97fffec4 	bl	c84 <bgetr>
    1178:	aa0003e6 	mov	x6, x0
/home/jayanth/quemu-v8/source/optee_os/lib/libutils/isoc/bget_malloc.c:438
    117c:	aa1703e1 	mov	x1, x23
    1180:	aa0603e0 	mov	x0, x6
    1184:	97fffd2c 	bl	634 <raw_malloc_return_hook.constprop.0>
gen_malloc_add_pool():
/home/jayanth/quemu-v8/source/optee_os/lib/libutils/isoc/bget_malloc.c:788
    1188:	b5000186 	cbnz	x6, 11b8 <malloc_add_pool+0xe4>
    118c:	f0000043 	adrp	x3, c000 <__func__.4194+0x3e3>
    1190:	91005063 	add	x3, x3, #0x14
    1194:	d0000041 	adrp	x1, b000 <__text_end+0x1788>
    1198:	f0000040 	adrp	x0, c000 <__func__.4194+0x3e3>
    119c:	91008c63 	add	x3, x3, #0x23
    11a0:	913f9821 	add	x1, x1, #0xfe6
    11a4:	91004800 	add	x0, x0, #0x12
    11a8:	52806282 	mov	w2, #0x314                 	// #788
    11ac:	17ffffdd 	b	1120 <malloc_add_pool+0x4c>
raw_realloc():
/home/jayanth/quemu-v8/source/optee_os/lib/libutils/isoc/bget_malloc.c:421
    11b0:	d2800006 	mov	x6, #0x0                   	// #0
    11b4:	17fffff2 	b	117c <malloc_add_pool+0xa8>
gen_malloc_add_pool():
/home/jayanth/quemu-v8/source/optee_os/lib/libutils/isoc/bget_malloc.c:789
    11b8:	910ea281 	add	x1, x20, #0x3a8
/home/jayanth/quemu-v8/source/optee_os/lib/libutils/isoc/bget_malloc.c:790
    11bc:	f9402020 	ldr	x0, [x1, #64]
/home/jayanth/quemu-v8/source/optee_os/lib/libutils/isoc/bget_malloc.c:789
    11c0:	f9001c26 	str	x6, [x1, #56]
/home/jayanth/quemu-v8/source/optee_os/lib/libutils/isoc/bget_malloc.c:790
    11c4:	d37cec02 	lsl	x2, x0, #4
    11c8:	8b0010c0 	add	x0, x6, x0, lsl #4
    11cc:	f82268d5 	str	x21, [x6, x2]
/home/jayanth/quemu-v8/source/optee_os/lib/libutils/isoc/bget_malloc.c:791
    11d0:	f9000413 	str	x19, [x0, #8]
/home/jayanth/quemu-v8/source/optee_os/lib/libutils/isoc/bget_malloc.c:793
    11d4:	b9407020 	ldr	w0, [x1, #112]
/home/jayanth/quemu-v8/source/optee_os/lib/libutils/isoc/bget_malloc.c:795
    11d8:	f9002036 	str	x22, [x1, #64]
/home/jayanth/quemu-v8/source/optee_os/lib/libutils/isoc/bget_malloc.c:793
    11dc:	0b130013 	add	w19, w0, w19
    11e0:	b9007033 	str	w19, [x1, #112]
malloc_add_pool():
/home/jayanth/quemu-v8/source/optee_os/lib/libutils/isoc/bget_malloc.c:869
    11e4:	a94153f3 	ldp	x19, x20, [sp, #16]
    11e8:	a9425bf5 	ldp	x21, x22, [sp, #32]
    11ec:	a94363f7 	ldp	x23, x24, [sp, #48]
    11f0:	a8c47bfd 	ldp	x29, x30, [sp], #64
    11f4:	d65f03c0 	ret

00000000000011f8 <malloc_buffer_is_within_alloced>:
gen_malloc_buffer_is_within_alloced():
/home/jayanth/quemu-v8/source/optee_os/lib/libutils/isoc/bget_malloc.c:812
    11f8:	ab010001 	adds	x1, x0, x1
    11fc:	54000b82 	b.cs	136c <malloc_buffer_is_within_alloced+0x174>  // b.hs, b.nlast
    1200:	aa0003e4 	mov	x4, x0
/home/jayanth/quemu-v8/source/optee_os/lib/libutils/isoc/bget_malloc.c:815
    1204:	90000060 	adrp	x0, d000 <_DYNAMIC>
    1208:	910ea000 	add	x0, x0, #0x3a8
bpool_foreach_iterator_init():
/home/jayanth/quemu-v8/source/optee_os/lib/libutils/isoc/bget_malloc.c:289
    120c:	d2800006 	mov	x6, #0x0                   	// #0
bpool_foreach_pool():
/home/jayanth/quemu-v8/source/optee_os/lib/libutils/isoc/bget_malloc.c:299
    1210:	d2f0000a 	mov	x10, #0x8000000000000000    	// #-9223372036854775808
    1214:	928001eb 	mov	x11, #0xfffffffffffffff0    	// #-16
bpool_foreach():
/home/jayanth/quemu-v8/source/optee_os/lib/libutils/isoc/bget_malloc.c:336
    1218:	a943a407 	ldp	x7, x9, [x0, #56]
bpool_foreach_iterator_init():
/home/jayanth/quemu-v8/source/optee_os/lib/libutils/isoc/bget_malloc.c:290
    121c:	f94000e3 	ldr	x3, [x7]
/home/jayanth/quemu-v8/source/optee_os/lib/libutils/isoc/bget_malloc.c:289
    1220:	aa0303e0 	mov	x0, x3
bpool_foreach_pool():
/home/jayanth/quemu-v8/source/optee_os/lib/libutils/isoc/bget_malloc.c:297
    1224:	f9400462 	ldr	x2, [x3, #8]
/home/jayanth/quemu-v8/source/optee_os/lib/libutils/isoc/bget_malloc.c:299
    1228:	eb0a005f 	cmp	x2, x10
    122c:	540009a0 	b.eq	1360 <malloc_buffer_is_within_alloced+0x168>  // b.none
malloc_buffer_is_within_alloced():
/home/jayanth/quemu-v8/source/optee_os/lib/libutils/isoc/bget_malloc.c:872
    1230:	a9bf7bfd 	stp	x29, x30, [sp, #-16]!
    1234:	910003fd 	mov	x29, sp
    1238:	1400000d 	b	126c <malloc_buffer_is_within_alloced+0x74>
bpool_foreach_pool():
/home/jayanth/quemu-v8/source/optee_os/lib/libutils/isoc/bget_malloc.c:316
    123c:	91004005 	add	x5, x0, #0x10
gen_malloc_buffer_is_within_alloced():
/home/jayanth/quemu-v8/source/optee_os/lib/libutils/isoc/bget_malloc.c:821
    1240:	8b0200a2 	add	x2, x5, x2
/home/jayanth/quemu-v8/source/optee_os/lib/libutils/isoc/bget_malloc.c:823
    1244:	eb02003f 	cmp	x1, x2
    1248:	1a9f87e0 	cset	w0, ls  // ls = plast
    124c:	eb05009f 	cmp	x4, x5
    1250:	1a9f37e2 	cset	w2, cs  // cs = hs, nlast
    1254:	6a020000 	ands	w0, w0, w2
    1258:	540007a1 	b.ne	134c <malloc_buffer_is_within_alloced+0x154>  // b.any
bpool_foreach_pool():
/home/jayanth/quemu-v8/source/optee_os/lib/libutils/isoc/bget_malloc.c:297
    125c:	f9400462 	ldr	x2, [x3, #8]
bpool_foreach_iterator_init():
/home/jayanth/quemu-v8/source/optee_os/lib/libutils/isoc/bget_malloc.c:289
    1260:	aa0303e0 	mov	x0, x3
bpool_foreach_pool():
/home/jayanth/quemu-v8/source/optee_os/lib/libutils/isoc/bget_malloc.c:299
    1264:	eb0a005f 	cmp	x2, x10
    1268:	540006a0 	b.eq	133c <malloc_buffer_is_within_alloced+0x144>  // b.none
/home/jayanth/quemu-v8/source/optee_os/lib/libutils/isoc/bget_malloc.c:302
    126c:	b6f80242 	tbz	x2, #63, 12b4 <malloc_buffer_is_within_alloced+0xbc>
/home/jayanth/quemu-v8/source/optee_os/lib/libutils/isoc/bget_malloc.c:304
    1270:	cb0203e8 	neg	x8, x2
/home/jayanth/quemu-v8/source/optee_os/lib/libutils/isoc/bget_malloc.c:306
    1274:	52800005 	mov	w5, #0x0                   	// #0
/home/jayanth/quemu-v8/source/optee_os/lib/libutils/isoc/bget_malloc.c:319
    1278:	8b080063 	add	x3, x3, x8
bpool_foreach():
/home/jayanth/quemu-v8/source/optee_os/lib/libutils/isoc/bget_malloc.c:331
    127c:	35ffff05 	cbnz	w5, 125c <malloc_buffer_is_within_alloced+0x64>
bget_buf_size():
/home/jayanth/quemu-v8/source/optee_os/lib/libutils/isoc/bget_malloc.c:460
    1280:	cb020162 	sub	x2, x11, x2
/home/jayanth/quemu-v8/source/optee_os/lib/libutils/isoc/bget_malloc.c:461
    1284:	f100005f 	cmp	x2, #0x0
    1288:	54fffdac 	b.gt	123c <malloc_buffer_is_within_alloced+0x44>
    128c:	f0000043 	adrp	x3, c000 <__func__.4194+0x3e3>
    1290:	91005063 	add	x3, x3, #0x14
    1294:	9100dc63 	add	x3, x3, #0x37
    1298:	d0000041 	adrp	x1, b000 <__text_end+0x1788>
    129c:	d0000040 	adrp	x0, b000 <__text_end+0x1788>
    12a0:	913f9821 	add	x1, x1, #0xfe6
    12a4:	913e5c00 	add	x0, x0, #0xf97
    12a8:	528039a2 	mov	w2, #0x1cd                 	// #461
    12ac:	9400045c 	bl	241c <_assert_log>
    12b0:	9400046c 	bl	2460 <_assert_break>
bpool_foreach_pool():
/home/jayanth/quemu-v8/source/optee_os/lib/libutils/isoc/bget_malloc.c:312
    12b4:	f9400c65 	ldr	x5, [x3, #24]
    12b8:	f94008a5 	ldr	x5, [x5, #16]
    12bc:	eb0300bf 	cmp	x5, x3
    12c0:	54000160 	b.eq	12ec <malloc_buffer_is_within_alloced+0xf4>  // b.none
    12c4:	f0000043 	adrp	x3, c000 <__func__.4194+0x3e3>
    12c8:	91005063 	add	x3, x3, #0x14
    12cc:	91011463 	add	x3, x3, #0x45
    12d0:	d0000041 	adrp	x1, b000 <__text_end+0x1788>
    12d4:	d0000040 	adrp	x0, b000 <__text_end+0x1788>
    12d8:	913f9821 	add	x1, x1, #0xfe6
    12dc:	91362000 	add	x0, x0, #0xd88
    12e0:	52802702 	mov	w2, #0x138                 	// #312
    12e4:	9400044e 	bl	241c <_assert_log>
    12e8:	9400045e 	bl	2460 <_assert_break>
/home/jayanth/quemu-v8/source/optee_os/lib/libutils/isoc/bget_malloc.c:313
    12ec:	f9400865 	ldr	x5, [x3, #16]
    12f0:	f9400ca5 	ldr	x5, [x5, #24]
    12f4:	eb0300bf 	cmp	x5, x3
    12f8:	54000160 	b.eq	1324 <malloc_buffer_is_within_alloced+0x12c>  // b.none
    12fc:	f0000043 	adrp	x3, c000 <__func__.4194+0x3e3>
    1300:	91005063 	add	x3, x3, #0x14
    1304:	91011463 	add	x3, x3, #0x45
    1308:	d0000041 	adrp	x1, b000 <__text_end+0x1788>
    130c:	d0000040 	adrp	x0, b000 <__text_end+0x1788>
    1310:	913f9821 	add	x1, x1, #0xfe6
    1314:	91368c00 	add	x0, x0, #0xda3
    1318:	52802722 	mov	w2, #0x139                 	// #313
    131c:	94000440 	bl	241c <_assert_log>
    1320:	94000450 	bl	2460 <_assert_break>
    1324:	aa0203e8 	mov	x8, x2
/home/jayanth/quemu-v8/source/optee_os/lib/libutils/isoc/bget_malloc.c:309
    1328:	52800025 	mov	w5, #0x1                   	// #1
    132c:	17ffffd3 	b	1278 <malloc_buffer_is_within_alloced+0x80>
bpool_foreach():
/home/jayanth/quemu-v8/source/optee_os/lib/libutils/isoc/bget_malloc.c:340
    1330:	d37cecc0 	lsl	x0, x6, #4
    1334:	f86068e3 	ldr	x3, [x7, x0]
    1338:	17ffffc9 	b	125c <malloc_buffer_is_within_alloced+0x64>
/home/jayanth/quemu-v8/source/optee_os/lib/libutils/isoc/bget_malloc.c:336
    133c:	910004c6 	add	x6, x6, #0x1
    1340:	eb0900df 	cmp	x6, x9
    1344:	54ffff63 	b.cc	1330 <malloc_buffer_is_within_alloced+0x138>  // b.lo, b.ul, b.last
gen_malloc_buffer_is_within_alloced():
/home/jayanth/quemu-v8/source/optee_os/lib/libutils/isoc/bget_malloc.c:806
    1348:	52800000 	mov	w0, #0x0                   	// #0
malloc_buffer_is_within_alloced():
/home/jayanth/quemu-v8/source/optee_os/lib/libutils/isoc/bget_malloc.c:874
    134c:	a8c17bfd 	ldp	x29, x30, [sp], #16
    1350:	d65f03c0 	ret
bpool_foreach():
/home/jayanth/quemu-v8/source/optee_os/lib/libutils/isoc/bget_malloc.c:340
    1354:	d37cecc0 	lsl	x0, x6, #4
    1358:	f86068e3 	ldr	x3, [x7, x0]
    135c:	17ffffb1 	b	1220 <malloc_buffer_is_within_alloced+0x28>
/home/jayanth/quemu-v8/source/optee_os/lib/libutils/isoc/bget_malloc.c:336
    1360:	910004c6 	add	x6, x6, #0x1
    1364:	eb0900df 	cmp	x6, x9
    1368:	54ffff63 	b.cc	1354 <malloc_buffer_is_within_alloced+0x15c>  // b.lo, b.ul, b.last
gen_malloc_buffer_is_within_alloced():
/home/jayanth/quemu-v8/source/optee_os/lib/libutils/isoc/bget_malloc.c:806
    136c:	52800000 	mov	w0, #0x0                   	// #0
malloc_buffer_is_within_alloced():
/home/jayanth/quemu-v8/source/optee_os/lib/libutils/isoc/bget_malloc.c:874
    1370:	d65f03c0 	ret

0000000000001374 <malloc_buffer_overlaps_heap>:
malloc_buffer_overlaps_heap():
/home/jayanth/quemu-v8/source/optee_os/lib/libutils/isoc/bget_malloc.c:877
    1374:	ab010001 	adds	x1, x0, x1
    1378:	aa0003e3 	mov	x3, x0
gen_malloc_buffer_overlaps_heap():
/home/jayanth/quemu-v8/source/optee_os/lib/libutils/isoc/bget_malloc.c:846
    137c:	90000060 	adrp	x0, d000 <_DYNAMIC>
    1380:	910ea000 	add	x0, x0, #0x3a8
    1384:	9a9f37e9 	cset	x9, cs  // cs = hs, nlast
    1388:	d2800007 	mov	x7, #0x0                   	// #0
    138c:	a943a004 	ldp	x4, x8, [x0, #56]
    1390:	eb0800ff 	cmp	x7, x8
    1394:	54000061 	b.ne	13a0 <malloc_buffer_overlaps_heap+0x2c>  // b.any
/home/jayanth/quemu-v8/source/optee_os/lib/libutils/isoc/bget_malloc.c:841
    1398:	52800000 	mov	w0, #0x0                   	// #0
malloc_buffer_overlaps_heap():
/home/jayanth/quemu-v8/source/optee_os/lib/libutils/isoc/bget_malloc.c:879
    139c:	d65f03c0 	ret
gen_malloc_buffer_overlaps_heap():
/home/jayanth/quemu-v8/source/optee_os/lib/libutils/isoc/bget_malloc.c:847
    13a0:	a9400086 	ldp	x6, x0, [x4]
/home/jayanth/quemu-v8/source/optee_os/lib/libutils/isoc/bget_malloc.c:850
    13a4:	ab0000c5 	adds	x5, x6, x0
    13a8:	1a9f37e2 	cset	w2, cs  // cs = hs, nlast
    13ac:	2a090040 	orr	w0, w2, w9
    13b0:	35ffff60 	cbnz	w0, 139c <malloc_buffer_overlaps_heap+0x28>
/home/jayanth/quemu-v8/source/optee_os/lib/libutils/isoc/bget_malloc.c:855
    13b4:	eb06003f 	cmp	x1, x6
    13b8:	91004084 	add	x4, x4, #0x10
    13bc:	1a9f97e2 	cset	w2, hi  // hi = pmore
    13c0:	eb05007f 	cmp	x3, x5
    13c4:	1a9f27e0 	cset	w0, cc  // cc = lo, ul, last
    13c8:	2a000040 	orr	w0, w2, w0
    13cc:	35fffe80 	cbnz	w0, 139c <malloc_buffer_overlaps_heap+0x28>
/home/jayanth/quemu-v8/source/optee_os/lib/libutils/isoc/bget_malloc.c:846
    13d0:	910004e7 	add	x7, x7, #0x1
    13d4:	17ffffef 	b	1390 <malloc_buffer_overlaps_heap+0x1c>

00000000000013d8 <memset>:
memset():
/home/jayanth/quemu-v8/source/optee_os/lib/libutils/isoc/newlib/memset.c:125
    13d8:	d2800003 	mov	x3, #0x0                   	// #0
    13dc:	eb03005f 	cmp	x2, x3
    13e0:	54000041 	b.ne	13e8 <memset+0x10>  // b.any
/home/jayanth/quemu-v8/source/optee_os/lib/libutils/isoc/newlib/memset.c:129
    13e4:	d65f03c0 	ret
/home/jayanth/quemu-v8/source/optee_os/lib/libutils/isoc/newlib/memset.c:126
    13e8:	38236801 	strb	w1, [x0, x3]
    13ec:	91000463 	add	x3, x3, #0x1
    13f0:	17fffffb 	b	13dc <memset+0x4>

00000000000013f4 <strlen>:
strlen():
/home/jayanth/quemu-v8/source/optee_os/lib/libutils/isoc/newlib/strlen.c:117
    13f4:	aa0003e1 	mov	x1, x0
    13f8:	39400022 	ldrb	w2, [x1]
    13fc:	35000062 	cbnz	w2, 1408 <strlen+0x14>
/home/jayanth/quemu-v8/source/optee_os/lib/libutils/isoc/newlib/strlen.c:120
    1400:	cb000020 	sub	x0, x1, x0
    1404:	d65f03c0 	ret
/home/jayanth/quemu-v8/source/optee_os/lib/libutils/isoc/newlib/strlen.c:118
    1408:	91000421 	add	x1, x1, #0x1
    140c:	17fffffb 	b	13f8 <strlen+0x4>

0000000000001410 <trace_set_level>:
trace_set_level():
/home/jayanth/quemu-v8/source/optee_os/lib/libutils/ext/trace.c:29
    1410:	7100141f 	cmp	w0, #0x5
    1414:	52800081 	mov	w1, #0x4                   	// #4
    1418:	1a813000 	csel	w0, w0, w1, cc  // cc = lo, ul, last
    141c:	90000061 	adrp	x1, d000 <_DYNAMIC>
    1420:	f9409c21 	ldr	x1, [x1, #312]
    1424:	b9000020 	str	w0, [x1]
/home/jayanth/quemu-v8/source/optee_os/lib/libutils/ext/trace.c:30
    1428:	d65f03c0 	ret

000000000000142c <trace_get_level>:
trace_get_level():
/home/jayanth/quemu-v8/source/optee_os/lib/libutils/ext/trace.c:34
    142c:	90000060 	adrp	x0, d000 <_DYNAMIC>
/home/jayanth/quemu-v8/source/optee_os/lib/libutils/ext/trace.c:35
    1430:	f9409c00 	ldr	x0, [x0, #312]
    1434:	b9400000 	ldr	w0, [x0]
    1438:	d65f03c0 	ret

000000000000143c <trace_vprintf>:
trace_vprintf():
/home/jayanth/quemu-v8/source/optee_os/lib/libutils/ext/trace.c:106
    143c:	a9a87bfd 	stp	x29, x30, [sp, #-384]!
    1440:	910003fd 	mov	x29, sp
    1444:	a90153f3 	stp	x19, x20, [sp, #16]
    1448:	2a0203f3 	mov	w19, w2
    144c:	a9025bf5 	stp	x21, x22, [sp, #32]
    1450:	aa0003f6 	mov	x22, x0
    1454:	a90363f7 	stp	x23, x24, [sp, #48]
    1458:	aa0403f7 	mov	x23, x4
    145c:	aa0503f8 	mov	x24, x5
    1460:	a9046bf9 	stp	x25, x26, [sp, #64]
    1464:	2a0103f9 	mov	w25, w1
/home/jayanth/quemu-v8/source/optee_os/lib/libutils/ext/trace.c:111
    1468:	72001c7a 	ands	w26, w3, #0xff
/home/jayanth/quemu-v8/source/optee_os/lib/libutils/ext/trace.c:106
    146c:	f9002bfb 	str	x27, [sp, #80]
/home/jayanth/quemu-v8/source/optee_os/lib/libutils/ext/trace.c:111
    1470:	54000b60 	b.eq	15dc <trace_vprintf+0x1a0>  // b.none
/home/jayanth/quemu-v8/source/optee_os/lib/libutils/ext/trace.c:111 (discriminator 1)
    1474:	90000063 	adrp	x3, d000 <_DYNAMIC>
    1478:	f9409c63 	ldr	x3, [x3, #312]
    147c:	b9400060 	ldr	w0, [x3]
    1480:	6b02001f 	cmp	w0, w2
    1484:	540009eb 	b.lt	15c0 <trace_vprintf+0x184>  // b.tstop
trace_level_to_string():
/home/jayanth/quemu-v8/source/optee_os/lib/libutils/ext/trace.c:52
    1488:	7100105f 	cmp	w2, #0x4
/home/jayanth/quemu-v8/source/optee_os/lib/libutils/ext/trace.c:55
    148c:	f0000040 	adrp	x0, c000 <__func__.4194+0x3e3>
/home/jayanth/quemu-v8/source/optee_os/lib/libutils/ext/trace.c:52
    1490:	1a9f9041 	csel	w1, w2, wzr, ls  // ls = plast
/home/jayanth/quemu-v8/source/optee_os/lib/libutils/ext/trace.c:55
    1494:	91021800 	add	x0, x0, #0x86
    1498:	3861c803 	ldrb	w3, [x0, w1, sxtw]
trace_vprintf():
/home/jayanth/quemu-v8/source/optee_os/lib/libutils/ext/trace.c:115
    149c:	910203f5 	add	x21, sp, #0x80
    14a0:	f0000042 	adrp	x2, c000 <__func__.4194+0x3e3>
    14a4:	aa1503e0 	mov	x0, x21
    14a8:	9101b042 	add	x2, x2, #0x6c
    14ac:	d2802001 	mov	x1, #0x100                 	// #256
    14b0:	940000b5 	bl	1784 <snprintk>
/home/jayanth/quemu-v8/source/optee_os/lib/libutils/ext/trace.c:117
    14b4:	37f80860 	tbnz	w0, #31, 15c0 <trace_vprintf+0x184>
/home/jayanth/quemu-v8/source/optee_os/lib/libutils/ext/trace.c:122
    14b8:	90000063 	adrp	x3, d000 <_DYNAMIC>
    14bc:	d280201b 	mov	x27, #0x100                 	// #256
/home/jayanth/quemu-v8/source/optee_os/lib/libutils/ext/trace.c:119
    14c0:	93407c14 	sxtw	x20, w0
/home/jayanth/quemu-v8/source/optee_os/lib/libutils/ext/trace.c:122
    14c4:	cb20c361 	sub	x1, x27, w0, sxtw
    14c8:	f940a063 	ldr	x3, [x3, #320]
    14cc:	f0000042 	adrp	x2, c000 <__func__.4194+0x3e3>
    14d0:	8b20c2a0 	add	x0, x21, w0, sxtw
    14d4:	9101c042 	add	x2, x2, #0x70
    14d8:	940000ab 	bl	1784 <snprintk>
/home/jayanth/quemu-v8/source/optee_os/lib/libutils/ext/trace.c:124
    14dc:	37f80720 	tbnz	w0, #31, 15c0 <trace_vprintf+0x184>
/home/jayanth/quemu-v8/source/optee_os/lib/libutils/ext/trace.c:126
    14e0:	8b20c294 	add	x20, x20, w0, sxtw
/home/jayanth/quemu-v8/source/optee_os/lib/libutils/ext/trace.c:128
    14e4:	3400093a 	cbz	w26, 1608 <trace_vprintf+0x1cc>
/home/jayanth/quemu-v8/source/optee_os/lib/libutils/ext/trace.c:128 (discriminator 1)
    14e8:	52800342 	mov	w2, #0x1a                  	// #26
    14ec:	1ad32453 	lsr	w19, w2, w19
    14f0:	360008d3 	tbz	w19, #0, 1608 <trace_vprintf+0x1cc>
print_thread_id():
/home/jayanth/quemu-v8/source/optee_os/lib/libutils/ext/trace.c:65
    14f4:	94000461 	bl	2678 <trace_ext_get_thread_id>
trace_vprintf():
/home/jayanth/quemu-v8/source/optee_os/lib/libutils/ext/trace.c:130
    14f8:	8b1402ba 	add	x26, x21, x20
    14fc:	cb14037b 	sub	x27, x27, x20
print_thread_id():
/home/jayanth/quemu-v8/source/optee_os/lib/libutils/ext/trace.c:65
    1500:	2a0003e4 	mov	w4, w0
/home/jayanth/quemu-v8/source/optee_os/lib/libutils/ext/trace.c:67
    1504:	37f80700 	tbnz	w0, #31, 15e4 <trace_vprintf+0x1a8>
/home/jayanth/quemu-v8/source/optee_os/lib/libutils/ext/trace.c:68
    1508:	f0000042 	adrp	x2, c000 <__func__.4194+0x3e3>
    150c:	aa1b03e1 	mov	x1, x27
    1510:	9101d042 	add	x2, x2, #0x74
    1514:	aa1a03e0 	mov	x0, x26
    1518:	52800023 	mov	w3, #0x1                   	// #1
    151c:	9400009a 	bl	1784 <snprintk>
trace_vprintf():
/home/jayanth/quemu-v8/source/optee_os/lib/libutils/ext/trace.c:137
    1520:	37f80500 	tbnz	w0, #31, 15c0 <trace_vprintf+0x184>
/home/jayanth/quemu-v8/source/optee_os/lib/libutils/ext/trace.c:139
    1524:	8b20c293 	add	x19, x20, w0, sxtw
/home/jayanth/quemu-v8/source/optee_os/lib/libutils/ext/trace.c:141
    1528:	b4000176 	cbz	x22, 1554 <trace_vprintf+0x118>
/home/jayanth/quemu-v8/source/optee_os/lib/libutils/ext/trace.c:142
    152c:	f0000042 	adrp	x2, c000 <__func__.4194+0x3e3>
    1530:	d2802001 	mov	x1, #0x100                 	// #256
    1534:	2a1903e4 	mov	w4, w25
    1538:	aa1603e3 	mov	x3, x22
    153c:	9101fc42 	add	x2, x2, #0x7f
    1540:	cb130021 	sub	x1, x1, x19
    1544:	8b1302a0 	add	x0, x21, x19
    1548:	9400008f 	bl	1784 <snprintk>
/home/jayanth/quemu-v8/source/optee_os/lib/libutils/ext/trace.c:144
    154c:	37f803a0 	tbnz	w0, #31, 15c0 <trace_vprintf+0x184>
/home/jayanth/quemu-v8/source/optee_os/lib/libutils/ext/trace.c:146
    1550:	8b20c273 	add	x19, x19, w0, sxtw
/home/jayanth/quemu-v8/source/optee_os/lib/libutils/ext/trace.c:156
    1554:	910183e3 	add	x3, sp, #0x60
    1558:	aa1803e1 	mov	x1, x24
    155c:	aa0303e0 	mov	x0, x3
    1560:	d2800402 	mov	x2, #0x20                  	// #32
    1564:	97fffaaf 	bl	20 <memcpy>
    1568:	aa0003e3 	mov	x3, x0
    156c:	aa1703e2 	mov	x2, x23
    1570:	8b1302a0 	add	x0, x21, x19
    1574:	d2802001 	mov	x1, #0x100                 	// #256
    1578:	cb130021 	sub	x1, x1, x19
    157c:	9400006c 	bl	172c <vsnprintk>
/home/jayanth/quemu-v8/source/optee_os/lib/libutils/ext/trace.c:157
    1580:	7100001f 	cmp	w0, #0x0
    1584:	5400004d 	b.le	158c <trace_vprintf+0x150>
/home/jayanth/quemu-v8/source/optee_os/lib/libutils/ext/trace.c:158
    1588:	8b20c273 	add	x19, x19, w0, sxtw
/home/jayanth/quemu-v8/source/optee_os/lib/libutils/ext/trace.c:160
    158c:	f103fa7f 	cmp	x19, #0xfe
    1590:	d2801fc0 	mov	x0, #0xfe                  	// #254
    1594:	9a809273 	csel	x19, x19, x0, ls  // ls = plast
/home/jayanth/quemu-v8/source/optee_os/lib/libutils/ext/trace.c:163
    1598:	52800140 	mov	w0, #0xa                   	// #10
    159c:	38336aa0 	strb	w0, [x21, x19]
/home/jayanth/quemu-v8/source/optee_os/lib/libutils/ext/trace.c:164
    15a0:	b4000093 	cbz	x19, 15b0 <trace_vprintf+0x174>
/home/jayanth/quemu-v8/source/optee_os/lib/libutils/ext/trace.c:164 (discriminator 1)
    15a4:	38736aa0 	ldrb	w0, [x21, x19]
    15a8:	7100281f 	cmp	w0, #0xa
    15ac:	540003c0 	b.eq	1624 <trace_vprintf+0x1e8>  // b.none
/home/jayanth/quemu-v8/source/optee_os/lib/libutils/ext/trace.c:167
    15b0:	91020be0 	add	x0, sp, #0x82
    15b4:	3833681f 	strb	wzr, [x0, x19]
/home/jayanth/quemu-v8/source/optee_os/lib/libutils/ext/trace.c:169
    15b8:	aa1503e0 	mov	x0, x21
    15bc:	94000425 	bl	2650 <trace_ext_puts>
/home/jayanth/quemu-v8/source/optee_os/lib/libutils/ext/trace.c:170
    15c0:	a94153f3 	ldp	x19, x20, [sp, #16]
    15c4:	a9425bf5 	ldp	x21, x22, [sp, #32]
    15c8:	a94363f7 	ldp	x23, x24, [sp, #48]
    15cc:	a9446bf9 	ldp	x25, x26, [sp, #64]
    15d0:	f9402bfb 	ldr	x27, [sp, #80]
    15d4:	a8d87bfd 	ldp	x29, x30, [sp], #384
    15d8:	d65f03c0 	ret
trace_level_to_string():
/home/jayanth/quemu-v8/source/optee_os/lib/libutils/ext/trace.c:50
    15dc:	528009a3 	mov	w3, #0x4d                  	// #77
    15e0:	17ffffaf 	b	149c <trace_vprintf+0x60>
print_thread_id():
/home/jayanth/quemu-v8/source/optee_os/lib/libutils/ext/trace.c:70
    15e4:	aa1b03e1 	mov	x1, x27
    15e8:	aa1a03e0 	mov	x0, x26
    15ec:	d0000044 	adrp	x4, b000 <__text_end+0x1788>
    15f0:	52800023 	mov	w3, #0x1                   	// #1
    15f4:	912dd084 	add	x4, x4, #0xb74
    15f8:	f0000042 	adrp	x2, c000 <__func__.4194+0x3e3>
    15fc:	9101e842 	add	x2, x2, #0x7a
    1600:	94000061 	bl	1784 <snprintk>
    1604:	17ffffc7 	b	1520 <trace_vprintf+0xe4>
trace_vprintf():
/home/jayanth/quemu-v8/source/optee_os/lib/libutils/ext/trace.c:150
    1608:	f103fa9f 	cmp	x20, #0xfe
    160c:	54fffda8 	b.hi	15c0 <trace_vprintf+0x184>  // b.pmore
/home/jayanth/quemu-v8/source/optee_os/lib/libutils/ext/trace.c:152
    1610:	91000693 	add	x19, x20, #0x1
    1614:	52800400 	mov	w0, #0x20                  	// #32
    1618:	38346aa0 	strb	w0, [x21, x20]
/home/jayanth/quemu-v8/source/optee_os/lib/libutils/ext/trace.c:153
    161c:	38336abf 	strb	wzr, [x21, x19]
    1620:	17ffffcd 	b	1554 <trace_vprintf+0x118>
/home/jayanth/quemu-v8/source/optee_os/lib/libutils/ext/trace.c:165
    1624:	d1000673 	sub	x19, x19, #0x1
    1628:	17ffffde 	b	15a0 <trace_vprintf+0x164>

000000000000162c <trace_printf>:
trace_printf():
/home/jayanth/quemu-v8/source/optee_os/lib/libutils/ext/trace.c:97
    162c:	a9b17bfd 	stp	x29, x30, [sp, #-240]!
    1630:	910003fd 	mov	x29, sp
    1634:	a90d9be5 	stp	x5, x6, [sp, #216]
/home/jayanth/quemu-v8/source/optee_os/lib/libutils/ext/trace.c:100
    1638:	9103c3e5 	add	x5, sp, #0xf0
    163c:	a90317e5 	stp	x5, x5, [sp, #48]
    1640:	910343e5 	add	x5, sp, #0xd0
    1644:	f90023e5 	str	x5, [sp, #64]
    1648:	128002e5 	mov	w5, #0xffffffe8            	// #-24
    164c:	b9004be5 	str	w5, [sp, #72]
    1650:	12800fe5 	mov	w5, #0xffffff80            	// #-128
    1654:	b9004fe5 	str	w5, [sp, #76]
/home/jayanth/quemu-v8/source/optee_os/lib/libutils/ext/trace.c:101
    1658:	910043e5 	add	x5, sp, #0x10
/home/jayanth/quemu-v8/source/optee_os/lib/libutils/ext/trace.c:97
    165c:	f90077e7 	str	x7, [sp, #232]
/home/jayanth/quemu-v8/source/optee_os/lib/libutils/ext/trace.c:101
    1660:	a9431fe6 	ldp	x6, x7, [sp, #48]
    1664:	a9011fe6 	stp	x6, x7, [sp, #16]
    1668:	a9441fe6 	ldp	x6, x7, [sp, #64]
    166c:	a9021fe6 	stp	x6, x7, [sp, #32]
/home/jayanth/quemu-v8/source/optee_os/lib/libutils/ext/trace.c:97
    1670:	3d8017e0 	str	q0, [sp, #80]
    1674:	3d801be1 	str	q1, [sp, #96]
    1678:	3d801fe2 	str	q2, [sp, #112]
    167c:	3d8023e3 	str	q3, [sp, #128]
    1680:	3d8027e4 	str	q4, [sp, #144]
    1684:	3d802be5 	str	q5, [sp, #160]
    1688:	3d802fe6 	str	q6, [sp, #176]
    168c:	3d8033e7 	str	q7, [sp, #192]
/home/jayanth/quemu-v8/source/optee_os/lib/libutils/ext/trace.c:101
    1690:	97ffff6b 	bl	143c <trace_vprintf>
/home/jayanth/quemu-v8/source/optee_os/lib/libutils/ext/trace.c:103
    1694:	a8cf7bfd 	ldp	x29, x30, [sp], #240
    1698:	d65f03c0 	ret

000000000000169c <dhex_dump>:
dhex_dump():
/home/jayanth/quemu-v8/source/optee_os/lib/libutils/ext/trace.c:280
    169c:	d65f03c0 	ret

00000000000016a0 <__vsnprintf>:
__vsnprintf():
/home/jayanth/quemu-v8/source/optee_os/lib/libutils/ext/snprintk.c:138
    16a0:	a9b97bfd 	stp	x29, x30, [sp, #-112]!
    16a4:	910003fd 	mov	x29, sp
    16a8:	a90153f3 	stp	x19, x20, [sp, #16]
    16ac:	aa0103f4 	mov	x20, x1
    16b0:	aa0003f3 	mov	x19, x0
    16b4:	aa0303e1 	mov	x1, x3
    16b8:	a9025bf5 	stp	x21, x22, [sp, #32]
    16bc:	aa0203f5 	mov	x21, x2
/home/jayanth/quemu-v8/source/optee_os/lib/libutils/ext/snprintk.c:142
    16c0:	8b140016 	add	x22, x0, x20
/home/jayanth/quemu-v8/source/optee_os/lib/libutils/ext/snprintk.c:143
    16c4:	d2800402 	mov	x2, #0x20                  	// #32
    16c8:	910103e0 	add	x0, sp, #0x40
/home/jayanth/quemu-v8/source/optee_os/lib/libutils/ext/snprintk.c:138
    16cc:	f9001bf7 	str	x23, [sp, #48]
    16d0:	12001c97 	and	w23, w4, #0xff
/home/jayanth/quemu-v8/source/optee_os/lib/libutils/ext/snprintk.c:142
    16d4:	f90037f6 	str	x22, [sp, #104]
/home/jayanth/quemu-v8/source/optee_os/lib/libutils/ext/snprintk.c:143
    16d8:	97fffa52 	bl	20 <memcpy>
    16dc:	aa0003e3 	mov	x3, x0
    16e0:	2a1703e4 	mov	w4, w23
    16e4:	aa1303e2 	mov	x2, x19
    16e8:	9101a3e1 	add	x1, sp, #0x68
    16ec:	aa1503e0 	mov	x0, x21
    16f0:	94000042 	bl	17f8 <kprintf.constprop.0>
/home/jayanth/quemu-v8/source/optee_os/lib/libutils/ext/snprintk.c:144
    16f4:	f100027f 	cmp	x19, #0x0
    16f8:	fa401a84 	ccmp	x20, #0x0, #0x4, ne  // ne = any
    16fc:	540000a0 	b.eq	1710 <__vsnprintf+0x70>  // b.none
/home/jayanth/quemu-v8/source/optee_os/lib/libutils/ext/snprintk.c:146
    1700:	93407c01 	sxtw	x1, w0
    1704:	eb20c29f 	cmp	x20, w0, sxtw
    1708:	540000e8 	b.hi	1724 <__vsnprintf+0x84>  // b.pmore
/home/jayanth/quemu-v8/source/optee_os/lib/libutils/ext/snprintk.c:147
    170c:	381ff2df 	sturb	wzr, [x22, #-1]
/home/jayanth/quemu-v8/source/optee_os/lib/libutils/ext/snprintk.c:152
    1710:	a94153f3 	ldp	x19, x20, [sp, #16]
    1714:	a9425bf5 	ldp	x21, x22, [sp, #32]
    1718:	f9401bf7 	ldr	x23, [sp, #48]
    171c:	a8c77bfd 	ldp	x29, x30, [sp], #112
    1720:	d65f03c0 	ret
/home/jayanth/quemu-v8/source/optee_os/lib/libutils/ext/snprintk.c:149
    1724:	38216a7f 	strb	wzr, [x19, x1]
/home/jayanth/quemu-v8/source/optee_os/lib/libutils/ext/snprintk.c:151
    1728:	17fffffa 	b	1710 <__vsnprintf+0x70>

000000000000172c <vsnprintk>:
vsnprintk():
/home/jayanth/quemu-v8/source/optee_os/lib/libutils/ext/snprintk.c:130
    172c:	a9bb7bfd 	stp	x29, x30, [sp, #-80]!
/home/jayanth/quemu-v8/source/optee_os/lib/libutils/ext/snprintk.c:131
    1730:	9100c3e4 	add	x4, sp, #0x30
/home/jayanth/quemu-v8/source/optee_os/lib/libutils/ext/snprintk.c:130
    1734:	910003fd 	mov	x29, sp
    1738:	a90153f3 	stp	x19, x20, [sp, #16]
    173c:	aa0003f3 	mov	x19, x0
    1740:	aa0103f4 	mov	x20, x1
/home/jayanth/quemu-v8/source/optee_os/lib/libutils/ext/snprintk.c:131
    1744:	aa0403e0 	mov	x0, x4
/home/jayanth/quemu-v8/source/optee_os/lib/libutils/ext/snprintk.c:130
    1748:	aa0303e1 	mov	x1, x3
    174c:	f90013f5 	str	x21, [sp, #32]
    1750:	aa0203f5 	mov	x21, x2
/home/jayanth/quemu-v8/source/optee_os/lib/libutils/ext/snprintk.c:131
    1754:	d2800402 	mov	x2, #0x20                  	// #32
    1758:	97fffa32 	bl	20 <memcpy>
    175c:	aa1503e2 	mov	x2, x21
    1760:	aa0003e3 	mov	x3, x0
    1764:	aa1403e1 	mov	x1, x20
    1768:	aa1303e0 	mov	x0, x19
    176c:	52800024 	mov	w4, #0x1                   	// #1
    1770:	97ffffcc 	bl	16a0 <__vsnprintf>
/home/jayanth/quemu-v8/source/optee_os/lib/libutils/ext/snprintk.c:132
    1774:	a94153f3 	ldp	x19, x20, [sp, #16]
    1778:	f94013f5 	ldr	x21, [sp, #32]
    177c:	a8c57bfd 	ldp	x29, x30, [sp], #80
    1780:	d65f03c0 	ret

0000000000001784 <snprintk>:
snprintk():
/home/jayanth/quemu-v8/source/optee_os/lib/libutils/ext/snprintk.c:113
    1784:	a9b07bfd 	stp	x29, x30, [sp, #-256]!
    1788:	910003fd 	mov	x29, sp
    178c:	a90d93e3 	stp	x3, x4, [sp, #216]
/home/jayanth/quemu-v8/source/optee_os/lib/libutils/ext/snprintk.c:117
    1790:	910403e3 	add	x3, sp, #0x100
    1794:	a9030fe3 	stp	x3, x3, [sp, #48]
    1798:	910343e3 	add	x3, sp, #0xd0
    179c:	f90023e3 	str	x3, [sp, #64]
    17a0:	128004e3 	mov	w3, #0xffffffd8            	// #-40
    17a4:	b9004be3 	str	w3, [sp, #72]
    17a8:	12800fe3 	mov	w3, #0xffffff80            	// #-128
    17ac:	b9004fe3 	str	w3, [sp, #76]
/home/jayanth/quemu-v8/source/optee_os/lib/libutils/ext/snprintk.c:118
    17b0:	910043e3 	add	x3, sp, #0x10
/home/jayanth/quemu-v8/source/optee_os/lib/libutils/ext/snprintk.c:113
    17b4:	a90e9be5 	stp	x5, x6, [sp, #232]
/home/jayanth/quemu-v8/source/optee_os/lib/libutils/ext/snprintk.c:118
    17b8:	a94317e4 	ldp	x4, x5, [sp, #48]
    17bc:	a90117e4 	stp	x4, x5, [sp, #16]
    17c0:	a94417e4 	ldp	x4, x5, [sp, #64]
    17c4:	a90217e4 	stp	x4, x5, [sp, #32]
/home/jayanth/quemu-v8/source/optee_os/lib/libutils/ext/snprintk.c:113
    17c8:	3d8017e0 	str	q0, [sp, #80]
    17cc:	3d801be1 	str	q1, [sp, #96]
    17d0:	3d801fe2 	str	q2, [sp, #112]
    17d4:	3d8023e3 	str	q3, [sp, #128]
    17d8:	3d8027e4 	str	q4, [sp, #144]
    17dc:	3d802be5 	str	q5, [sp, #160]
    17e0:	3d802fe6 	str	q6, [sp, #176]
    17e4:	3d8033e7 	str	q7, [sp, #192]
    17e8:	f9007fe7 	str	x7, [sp, #248]
/home/jayanth/quemu-v8/source/optee_os/lib/libutils/ext/snprintk.c:118
    17ec:	97ffffd0 	bl	172c <vsnprintk>
/home/jayanth/quemu-v8/source/optee_os/lib/libutils/ext/snprintk.c:122
    17f0:	a8d07bfd 	ldp	x29, x30, [sp], #256
    17f4:	d65f03c0 	ret

00000000000017f8 <kprintf.constprop.0>:
kprintf():
/home/jayanth/quemu-v8/source/optee_os/lib/libutils/ext/snprintk.c:242
    17f8:	d103c3ff 	sub	sp, sp, #0xf0
    17fc:	aa0103e8 	mov	x8, x1
    1800:	a9037bfd 	stp	x29, x30, [sp, #48]
    1804:	9100c3fd 	add	x29, sp, #0x30
    1808:	a90453f3 	stp	x19, x20, [sp, #64]
    180c:	b9401874 	ldr	w20, [x3, #24]
    1810:	a9055bf5 	stp	x21, x22, [sp, #80]
    1814:	aa0203f6 	mov	x22, x2
    1818:	a90663f7 	stp	x23, x24, [sp, #96]
    181c:	a9076bf9 	stp	x25, x26, [sp, #112]
    1820:	a90873fb 	stp	x27, x28, [sp, #128]
    1824:	aa0003fb 	mov	x27, x0
    1828:	12001c80 	and	w0, w4, #0xff
    182c:	b900a3e0 	str	w0, [sp, #160]
    1830:	a9406873 	ldp	x19, x26, [x3]
/home/jayanth/quemu-v8/source/optee_os/lib/libutils/ext/snprintk.c:264
    1834:	b40004c1 	cbz	x1, 18cc <kprintf.constprop.0+0xd4>
/home/jayanth/quemu-v8/source/optee_os/lib/libutils/ext/snprintk.c:265
    1838:	f9400038 	ldr	x24, [x1]
/home/jayanth/quemu-v8/source/optee_os/lib/libutils/ext/snprintk.c:543
    183c:	910323ec 	add	x12, sp, #0xc8
    1840:	d0000040 	adrp	x0, b000 <__text_end+0x1788>
/home/jayanth/quemu-v8/source/optee_os/lib/libutils/ext/snprintk.c:275
    1844:	d2800017 	mov	x23, #0x0                   	// #0
    1848:	911d1000 	add	x0, x0, #0x744
/home/jayanth/quemu-v8/source/optee_os/lib/libutils/ext/snprintk.c:273
    184c:	52800019 	mov	w25, #0x0                   	// #0
    1850:	f9004be0 	str	x0, [sp, #144]
/home/jayanth/quemu-v8/source/optee_os/lib/libutils/ext/snprintk.c:281
    1854:	39400360 	ldrb	w0, [x27]
    1858:	7100941f 	cmp	w0, #0x25
    185c:	7a401804 	ccmp	w0, #0x0, #0x4, ne  // ne = any
    1860:	540003a1 	b.ne	18d4 <kprintf.constprop.0+0xdc>  // b.any
/home/jayanth/quemu-v8/source/optee_os/lib/libutils/ext/snprintk.c:285
    1864:	34005260 	cbz	w0, 22b0 <kprintf.constprop.0+0xab8>
/home/jayanth/quemu-v8/source/optee_os/lib/libutils/ext/snprintk.c:293
    1868:	12800005 	mov	w5, #0xffffffff            	// #-1
    186c:	d0000046 	adrp	x6, b000 <__text_end+0x1788>
/home/jayanth/quemu-v8/source/optee_os/lib/libutils/ext/snprintk.c:288
    1870:	9100077b 	add	x27, x27, #0x1
    1874:	2a1403e4 	mov	w4, w20
    1878:	aa1303e3 	mov	x3, x19
    187c:	911d80c6 	add	x6, x6, #0x760
/home/jayanth/quemu-v8/source/optee_os/lib/libutils/ext/snprintk.c:330
    1880:	2a0503ee 	mov	w14, w5
/home/jayanth/quemu-v8/source/optee_os/lib/libutils/ext/snprintk.c:294
    1884:	52800001 	mov	w1, #0x0                   	// #0
/home/jayanth/quemu-v8/source/optee_os/lib/libutils/ext/snprintk.c:292
    1888:	5280000a 	mov	w10, #0x0                   	// #0
/home/jayanth/quemu-v8/source/optee_os/lib/libutils/ext/snprintk.c:290
    188c:	52800015 	mov	w21, #0x0                   	// #0
/home/jayanth/quemu-v8/source/optee_os/lib/libutils/ext/snprintk.c:352
    1890:	5280014d 	mov	w13, #0xa                   	// #10
/home/jayanth/quemu-v8/source/optee_os/lib/libutils/ext/snprintk.c:305
    1894:	5280040f 	mov	w15, #0x20                  	// #32
/home/jayanth/quemu-v8/source/optee_os/lib/libutils/ext/snprintk.c:296
    1898:	3840177c 	ldrb	w28, [x27], #1
/home/jayanth/quemu-v8/source/optee_os/lib/libutils/ext/snprintk.c:297
    189c:	7100e79f 	cmp	w28, #0x39
    18a0:	5400054c 	b.gt	1948 <kprintf.constprop.0+0x150>
    18a4:	71007f9f 	cmp	w28, #0x1f
    18a8:	5400502d 	b.le	22ac <kprintf.constprop.0+0xab4>
    18ac:	51008380 	sub	w0, w28, #0x20
    18b0:	7100641f 	cmp	w0, #0x19
    18b4:	54000508 	b.hi	1954 <kprintf.constprop.0+0x15c>  // b.pmore
    18b8:	f9404be2 	ldr	x2, [sp, #144]
    18bc:	38604840 	ldrb	w0, [x2, w0, uxtw]
    18c0:	10000062 	adr	x2, 18cc <kprintf.constprop.0+0xd4>
    18c4:	8b208840 	add	x0, x2, w0, sxtb #2
    18c8:	d61f0000 	br	x0
/home/jayanth/quemu-v8/source/optee_os/lib/libutils/ext/snprintk.c:267
    18cc:	d2800018 	mov	x24, #0x0                   	// #0
    18d0:	17ffffdb 	b	183c <kprintf.constprop.0+0x44>
/home/jayanth/quemu-v8/source/optee_os/lib/libutils/ext/snprintk.c:282
    18d4:	11000739 	add	w25, w25, #0x1
/home/jayanth/quemu-v8/source/optee_os/lib/libutils/ext/snprintk.c:283
    18d8:	b40000b6 	cbz	x22, 18ec <kprintf.constprop.0+0xf4>
    18dc:	f100011f 	cmp	x8, #0x0
    18e0:	fa5812c0 	ccmp	x22, x24, #0x0, ne  // ne = any
    18e4:	54000042 	b.cs	18ec <kprintf.constprop.0+0xf4>  // b.hs, b.nlast
    18e8:	380016c0 	strb	w0, [x22], #1
/home/jayanth/quemu-v8/source/optee_os/lib/libutils/ext/snprintk.c:281
    18ec:	9100077b 	add	x27, x27, #0x1
    18f0:	17ffffd9 	b	1854 <kprintf.constprop.0+0x5c>
/home/jayanth/quemu-v8/source/optee_os/lib/libutils/ext/snprintk.c:325
    18f4:	52800561 	mov	w1, #0x2b                  	// #43
    18f8:	17ffffe8 	b	1898 <kprintf.constprop.0+0xa0>
    18fc:	786058c0 	ldrh	w0, [x6, w0, uxtw #1]
    1900:	10000062 	adr	x2, 190c <kprintf.constprop.0+0x114>
    1904:	8b20a840 	add	x0, x2, w0, sxth #2
    1908:	d61f0000 	br	x0
/home/jayanth/quemu-v8/source/optee_os/lib/libutils/ext/snprintk.c:480
    190c:	d0000057 	adrp	x23, b000 <__text_end+0x1788>
    1910:	911f3af7 	add	x23, x23, #0x7ce
    1914:	910046f7 	add	x23, x23, #0x11
/home/jayanth/quemu-v8/source/optee_os/lib/libutils/ext/snprintk.c:481
    1918:	36384515 	tbz	w21, #7, 21b8 <kprintf.constprop.0+0x9c0>
    191c:	37f84644 	tbnz	w4, #31, 21e4 <kprintf.constprop.0+0x9ec>
    1920:	91003c73 	add	x19, x3, #0xf
    1924:	2a0403f4 	mov	w20, w4
    1928:	927df273 	and	x19, x19, #0xfffffffffffffff8
    192c:	f9400062 	ldr	x2, [x3]
/home/jayanth/quemu-v8/source/optee_os/lib/libutils/ext/snprintk.c:484
    1930:	36003475 	tbz	w21, #0, 1fbc <kprintf.constprop.0+0x7c4>
    1934:	b4003442 	cbz	x2, 1fbc <kprintf.constprop.0+0x7c4>
/home/jayanth/quemu-v8/source/optee_os/lib/libutils/ext/snprintk.c:485
    1938:	321f02b5 	orr	w21, w21, #0x2
/home/jayanth/quemu-v8/source/optee_os/lib/libutils/ext/snprintk.c:482
    193c:	52800040 	mov	w0, #0x2                   	// #2
/home/jayanth/quemu-v8/source/optee_os/lib/libutils/ext/snprintk.c:488
    1940:	52800001 	mov	w1, #0x0                   	// #0
    1944:	14000078 	b	1b24 <kprintf.constprop.0+0x32c>
/home/jayanth/quemu-v8/source/optee_os/lib/libutils/ext/snprintk.c:297
    1948:	51011380 	sub	w0, w28, #0x44
    194c:	7100d81f 	cmp	w0, #0x36
    1950:	54fffd69 	b.ls	18fc <kprintf.constprop.0+0x104>  // b.plast
/home/jayanth/quemu-v8/source/optee_os/lib/libutils/ext/snprintk.c:554
    1954:	2a0403f4 	mov	w20, w4
    1958:	aa0303f3 	mov	x19, x3
/home/jayanth/quemu-v8/source/optee_os/lib/libutils/ext/snprintk.c:551
    195c:	390323fc 	strb	w28, [sp, #200]
/home/jayanth/quemu-v8/source/optee_os/lib/libutils/ext/snprintk.c:554
    1960:	14000058 	b	1ac0 <kprintf.constprop.0+0x2c8>
/home/jayanth/quemu-v8/source/optee_os/lib/libutils/ext/snprintk.c:305
    1964:	7100003f 	cmp	w1, #0x0
    1968:	1a8f1021 	csel	w1, w1, w15, ne  // ne = any
    196c:	17ffffcb 	b	1898 <kprintf.constprop.0+0xa0>
/home/jayanth/quemu-v8/source/optee_os/lib/libutils/ext/snprintk.c:308
    1970:	320002b5 	orr	w21, w21, #0x1
/home/jayanth/quemu-v8/source/optee_os/lib/libutils/ext/snprintk.c:309
    1974:	17ffffc9 	b	1898 <kprintf.constprop.0+0xa0>
/home/jayanth/quemu-v8/source/optee_os/lib/libutils/ext/snprintk.c:317
    1978:	37f80124 	tbnz	w4, #31, 199c <kprintf.constprop.0+0x1a4>
    197c:	91002c62 	add	x2, x3, #0xb
    1980:	aa0303e0 	mov	x0, x3
    1984:	927df043 	and	x3, x2, #0xfffffffffffffff8
    1988:	b940000a 	ldr	w10, [x0]
    198c:	36fff86a 	tbz	w10, #31, 1898 <kprintf.constprop.0+0xa0>
/home/jayanth/quemu-v8/source/optee_os/lib/libutils/ext/snprintk.c:319
    1990:	4b0a03ea 	neg	w10, w10
/home/jayanth/quemu-v8/source/optee_os/lib/libutils/ext/snprintk.c:322
    1994:	321e02b5 	orr	w21, w21, #0x4
/home/jayanth/quemu-v8/source/optee_os/lib/libutils/ext/snprintk.c:323
    1998:	17ffffc0 	b	1898 <kprintf.constprop.0+0xa0>
/home/jayanth/quemu-v8/source/optee_os/lib/libutils/ext/snprintk.c:317
    199c:	11002082 	add	w2, w4, #0x8
    19a0:	7100005f 	cmp	w2, #0x0
    19a4:	540000cd 	b.le	19bc <kprintf.constprop.0+0x1c4>
    19a8:	91002c67 	add	x7, x3, #0xb
    19ac:	aa0303e0 	mov	x0, x3
    19b0:	2a0203e4 	mov	w4, w2
    19b4:	927df0e3 	and	x3, x7, #0xfffffffffffffff8
    19b8:	17fffff4 	b	1988 <kprintf.constprop.0+0x190>
    19bc:	8b24c340 	add	x0, x26, w4, sxtw
    19c0:	2a0203e4 	mov	w4, w2
    19c4:	17fffff1 	b	1988 <kprintf.constprop.0+0x190>
/home/jayanth/quemu-v8/source/optee_os/lib/libutils/ext/snprintk.c:328
    19c8:	3840177c 	ldrb	w28, [x27], #1
    19cc:	7100ab9f 	cmp	w28, #0x2a
    19d0:	54000341 	b.ne	1a38 <kprintf.constprop.0+0x240>  // b.any
/home/jayanth/quemu-v8/source/optee_os/lib/libutils/ext/snprintk.c:329
    19d4:	37f80144 	tbnz	w4, #31, 19fc <kprintf.constprop.0+0x204>
    19d8:	91002c62 	add	x2, x3, #0xb
    19dc:	2a0403e7 	mov	w7, w4
    19e0:	927df042 	and	x2, x2, #0xfffffffffffffff8
/home/jayanth/quemu-v8/source/optee_os/lib/libutils/ext/snprintk.c:330
    19e4:	b9400065 	ldr	w5, [x3]
/home/jayanth/quemu-v8/source/optee_os/lib/libutils/ext/snprintk.c:331
    19e8:	2a0703e4 	mov	w4, w7
    19ec:	aa0203e3 	mov	x3, x2
/home/jayanth/quemu-v8/source/optee_os/lib/libutils/ext/snprintk.c:330
    19f0:	710000bf 	cmp	w5, #0x0
    19f4:	1a8ea0a5 	csel	w5, w5, w14, ge  // ge = tcont
/home/jayanth/quemu-v8/source/optee_os/lib/libutils/ext/snprintk.c:331
    19f8:	17ffffa8 	b	1898 <kprintf.constprop.0+0xa0>
/home/jayanth/quemu-v8/source/optee_os/lib/libutils/ext/snprintk.c:329
    19fc:	11002087 	add	w7, w4, #0x8
    1a00:	710000ff 	cmp	w7, #0x0
    1a04:	5400008d 	b.le	1a14 <kprintf.constprop.0+0x21c>
    1a08:	91002c62 	add	x2, x3, #0xb
    1a0c:	927df042 	and	x2, x2, #0xfffffffffffffff8
    1a10:	17fffff5 	b	19e4 <kprintf.constprop.0+0x1ec>
    1a14:	aa0303e2 	mov	x2, x3
    1a18:	8b24c343 	add	x3, x26, w4, sxtw
    1a1c:	17fffff2 	b	19e4 <kprintf.constprop.0+0x1ec>
/home/jayanth/quemu-v8/source/optee_os/lib/libutils/ext/snprintk.c:335
    1a20:	1b0d00a5 	madd	w5, w5, w13, w0
/home/jayanth/quemu-v8/source/optee_os/lib/libutils/ext/snprintk.c:336
    1a24:	3840177c 	ldrb	w28, [x27], #1
/home/jayanth/quemu-v8/source/optee_os/lib/libutils/ext/snprintk.c:334
    1a28:	5100c380 	sub	w0, w28, #0x30
    1a2c:	7100241f 	cmp	w0, #0x9
    1a30:	54ffff89 	b.ls	1a20 <kprintf.constprop.0+0x228>  // b.plast
    1a34:	17ffff9a 	b	189c <kprintf.constprop.0+0xa4>
/home/jayanth/quemu-v8/source/optee_os/lib/libutils/ext/snprintk.c:333
    1a38:	52800005 	mov	w5, #0x0                   	// #0
    1a3c:	17fffffb 	b	1a28 <kprintf.constprop.0+0x230>
/home/jayanth/quemu-v8/source/optee_os/lib/libutils/ext/snprintk.c:346
    1a40:	321602b5 	orr	w21, w21, #0x400
/home/jayanth/quemu-v8/source/optee_os/lib/libutils/ext/snprintk.c:347
    1a44:	17ffff95 	b	1898 <kprintf.constprop.0+0xa0>
/home/jayanth/quemu-v8/source/optee_os/lib/libutils/ext/snprintk.c:297
    1a48:	5280000a 	mov	w10, #0x0                   	// #0
/home/jayanth/quemu-v8/source/optee_os/lib/libutils/ext/snprintk.c:352
    1a4c:	5100c39c 	sub	w28, w28, #0x30
    1a50:	1b0d714a 	madd	w10, w10, w13, w28
/home/jayanth/quemu-v8/source/optee_os/lib/libutils/ext/snprintk.c:353
    1a54:	3840177c 	ldrb	w28, [x27], #1
/home/jayanth/quemu-v8/source/optee_os/lib/libutils/ext/snprintk.c:354
    1a58:	5100c380 	sub	w0, w28, #0x30
    1a5c:	7100241f 	cmp	w0, #0x9
    1a60:	54ffff69 	b.ls	1a4c <kprintf.constprop.0+0x254>  // b.plast
    1a64:	17ffff8e 	b	189c <kprintf.constprop.0+0xa4>
/home/jayanth/quemu-v8/source/optee_os/lib/libutils/ext/snprintk.c:358
    1a68:	321a02b5 	orr	w21, w21, #0x40
/home/jayanth/quemu-v8/source/optee_os/lib/libutils/ext/snprintk.c:359
    1a6c:	17ffff8b 	b	1898 <kprintf.constprop.0+0xa0>
/home/jayanth/quemu-v8/source/optee_os/lib/libutils/ext/snprintk.c:361
    1a70:	321902b5 	orr	w21, w21, #0x80
/home/jayanth/quemu-v8/source/optee_os/lib/libutils/ext/snprintk.c:362
    1a74:	17ffff89 	b	1898 <kprintf.constprop.0+0xa0>
/home/jayanth/quemu-v8/source/optee_os/lib/libutils/ext/snprintk.c:364
    1a78:	39400360 	ldrb	w0, [x27]
    1a7c:	7101b01f 	cmp	w0, #0x6c
    1a80:	54000081 	b.ne	1a90 <kprintf.constprop.0+0x298>  // b.any
    1a84:	9100077b 	add	x27, x27, #0x1
/home/jayanth/quemu-v8/source/optee_os/lib/libutils/ext/snprintk.c:372
    1a88:	321b02b5 	orr	w21, w21, #0x20
/home/jayanth/quemu-v8/source/optee_os/lib/libutils/ext/snprintk.c:373
    1a8c:	17ffff83 	b	1898 <kprintf.constprop.0+0xa0>
/home/jayanth/quemu-v8/source/optee_os/lib/libutils/ext/snprintk.c:368
    1a90:	321c02b5 	orr	w21, w21, #0x10
    1a94:	17ffff81 	b	1898 <kprintf.constprop.0+0xa0>
/home/jayanth/quemu-v8/source/optee_os/lib/libutils/ext/snprintk.c:375
    1a98:	321802b5 	orr	w21, w21, #0x100
/home/jayanth/quemu-v8/source/optee_os/lib/libutils/ext/snprintk.c:376
    1a9c:	17ffff7f 	b	1898 <kprintf.constprop.0+0xa0>
/home/jayanth/quemu-v8/source/optee_os/lib/libutils/ext/snprintk.c:378
    1aa0:	321702b5 	orr	w21, w21, #0x200
/home/jayanth/quemu-v8/source/optee_os/lib/libutils/ext/snprintk.c:379
    1aa4:	17ffff7d 	b	1898 <kprintf.constprop.0+0xa0>
/home/jayanth/quemu-v8/source/optee_os/lib/libutils/ext/snprintk.c:381
    1aa8:	37f80164 	tbnz	w4, #31, 1ad4 <kprintf.constprop.0+0x2dc>
    1aac:	91002c73 	add	x19, x3, #0xb
    1ab0:	2a0403f4 	mov	w20, w4
    1ab4:	927df273 	and	x19, x19, #0xfffffffffffffff8
    1ab8:	b9400060 	ldr	w0, [x3]
    1abc:	390323e0 	strb	w0, [sp, #200]
/home/jayanth/quemu-v8/source/optee_os/lib/libutils/ext/snprintk.c:550
    1ac0:	910323e3 	add	x3, sp, #0xc8
/home/jayanth/quemu-v8/source/optee_os/lib/libutils/ext/snprintk.c:552
    1ac4:	52800025 	mov	w5, #0x1                   	// #1
/home/jayanth/quemu-v8/source/optee_os/lib/libutils/ext/snprintk.c:291
    1ac8:	52800006 	mov	w6, #0x0                   	// #0
/home/jayanth/quemu-v8/source/optee_os/lib/libutils/ext/snprintk.c:553
    1acc:	52800001 	mov	w1, #0x0                   	// #0
/home/jayanth/quemu-v8/source/optee_os/lib/libutils/ext/snprintk.c:554
    1ad0:	140000fa 	b	1eb8 <kprintf.constprop.0+0x6c0>
/home/jayanth/quemu-v8/source/optee_os/lib/libutils/ext/snprintk.c:381
    1ad4:	11002094 	add	w20, w4, #0x8
    1ad8:	7100029f 	cmp	w20, #0x0
    1adc:	5400008d 	b.le	1aec <kprintf.constprop.0+0x2f4>
    1ae0:	91002c73 	add	x19, x3, #0xb
    1ae4:	927df273 	and	x19, x19, #0xfffffffffffffff8
    1ae8:	17fffff4 	b	1ab8 <kprintf.constprop.0+0x2c0>
    1aec:	aa0303f3 	mov	x19, x3
    1af0:	8b24c343 	add	x3, x26, w4, sxtw
    1af4:	17fffff1 	b	1ab8 <kprintf.constprop.0+0x2c0>
/home/jayanth/quemu-v8/source/optee_os/lib/libutils/ext/snprintk.c:386
    1af8:	321c02b5 	orr	w21, w21, #0x10
/home/jayanth/quemu-v8/source/optee_os/lib/libutils/ext/snprintk.c:390
    1afc:	363802f5 	tbz	w21, #7, 1b58 <kprintf.constprop.0+0x360>
    1b00:	37f80424 	tbnz	w4, #31, 1b84 <kprintf.constprop.0+0x38c>
    1b04:	91003c73 	add	x19, x3, #0xf
    1b08:	2a0403f4 	mov	w20, w4
    1b0c:	927df273 	and	x19, x19, #0xfffffffffffffff8
    1b10:	f9400062 	ldr	x2, [x3]
/home/jayanth/quemu-v8/source/optee_os/lib/libutils/ext/snprintk.c:391
    1b14:	b6f82e02 	tbz	x2, #63, 20d4 <kprintf.constprop.0+0x8dc>
/home/jayanth/quemu-v8/source/optee_os/lib/libutils/ext/snprintk.c:392
    1b18:	cb0203e2 	neg	x2, x2
/home/jayanth/quemu-v8/source/optee_os/lib/libutils/ext/snprintk.c:395
    1b1c:	52800020 	mov	w0, #0x1                   	// #1
/home/jayanth/quemu-v8/source/optee_os/lib/libutils/ext/snprintk.c:393
    1b20:	528005a1 	mov	w1, #0x2d                  	// #45
/home/jayanth/quemu-v8/source/optee_os/lib/libutils/ext/snprintk.c:494
    1b24:	310004bf 	cmn	w5, #0x1
    1b28:	54003a21 	b.ne	226c <kprintf.constprop.0+0xa74>  // b.any
/home/jayanth/quemu-v8/source/optee_os/lib/libutils/ext/snprintk.c:509
    1b2c:	7100041f 	cmp	w0, #0x1
    1b30:	54002d60 	b.eq	20dc <kprintf.constprop.0+0x8e4>  // b.none
    1b34:	7100081f 	cmp	w0, #0x2
    1b38:	54000ea1 	b.ne	1d0c <kprintf.constprop.0+0x514>  // b.any
/home/jayanth/quemu-v8/source/optee_os/lib/libutils/ext/snprintk.c:502
    1b3c:	91009583 	add	x3, x12, #0x25
/home/jayanth/quemu-v8/source/optee_os/lib/libutils/ext/snprintk.c:531
    1b40:	92400c40 	and	x0, x2, #0xf
/home/jayanth/quemu-v8/source/optee_os/lib/libutils/ext/snprintk.c:532
    1b44:	d344fc42 	lsr	x2, x2, #4
/home/jayanth/quemu-v8/source/optee_os/lib/libutils/ext/snprintk.c:531
    1b48:	38606ae0 	ldrb	w0, [x23, x0]
    1b4c:	381ffc60 	strb	w0, [x3, #-1]!
/home/jayanth/quemu-v8/source/optee_os/lib/libutils/ext/snprintk.c:533
    1b50:	b5ffff82 	cbnz	x2, 1b40 <kprintf.constprop.0+0x348>
    1b54:	1400007b 	b	1d40 <kprintf.constprop.0+0x548>
/home/jayanth/quemu-v8/source/optee_os/lib/libutils/ext/snprintk.c:390
    1b58:	3747fd55 	tbnz	w21, #8, 1b00 <kprintf.constprop.0+0x308>
    1b5c:	374ffd35 	tbnz	w21, #9, 1b00 <kprintf.constprop.0+0x308>
    1b60:	372ffd15 	tbnz	w21, #5, 1b00 <kprintf.constprop.0+0x308>
    1b64:	3727fcf5 	tbnz	w21, #4, 1b00 <kprintf.constprop.0+0x308>
    1b68:	36300335 	tbz	w21, #6, 1bcc <kprintf.constprop.0+0x3d4>
    1b6c:	37f801e4 	tbnz	w4, #31, 1ba8 <kprintf.constprop.0+0x3b0>
    1b70:	91002c73 	add	x19, x3, #0xb
    1b74:	2a0403f4 	mov	w20, w4
    1b78:	927df273 	and	x19, x19, #0xfffffffffffffff8
    1b7c:	79800062 	ldrsh	x2, [x3]
    1b80:	17ffffe5 	b	1b14 <kprintf.constprop.0+0x31c>
    1b84:	11002094 	add	w20, w4, #0x8
    1b88:	7100029f 	cmp	w20, #0x0
    1b8c:	5400008d 	b.le	1b9c <kprintf.constprop.0+0x3a4>
    1b90:	91003c73 	add	x19, x3, #0xf
    1b94:	927df273 	and	x19, x19, #0xfffffffffffffff8
    1b98:	17ffffde 	b	1b10 <kprintf.constprop.0+0x318>
    1b9c:	aa0303f3 	mov	x19, x3
    1ba0:	8b24c343 	add	x3, x26, w4, sxtw
    1ba4:	17ffffdb 	b	1b10 <kprintf.constprop.0+0x318>
    1ba8:	11002094 	add	w20, w4, #0x8
    1bac:	7100029f 	cmp	w20, #0x0
    1bb0:	5400008d 	b.le	1bc0 <kprintf.constprop.0+0x3c8>
    1bb4:	91002c73 	add	x19, x3, #0xb
    1bb8:	927df273 	and	x19, x19, #0xfffffffffffffff8
    1bbc:	17fffff0 	b	1b7c <kprintf.constprop.0+0x384>
    1bc0:	aa0303f3 	mov	x19, x3
    1bc4:	8b24c343 	add	x3, x26, w4, sxtw
    1bc8:	17ffffed 	b	1b7c <kprintf.constprop.0+0x384>
    1bcc:	37f800c4 	tbnz	w4, #31, 1be4 <kprintf.constprop.0+0x3ec>
    1bd0:	91002c73 	add	x19, x3, #0xb
    1bd4:	2a0403f4 	mov	w20, w4
    1bd8:	927df273 	and	x19, x19, #0xfffffffffffffff8
    1bdc:	b9800062 	ldrsw	x2, [x3]
    1be0:	17ffffcd 	b	1b14 <kprintf.constprop.0+0x31c>
    1be4:	11002094 	add	w20, w4, #0x8
    1be8:	7100029f 	cmp	w20, #0x0
    1bec:	5400008d 	b.le	1bfc <kprintf.constprop.0+0x404>
    1bf0:	91002c73 	add	x19, x3, #0xb
    1bf4:	927df273 	and	x19, x19, #0xfffffffffffffff8
    1bf8:	17fffff9 	b	1bdc <kprintf.constprop.0+0x3e4>
    1bfc:	aa0303f3 	mov	x19, x3
    1c00:	8b24c343 	add	x3, x26, w4, sxtw
    1c04:	17fffff6 	b	1bdc <kprintf.constprop.0+0x3e4>
/home/jayanth/quemu-v8/source/optee_os/lib/libutils/ext/snprintk.c:398
    1c08:	36380135 	tbz	w21, #7, 1c2c <kprintf.constprop.0+0x434>
/home/jayanth/quemu-v8/source/optee_os/lib/libutils/ext/snprintk.c:407
    1c0c:	37f80284 	tbnz	w4, #31, 1c5c <kprintf.constprop.0+0x464>
    1c10:	91003c73 	add	x19, x3, #0xf
    1c14:	2a0403f4 	mov	w20, w4
    1c18:	927df273 	and	x19, x19, #0xfffffffffffffff8
    1c1c:	f9400060 	ldr	x0, [x3]
    1c20:	93407f21 	sxtw	x1, w25
    1c24:	f9000001 	str	x1, [x0]
    1c28:	17ffff0b 	b	1854 <kprintf.constprop.0+0x5c>
/home/jayanth/quemu-v8/source/optee_os/lib/libutils/ext/snprintk.c:400
    1c2c:	3747ff15 	tbnz	w21, #8, 1c0c <kprintf.constprop.0+0x414>
/home/jayanth/quemu-v8/source/optee_os/lib/libutils/ext/snprintk.c:402
    1c30:	374ffef5 	tbnz	w21, #9, 1c0c <kprintf.constprop.0+0x414>
/home/jayanth/quemu-v8/source/optee_os/lib/libutils/ext/snprintk.c:404
    1c34:	372ffed5 	tbnz	w21, #5, 1c0c <kprintf.constprop.0+0x414>
/home/jayanth/quemu-v8/source/optee_os/lib/libutils/ext/snprintk.c:406
    1c38:	3727feb5 	tbnz	w21, #4, 1c0c <kprintf.constprop.0+0x414>
/home/jayanth/quemu-v8/source/optee_os/lib/libutils/ext/snprintk.c:408
    1c3c:	36300355 	tbz	w21, #6, 1ca4 <kprintf.constprop.0+0x4ac>
/home/jayanth/quemu-v8/source/optee_os/lib/libutils/ext/snprintk.c:409
    1c40:	37f80204 	tbnz	w4, #31, 1c80 <kprintf.constprop.0+0x488>
    1c44:	91003c73 	add	x19, x3, #0xf
    1c48:	2a0403f4 	mov	w20, w4
    1c4c:	927df273 	and	x19, x19, #0xfffffffffffffff8
    1c50:	f9400060 	ldr	x0, [x3]
    1c54:	79000019 	strh	w25, [x0]
    1c58:	17fffeff 	b	1854 <kprintf.constprop.0+0x5c>
/home/jayanth/quemu-v8/source/optee_os/lib/libutils/ext/snprintk.c:407
    1c5c:	11002094 	add	w20, w4, #0x8
    1c60:	7100029f 	cmp	w20, #0x0
    1c64:	5400008d 	b.le	1c74 <kprintf.constprop.0+0x47c>
    1c68:	91003c73 	add	x19, x3, #0xf
    1c6c:	927df273 	and	x19, x19, #0xfffffffffffffff8
    1c70:	17ffffeb 	b	1c1c <kprintf.constprop.0+0x424>
    1c74:	aa0303f3 	mov	x19, x3
    1c78:	8b24c343 	add	x3, x26, w4, sxtw
    1c7c:	17ffffe8 	b	1c1c <kprintf.constprop.0+0x424>
/home/jayanth/quemu-v8/source/optee_os/lib/libutils/ext/snprintk.c:409
    1c80:	11002094 	add	w20, w4, #0x8
    1c84:	7100029f 	cmp	w20, #0x0
    1c88:	5400008d 	b.le	1c98 <kprintf.constprop.0+0x4a0>
    1c8c:	91003c73 	add	x19, x3, #0xf
    1c90:	927df273 	and	x19, x19, #0xfffffffffffffff8
    1c94:	17ffffef 	b	1c50 <kprintf.constprop.0+0x458>
    1c98:	aa0303f3 	mov	x19, x3
    1c9c:	8b24c343 	add	x3, x26, w4, sxtw
    1ca0:	17ffffec 	b	1c50 <kprintf.constprop.0+0x458>
/home/jayanth/quemu-v8/source/optee_os/lib/libutils/ext/snprintk.c:411
    1ca4:	37f800e4 	tbnz	w4, #31, 1cc0 <kprintf.constprop.0+0x4c8>
    1ca8:	91003c73 	add	x19, x3, #0xf
    1cac:	2a0403f4 	mov	w20, w4
    1cb0:	927df273 	and	x19, x19, #0xfffffffffffffff8
    1cb4:	f9400060 	ldr	x0, [x3]
    1cb8:	b9000019 	str	w25, [x0]
    1cbc:	17fffee6 	b	1854 <kprintf.constprop.0+0x5c>
    1cc0:	11002094 	add	w20, w4, #0x8
    1cc4:	7100029f 	cmp	w20, #0x0
    1cc8:	5400008d 	b.le	1cd8 <kprintf.constprop.0+0x4e0>
    1ccc:	91003c73 	add	x19, x3, #0xf
    1cd0:	927df273 	and	x19, x19, #0xfffffffffffffff8
    1cd4:	17fffff8 	b	1cb4 <kprintf.constprop.0+0x4bc>
    1cd8:	aa0303f3 	mov	x19, x3
    1cdc:	8b24c343 	add	x3, x26, w4, sxtw
    1ce0:	17fffff5 	b	1cb4 <kprintf.constprop.0+0x4bc>
/home/jayanth/quemu-v8/source/optee_os/lib/libutils/ext/snprintk.c:414
    1ce4:	321c02b5 	orr	w21, w21, #0x10
/home/jayanth/quemu-v8/source/optee_os/lib/libutils/ext/snprintk.c:417
    1ce8:	36380355 	tbz	w21, #7, 1d50 <kprintf.constprop.0+0x558>
    1cec:	37f80484 	tbnz	w4, #31, 1d7c <kprintf.constprop.0+0x584>
    1cf0:	91003c73 	add	x19, x3, #0xf
    1cf4:	2a0403f4 	mov	w20, w4
    1cf8:	927df273 	and	x19, x19, #0xfffffffffffffff8
    1cfc:	f9400062 	ldr	x2, [x3]
/home/jayanth/quemu-v8/source/optee_os/lib/libutils/ext/snprintk.c:494
    1d00:	310004bf 	cmn	w5, #0x1
    1d04:	52800001 	mov	w1, #0x0                   	// #0
    1d08:	54002b01 	b.ne	2268 <kprintf.constprop.0+0xa70>  // b.any
/home/jayanth/quemu-v8/source/optee_os/lib/libutils/ext/snprintk.c:502
    1d0c:	91009583 	add	x3, x12, #0x25
/home/jayanth/quemu-v8/source/optee_os/lib/libutils/ext/snprintk.c:512
    1d10:	12000840 	and	w0, w2, #0x7
    1d14:	aa0303e4 	mov	x4, x3
    1d18:	1100c000 	add	w0, w0, #0x30
    1d1c:	381ffc60 	strb	w0, [x3, #-1]!
/home/jayanth/quemu-v8/source/optee_os/lib/libutils/ext/snprintk.c:513
    1d20:	d343fc42 	lsr	x2, x2, #3
/home/jayanth/quemu-v8/source/optee_os/lib/libutils/ext/snprintk.c:514
    1d24:	b5ffff62 	cbnz	x2, 1d10 <kprintf.constprop.0+0x518>
/home/jayanth/quemu-v8/source/optee_os/lib/libutils/ext/snprintk.c:516
    1d28:	360000d5 	tbz	w21, #0, 1d40 <kprintf.constprop.0+0x548>
    1d2c:	7100c01f 	cmp	w0, #0x30
    1d30:	54000080 	b.eq	1d40 <kprintf.constprop.0+0x548>  // b.none
/home/jayanth/quemu-v8/source/optee_os/lib/libutils/ext/snprintk.c:517
    1d34:	52800600 	mov	w0, #0x30                  	// #48
    1d38:	381ff060 	sturb	w0, [x3, #-1]
    1d3c:	d1000883 	sub	x3, x4, #0x2
/home/jayanth/quemu-v8/source/optee_os/lib/libutils/ext/snprintk.c:543
    1d40:	91009580 	add	x0, x12, #0x25
    1d44:	2a0503e6 	mov	w6, w5
    1d48:	4b030005 	sub	w5, w0, w3
    1d4c:	1400005b 	b	1eb8 <kprintf.constprop.0+0x6c0>
/home/jayanth/quemu-v8/source/optee_os/lib/libutils/ext/snprintk.c:417
    1d50:	3747fcf5 	tbnz	w21, #8, 1cec <kprintf.constprop.0+0x4f4>
    1d54:	374ffcd5 	tbnz	w21, #9, 1cec <kprintf.constprop.0+0x4f4>
    1d58:	372ffcb5 	tbnz	w21, #5, 1cec <kprintf.constprop.0+0x4f4>
    1d5c:	3727fc95 	tbnz	w21, #4, 1cec <kprintf.constprop.0+0x4f4>
    1d60:	36300335 	tbz	w21, #6, 1dc4 <kprintf.constprop.0+0x5cc>
    1d64:	37f801e4 	tbnz	w4, #31, 1da0 <kprintf.constprop.0+0x5a8>
    1d68:	91002c73 	add	x19, x3, #0xb
    1d6c:	2a0403f4 	mov	w20, w4
    1d70:	927df273 	and	x19, x19, #0xfffffffffffffff8
    1d74:	79400062 	ldrh	w2, [x3]
    1d78:	17ffffe2 	b	1d00 <kprintf.constprop.0+0x508>
    1d7c:	11002094 	add	w20, w4, #0x8
    1d80:	7100029f 	cmp	w20, #0x0
    1d84:	5400008d 	b.le	1d94 <kprintf.constprop.0+0x59c>
    1d88:	91003c73 	add	x19, x3, #0xf
    1d8c:	927df273 	and	x19, x19, #0xfffffffffffffff8
    1d90:	17ffffdb 	b	1cfc <kprintf.constprop.0+0x504>
    1d94:	aa0303f3 	mov	x19, x3
    1d98:	8b24c343 	add	x3, x26, w4, sxtw
    1d9c:	17ffffd8 	b	1cfc <kprintf.constprop.0+0x504>
    1da0:	11002094 	add	w20, w4, #0x8
    1da4:	7100029f 	cmp	w20, #0x0
    1da8:	5400008d 	b.le	1db8 <kprintf.constprop.0+0x5c0>
    1dac:	91002c73 	add	x19, x3, #0xb
    1db0:	927df273 	and	x19, x19, #0xfffffffffffffff8
    1db4:	17fffff0 	b	1d74 <kprintf.constprop.0+0x57c>
    1db8:	aa0303f3 	mov	x19, x3
    1dbc:	8b24c343 	add	x3, x26, w4, sxtw
    1dc0:	17ffffed 	b	1d74 <kprintf.constprop.0+0x57c>
    1dc4:	37f800c4 	tbnz	w4, #31, 1ddc <kprintf.constprop.0+0x5e4>
    1dc8:	91002c73 	add	x19, x3, #0xb
    1dcc:	2a0403f4 	mov	w20, w4
    1dd0:	927df273 	and	x19, x19, #0xfffffffffffffff8
    1dd4:	b9400062 	ldr	w2, [x3]
    1dd8:	17ffffca 	b	1d00 <kprintf.constprop.0+0x508>
    1ddc:	11002094 	add	w20, w4, #0x8
    1de0:	7100029f 	cmp	w20, #0x0
    1de4:	5400008d 	b.le	1df4 <kprintf.constprop.0+0x5fc>
    1de8:	91002c73 	add	x19, x3, #0xb
    1dec:	927df273 	and	x19, x19, #0xfffffffffffffff8
    1df0:	17fffff9 	b	1dd4 <kprintf.constprop.0+0x5dc>
    1df4:	aa0303f3 	mov	x19, x3
    1df8:	8b24c343 	add	x3, x26, w4, sxtw
    1dfc:	17fffff6 	b	1dd4 <kprintf.constprop.0+0x5dc>
/home/jayanth/quemu-v8/source/optee_os/lib/libutils/ext/snprintk.c:421
    1e00:	b940a3e0 	ldr	w0, [sp, #160]
    1e04:	34000c80 	cbz	w0, 1f94 <kprintf.constprop.0+0x79c>
    1e08:	39400360 	ldrb	w0, [x27]
    1e0c:	7101541f 	cmp	w0, #0x55
    1e10:	54000c21 	b.ne	1f94 <kprintf.constprop.0+0x79c>  // b.any
    1e14:	39400760 	ldrb	w0, [x27, #1]
    1e18:	7101b01f 	cmp	w0, #0x6c
    1e1c:	54000bc1 	b.ne	1f94 <kprintf.constprop.0+0x79c>  // b.any
/home/jayanth/quemu-v8/source/optee_os/lib/libutils/ext/snprintk.c:426
    1e20:	91000b7b 	add	x27, x27, #0x2
/home/jayanth/quemu-v8/source/optee_os/lib/libutils/ext/snprintk.c:427
    1e24:	37f80a64 	tbnz	w4, #31, 1f70 <kprintf.constprop.0+0x778>
    1e28:	91003c73 	add	x19, x3, #0xf
    1e2c:	2a0403f4 	mov	w20, w4
    1e30:	927df273 	and	x19, x19, #0xfffffffffffffff8
    1e34:	f9400060 	ldr	x0, [x3]
uuid2str():
/home/jayanth/quemu-v8/source/optee_os/lib/libutils/ext/snprintk.c:229
    1e38:	f0000042 	adrp	x2, c000 <__func__.4194+0x3e3>
    1e3c:	91024842 	add	x2, x2, #0x92
    1e40:	f9004fec 	str	x12, [sp, #152]
    1e44:	b900a7ea 	str	w10, [sp, #164]
    1e48:	39403c01 	ldrb	w1, [x0, #15]
    1e4c:	39402006 	ldrb	w6, [x0, #8]
    1e50:	79400c05 	ldrh	w5, [x0, #6]
    1e54:	39402407 	ldrb	w7, [x0, #9]
    1e58:	79400804 	ldrh	w4, [x0, #4]
    1e5c:	b9002be1 	str	w1, [sp, #40]
    1e60:	f90057e8 	str	x8, [sp, #168]
    1e64:	39403801 	ldrb	w1, [x0, #14]
    1e68:	b90023e1 	str	w1, [sp, #32]
    1e6c:	39403401 	ldrb	w1, [x0, #13]
    1e70:	b9001be1 	str	w1, [sp, #24]
    1e74:	39403001 	ldrb	w1, [x0, #12]
    1e78:	b90013e1 	str	w1, [sp, #16]
    1e7c:	39402c01 	ldrb	w1, [x0, #11]
    1e80:	b9000be1 	str	w1, [sp, #8]
    1e84:	39402801 	ldrb	w1, [x0, #10]
    1e88:	b90003e1 	str	w1, [sp]
    1e8c:	d28004a1 	mov	x1, #0x25                  	// #37
    1e90:	b9400003 	ldr	w3, [x0]
    1e94:	aa0c03e0 	mov	x0, x12
    1e98:	97fffe3b 	bl	1784 <snprintk>
    1e9c:	2a0003e5 	mov	w5, w0
kprintf():
/home/jayanth/quemu-v8/source/optee_os/lib/libutils/ext/snprintk.c:429
    1ea0:	f9404fec 	ldr	x12, [sp, #152]
/home/jayanth/quemu-v8/source/optee_os/lib/libutils/ext/snprintk.c:291
    1ea4:	52800006 	mov	w6, #0x0                   	// #0
/home/jayanth/quemu-v8/source/optee_os/lib/libutils/ext/snprintk.c:431
    1ea8:	b940a7ea 	ldr	w10, [sp, #164]
/home/jayanth/quemu-v8/source/optee_os/lib/libutils/ext/snprintk.c:430
    1eac:	52800001 	mov	w1, #0x0                   	// #0
/home/jayanth/quemu-v8/source/optee_os/lib/libutils/ext/snprintk.c:431
    1eb0:	f94057e8 	ldr	x8, [sp, #168]
/home/jayanth/quemu-v8/source/optee_os/lib/libutils/ext/snprintk.c:429
    1eb4:	aa0c03e3 	mov	x3, x12
/home/jayanth/quemu-v8/source/optee_os/lib/libutils/ext/snprintk.c:571
    1eb8:	6b0500df 	cmp	w6, w5
    1ebc:	1a85a0c4 	csel	w4, w6, w5, ge  // ge = tcont
/home/jayanth/quemu-v8/source/optee_os/lib/libutils/ext/snprintk.c:572
    1ec0:	340020e1 	cbz	w1, 22dc <kprintf.constprop.0+0xae4>
/home/jayanth/quemu-v8/source/optee_os/lib/libutils/ext/snprintk.c:573
    1ec4:	11000484 	add	w4, w4, #0x1
/home/jayanth/quemu-v8/source/optee_os/lib/libutils/ext/snprintk.c:578
    1ec8:	6b0a009f 	cmp	w4, w10
    1ecc:	1a8aa080 	csel	w0, w4, w10, ge  // ge = tcont
    1ed0:	0b000339 	add	w25, w25, w0
/home/jayanth/quemu-v8/source/optee_os/lib/libutils/ext/snprintk.c:581
    1ed4:	52808080 	mov	w0, #0x404                 	// #1028
    1ed8:	6a0002a0 	ands	w0, w21, w0
    1edc:	540000a1 	b.ne	1ef0 <kprintf.constprop.0+0x6f8>  // b.any
/home/jayanth/quemu-v8/source/optee_os/lib/libutils/ext/snprintk.c:582
    1ee0:	4b040147 	sub	w7, w10, w4
/home/jayanth/quemu-v8/source/optee_os/lib/libutils/ext/snprintk.c:584
    1ee4:	52800402 	mov	w2, #0x20                  	// #32
/home/jayanth/quemu-v8/source/optee_os/lib/libutils/ext/snprintk.c:583
    1ee8:	710000ff 	cmp	w7, #0x0
    1eec:	54001fec 	b.gt	22e8 <kprintf.constprop.0+0xaf0>
/home/jayanth/quemu-v8/source/optee_os/lib/libutils/ext/snprintk.c:588
    1ef0:	340020a1 	cbz	w1, 2304 <kprintf.constprop.0+0xb0c>
/home/jayanth/quemu-v8/source/optee_os/lib/libutils/ext/snprintk.c:589
    1ef4:	b40000b6 	cbz	x22, 1f08 <kprintf.constprop.0+0x710>
    1ef8:	f100011f 	cmp	x8, #0x0
    1efc:	fa561302 	ccmp	x24, x22, #0x2, ne  // ne = any
    1f00:	54000049 	b.ls	1f08 <kprintf.constprop.0+0x710>  // b.plast
    1f04:	380016c1 	strb	w1, [x22], #1
/home/jayanth/quemu-v8/source/optee_os/lib/libutils/ext/snprintk.c:596
    1f08:	7110001f 	cmp	w0, #0x400
    1f0c:	540000a1 	b.ne	1f20 <kprintf.constprop.0+0x728>  // b.any
/home/jayanth/quemu-v8/source/optee_os/lib/libutils/ext/snprintk.c:597
    1f10:	4b040140 	sub	w0, w10, w4
/home/jayanth/quemu-v8/source/optee_os/lib/libutils/ext/snprintk.c:599
    1f14:	52800601 	mov	w1, #0x30                  	// #48
/home/jayanth/quemu-v8/source/optee_os/lib/libutils/ext/snprintk.c:598
    1f18:	7100001f 	cmp	w0, #0x0
    1f1c:	5400218c 	b.gt	234c <kprintf.constprop.0+0xb54>
/home/jayanth/quemu-v8/source/optee_os/lib/libutils/ext/snprintk.c:603
    1f20:	4b0500c6 	sub	w6, w6, w5
/home/jayanth/quemu-v8/source/optee_os/lib/libutils/ext/snprintk.c:605
    1f24:	52800600 	mov	w0, #0x30                  	// #48
/home/jayanth/quemu-v8/source/optee_os/lib/libutils/ext/snprintk.c:604
    1f28:	710000df 	cmp	w6, #0x0
    1f2c:	540021ec 	b.gt	2368 <kprintf.constprop.0+0xb70>
    1f30:	2a0503e5 	mov	w5, w5
    1f34:	d2800001 	mov	x1, #0x0                   	// #0
/home/jayanth/quemu-v8/source/optee_os/lib/libutils/ext/snprintk.c:608
    1f38:	eb05003f 	cmp	x1, x5
    1f3c:	54002241 	b.ne	2384 <kprintf.constprop.0+0xb8c>  // b.any
/home/jayanth/quemu-v8/source/optee_os/lib/libutils/ext/snprintk.c:611
    1f40:	3617c8b5 	tbz	w21, #2, 1854 <kprintf.constprop.0+0x5c>
/home/jayanth/quemu-v8/source/optee_os/lib/libutils/ext/snprintk.c:612
    1f44:	4b04014a 	sub	w10, w10, w4
/home/jayanth/quemu-v8/source/optee_os/lib/libutils/ext/snprintk.c:614
    1f48:	52800400 	mov	w0, #0x20                  	// #32
/home/jayanth/quemu-v8/source/optee_os/lib/libutils/ext/snprintk.c:613
    1f4c:	7100015f 	cmp	w10, #0x0
    1f50:	54ffc82d 	b.le	1854 <kprintf.constprop.0+0x5c>
/home/jayanth/quemu-v8/source/optee_os/lib/libutils/ext/snprintk.c:614
    1f54:	b40000b6 	cbz	x22, 1f68 <kprintf.constprop.0+0x770>
    1f58:	f100011f 	cmp	x8, #0x0
    1f5c:	fa561302 	ccmp	x24, x22, #0x2, ne  // ne = any
    1f60:	54000049 	b.ls	1f68 <kprintf.constprop.0+0x770>  // b.plast
    1f64:	380016c0 	strb	w0, [x22], #1
    1f68:	5100054a 	sub	w10, w10, #0x1
    1f6c:	17fffff8 	b	1f4c <kprintf.constprop.0+0x754>
/home/jayanth/quemu-v8/source/optee_os/lib/libutils/ext/snprintk.c:427
    1f70:	11002094 	add	w20, w4, #0x8
    1f74:	7100029f 	cmp	w20, #0x0
    1f78:	5400008d 	b.le	1f88 <kprintf.constprop.0+0x790>
    1f7c:	91003c73 	add	x19, x3, #0xf
    1f80:	927df273 	and	x19, x19, #0xfffffffffffffff8
    1f84:	17ffffac 	b	1e34 <kprintf.constprop.0+0x63c>
    1f88:	aa0303f3 	mov	x19, x3
    1f8c:	8b24c343 	add	x3, x26, w4, sxtw
    1f90:	17ffffa9 	b	1e34 <kprintf.constprop.0+0x63c>
/home/jayanth/quemu-v8/source/optee_os/lib/libutils/ext/snprintk.c:441
    1f94:	37f801e4 	tbnz	w4, #31, 1fd0 <kprintf.constprop.0+0x7d8>
    1f98:	91003c73 	add	x19, x3, #0xf
    1f9c:	2a0403f4 	mov	w20, w4
    1fa0:	927df273 	and	x19, x19, #0xfffffffffffffff8
/home/jayanth/quemu-v8/source/optee_os/lib/libutils/ext/snprintk.c:443
    1fa4:	d0000057 	adrp	x23, b000 <__text_end+0x1788>
    1fa8:	911f3af7 	add	x23, x23, #0x7ce
/home/jayanth/quemu-v8/source/optee_os/lib/libutils/ext/snprintk.c:441
    1fac:	f9400062 	ldr	x2, [x3]
/home/jayanth/quemu-v8/source/optee_os/lib/libutils/ext/snprintk.c:444
    1fb0:	321f02b5 	orr	w21, w21, #0x2
/home/jayanth/quemu-v8/source/optee_os/lib/libutils/ext/snprintk.c:443
    1fb4:	910046f7 	add	x23, x23, #0x11
/home/jayanth/quemu-v8/source/optee_os/lib/libutils/ext/snprintk.c:445
    1fb8:	52800f1c 	mov	w28, #0x78                  	// #120
/home/jayanth/quemu-v8/source/optee_os/lib/libutils/ext/snprintk.c:494
    1fbc:	310004bf 	cmn	w5, #0x1
    1fc0:	52800001 	mov	w1, #0x0                   	// #0
    1fc4:	54ffdbc0 	b.eq	1b3c <kprintf.constprop.0+0x344>  // b.none
    1fc8:	52800040 	mov	w0, #0x2                   	// #2
    1fcc:	140000a8 	b	226c <kprintf.constprop.0+0xa74>
/home/jayanth/quemu-v8/source/optee_os/lib/libutils/ext/snprintk.c:441
    1fd0:	11002094 	add	w20, w4, #0x8
    1fd4:	7100029f 	cmp	w20, #0x0
    1fd8:	5400008d 	b.le	1fe8 <kprintf.constprop.0+0x7f0>
    1fdc:	91003c73 	add	x19, x3, #0xf
    1fe0:	927df273 	and	x19, x19, #0xfffffffffffffff8
    1fe4:	17fffff0 	b	1fa4 <kprintf.constprop.0+0x7ac>
    1fe8:	aa0303f3 	mov	x19, x3
    1fec:	8b24c343 	add	x3, x26, w4, sxtw
    1ff0:	17ffffed 	b	1fa4 <kprintf.constprop.0+0x7ac>
/home/jayanth/quemu-v8/source/optee_os/lib/libutils/ext/snprintk.c:448
    1ff4:	37f80364 	tbnz	w4, #31, 2060 <kprintf.constprop.0+0x868>
    1ff8:	91003c73 	add	x19, x3, #0xf
    1ffc:	2a0403f4 	mov	w20, w4
    2000:	927df273 	and	x19, x19, #0xfffffffffffffff8
    2004:	f9400063 	ldr	x3, [x3]
    2008:	b5000063 	cbnz	x3, 2014 <kprintf.constprop.0+0x81c>
/home/jayanth/quemu-v8/source/optee_os/lib/libutils/ext/snprintk.c:450
    200c:	d0000043 	adrp	x3, c000 <__func__.4194+0x3e3>
    2010:	91022c63 	add	x3, x3, #0x8b
/home/jayanth/quemu-v8/source/optee_os/lib/libutils/ext/snprintk.c:451
    2014:	310004bf 	cmn	w5, #0x1
    2018:	54000360 	b.eq	2084 <kprintf.constprop.0+0x88c>  // b.none
/home/jayanth/quemu-v8/source/optee_os/lib/libutils/ext/snprintk.c:457
    201c:	93407ca2 	sxtw	x2, w5
    2020:	aa0303e0 	mov	x0, x3
    2024:	52800001 	mov	w1, #0x0                   	// #0
    2028:	f9004fe3 	str	x3, [sp, #152]
    202c:	2914abe5 	stp	w5, w10, [sp, #164]
    2030:	a90b33e8 	stp	x8, x12, [sp, #176]
    2034:	940000ef 	bl	23f0 <memchr>
/home/jayanth/quemu-v8/source/optee_os/lib/libutils/ext/snprintk.c:459
    2038:	2954abe5 	ldp	w5, w10, [sp, #164]
    203c:	f9404fe3 	ldr	x3, [sp, #152]
    2040:	a94b33e8 	ldp	x8, x12, [sp, #176]
    2044:	b4000080 	cbz	x0, 2054 <kprintf.constprop.0+0x85c>
/home/jayanth/quemu-v8/source/optee_os/lib/libutils/ext/snprintk.c:460
    2048:	cb030000 	sub	x0, x0, x3
    204c:	6b0000bf 	cmp	w5, w0
    2050:	1a80d0a5 	csel	w5, w5, w0, le
/home/jayanth/quemu-v8/source/optee_os/lib/libutils/ext/snprintk.c:291
    2054:	52800006 	mov	w6, #0x0                   	// #0
/home/jayanth/quemu-v8/source/optee_os/lib/libutils/ext/snprintk.c:467
    2058:	52800001 	mov	w1, #0x0                   	// #0
    205c:	17ffff97 	b	1eb8 <kprintf.constprop.0+0x6c0>
/home/jayanth/quemu-v8/source/optee_os/lib/libutils/ext/snprintk.c:448
    2060:	11002094 	add	w20, w4, #0x8
    2064:	7100029f 	cmp	w20, #0x0
    2068:	5400008d 	b.le	2078 <kprintf.constprop.0+0x880>
    206c:	91003c73 	add	x19, x3, #0xf
    2070:	927df273 	and	x19, x19, #0xfffffffffffffff8
    2074:	17ffffe4 	b	2004 <kprintf.constprop.0+0x80c>
    2078:	aa0303f3 	mov	x19, x3
    207c:	8b24c343 	add	x3, x26, w4, sxtw
    2080:	17ffffe1 	b	2004 <kprintf.constprop.0+0x80c>
/home/jayanth/quemu-v8/source/optee_os/lib/libutils/ext/snprintk.c:466
    2084:	aa0303e0 	mov	x0, x3
    2088:	f9004fe3 	str	x3, [sp, #152]
    208c:	b900a7ea 	str	w10, [sp, #164]
    2090:	a90ab3e8 	stp	x8, x12, [sp, #168]
    2094:	97fffcd8 	bl	13f4 <strlen>
    2098:	b940a7ea 	ldr	w10, [sp, #164]
    209c:	2a0003e5 	mov	w5, w0
/home/jayanth/quemu-v8/source/optee_os/lib/libutils/ext/snprintk.c:291
    20a0:	52800006 	mov	w6, #0x0                   	// #0
/home/jayanth/quemu-v8/source/optee_os/lib/libutils/ext/snprintk.c:467
    20a4:	52800001 	mov	w1, #0x0                   	// #0
    20a8:	f9404fe3 	ldr	x3, [sp, #152]
    20ac:	a94ab3e8 	ldp	x8, x12, [sp, #168]
    20b0:	17ffff82 	b	1eb8 <kprintf.constprop.0+0x6c0>
/home/jayanth/quemu-v8/source/optee_os/lib/libutils/ext/snprintk.c:470
    20b4:	321c02b5 	orr	w21, w21, #0x10
/home/jayanth/quemu-v8/source/optee_os/lib/libutils/ext/snprintk.c:473
    20b8:	36380235 	tbz	w21, #7, 20fc <kprintf.constprop.0+0x904>
    20bc:	37f80364 	tbnz	w4, #31, 2128 <kprintf.constprop.0+0x930>
    20c0:	91003c73 	add	x19, x3, #0xf
    20c4:	2a0403f4 	mov	w20, w4
    20c8:	927df273 	and	x19, x19, #0xfffffffffffffff8
    20cc:	f9400062 	ldr	x2, [x3]
/home/jayanth/quemu-v8/source/optee_os/lib/libutils/ext/snprintk.c:488
    20d0:	52800001 	mov	w1, #0x0                   	// #0
/home/jayanth/quemu-v8/source/optee_os/lib/libutils/ext/snprintk.c:494
    20d4:	310004bf 	cmn	w5, #0x1
    20d8:	54000d81 	b.ne	2288 <kprintf.constprop.0+0xa90>  // b.any
/home/jayanth/quemu-v8/source/optee_os/lib/libutils/ext/snprintk.c:502
    20dc:	91009580 	add	x0, x12, #0x25
/home/jayanth/quemu-v8/source/optee_os/lib/libutils/ext/snprintk.c:523
    20e0:	d2800144 	mov	x4, #0xa                   	// #10
/home/jayanth/quemu-v8/source/optee_os/lib/libutils/ext/snprintk.c:522
    20e4:	d1000403 	sub	x3, x0, #0x1
    20e8:	f100245f 	cmp	x2, #0x9
    20ec:	54000d28 	b.hi	2290 <kprintf.constprop.0+0xa98>  // b.pmore
/home/jayanth/quemu-v8/source/optee_os/lib/libutils/ext/snprintk.c:526
    20f0:	1100c042 	add	w2, w2, #0x30
    20f4:	381ff002 	sturb	w2, [x0, #-1]
/home/jayanth/quemu-v8/source/optee_os/lib/libutils/ext/snprintk.c:527
    20f8:	17ffff12 	b	1d40 <kprintf.constprop.0+0x548>
/home/jayanth/quemu-v8/source/optee_os/lib/libutils/ext/snprintk.c:473
    20fc:	3747fe15 	tbnz	w21, #8, 20bc <kprintf.constprop.0+0x8c4>
    2100:	374ffdf5 	tbnz	w21, #9, 20bc <kprintf.constprop.0+0x8c4>
    2104:	372ffdd5 	tbnz	w21, #5, 20bc <kprintf.constprop.0+0x8c4>
    2108:	3727fdb5 	tbnz	w21, #4, 20bc <kprintf.constprop.0+0x8c4>
    210c:	36300335 	tbz	w21, #6, 2170 <kprintf.constprop.0+0x978>
    2110:	37f801e4 	tbnz	w4, #31, 214c <kprintf.constprop.0+0x954>
    2114:	91002c73 	add	x19, x3, #0xb
    2118:	2a0403f4 	mov	w20, w4
    211c:	927df273 	and	x19, x19, #0xfffffffffffffff8
    2120:	79400062 	ldrh	w2, [x3]
    2124:	17ffffeb 	b	20d0 <kprintf.constprop.0+0x8d8>
    2128:	11002094 	add	w20, w4, #0x8
    212c:	7100029f 	cmp	w20, #0x0
    2130:	5400008d 	b.le	2140 <kprintf.constprop.0+0x948>
    2134:	91003c73 	add	x19, x3, #0xf
    2138:	927df273 	and	x19, x19, #0xfffffffffffffff8
    213c:	17ffffe4 	b	20cc <kprintf.constprop.0+0x8d4>
    2140:	aa0303f3 	mov	x19, x3
    2144:	8b24c343 	add	x3, x26, w4, sxtw
    2148:	17ffffe1 	b	20cc <kprintf.constprop.0+0x8d4>
    214c:	11002094 	add	w20, w4, #0x8
    2150:	7100029f 	cmp	w20, #0x0
    2154:	5400008d 	b.le	2164 <kprintf.constprop.0+0x96c>
    2158:	91002c73 	add	x19, x3, #0xb
    215c:	927df273 	and	x19, x19, #0xfffffffffffffff8
    2160:	17fffff0 	b	2120 <kprintf.constprop.0+0x928>
    2164:	aa0303f3 	mov	x19, x3
    2168:	8b24c343 	add	x3, x26, w4, sxtw
    216c:	17ffffed 	b	2120 <kprintf.constprop.0+0x928>
    2170:	37f800c4 	tbnz	w4, #31, 2188 <kprintf.constprop.0+0x990>
    2174:	91002c73 	add	x19, x3, #0xb
    2178:	2a0403f4 	mov	w20, w4
    217c:	927df273 	and	x19, x19, #0xfffffffffffffff8
    2180:	b9400062 	ldr	w2, [x3]
    2184:	17ffffd3 	b	20d0 <kprintf.constprop.0+0x8d8>
    2188:	11002094 	add	w20, w4, #0x8
    218c:	7100029f 	cmp	w20, #0x0
    2190:	5400008d 	b.le	21a0 <kprintf.constprop.0+0x9a8>
    2194:	91002c73 	add	x19, x3, #0xb
    2198:	927df273 	and	x19, x19, #0xfffffffffffffff8
    219c:	17fffff9 	b	2180 <kprintf.constprop.0+0x988>
    21a0:	aa0303f3 	mov	x19, x3
    21a4:	8b24c343 	add	x3, x26, w4, sxtw
    21a8:	17fffff6 	b	2180 <kprintf.constprop.0+0x988>
/home/jayanth/quemu-v8/source/optee_os/lib/libutils/ext/snprintk.c:477
    21ac:	b0000057 	adrp	x23, b000 <__text_end+0x1788>
    21b0:	911f3af7 	add	x23, x23, #0x7ce
    21b4:	17fffdd9 	b	1918 <kprintf.constprop.0+0x120>
/home/jayanth/quemu-v8/source/optee_os/lib/libutils/ext/snprintk.c:481
    21b8:	3747bb35 	tbnz	w21, #8, 191c <kprintf.constprop.0+0x124>
    21bc:	374fbb15 	tbnz	w21, #9, 191c <kprintf.constprop.0+0x124>
    21c0:	372fbaf5 	tbnz	w21, #5, 191c <kprintf.constprop.0+0x124>
    21c4:	3727bad5 	tbnz	w21, #4, 191c <kprintf.constprop.0+0x124>
    21c8:	36300335 	tbz	w21, #6, 222c <kprintf.constprop.0+0xa34>
    21cc:	37f801e4 	tbnz	w4, #31, 2208 <kprintf.constprop.0+0xa10>
    21d0:	91002c73 	add	x19, x3, #0xb
    21d4:	2a0403f4 	mov	w20, w4
    21d8:	927df273 	and	x19, x19, #0xfffffffffffffff8
    21dc:	79400062 	ldrh	w2, [x3]
    21e0:	17fffdd4 	b	1930 <kprintf.constprop.0+0x138>
    21e4:	11002094 	add	w20, w4, #0x8
    21e8:	7100029f 	cmp	w20, #0x0
    21ec:	5400008d 	b.le	21fc <kprintf.constprop.0+0xa04>
    21f0:	91003c73 	add	x19, x3, #0xf
    21f4:	927df273 	and	x19, x19, #0xfffffffffffffff8
    21f8:	17fffdcd 	b	192c <kprintf.constprop.0+0x134>
    21fc:	aa0303f3 	mov	x19, x3
    2200:	8b24c343 	add	x3, x26, w4, sxtw
    2204:	17fffdca 	b	192c <kprintf.constprop.0+0x134>
    2208:	11002094 	add	w20, w4, #0x8
    220c:	7100029f 	cmp	w20, #0x0
    2210:	5400008d 	b.le	2220 <kprintf.constprop.0+0xa28>
    2214:	91002c73 	add	x19, x3, #0xb
    2218:	927df273 	and	x19, x19, #0xfffffffffffffff8
    221c:	17fffff0 	b	21dc <kprintf.constprop.0+0x9e4>
    2220:	aa0303f3 	mov	x19, x3
    2224:	8b24c343 	add	x3, x26, w4, sxtw
    2228:	17ffffed 	b	21dc <kprintf.constprop.0+0x9e4>
    222c:	37f800c4 	tbnz	w4, #31, 2244 <kprintf.constprop.0+0xa4c>
    2230:	91002c73 	add	x19, x3, #0xb
    2234:	2a0403f4 	mov	w20, w4
    2238:	927df273 	and	x19, x19, #0xfffffffffffffff8
    223c:	b9400062 	ldr	w2, [x3]
    2240:	17fffdbc 	b	1930 <kprintf.constprop.0+0x138>
    2244:	11002094 	add	w20, w4, #0x8
    2248:	7100029f 	cmp	w20, #0x0
    224c:	5400008d 	b.le	225c <kprintf.constprop.0+0xa64>
    2250:	91002c73 	add	x19, x3, #0xb
    2254:	927df273 	and	x19, x19, #0xfffffffffffffff8
    2258:	17fffff9 	b	223c <kprintf.constprop.0+0xa44>
    225c:	aa0303f3 	mov	x19, x3
    2260:	8b24c343 	add	x3, x26, w4, sxtw
    2264:	17fffff6 	b	223c <kprintf.constprop.0+0xa44>
/home/jayanth/quemu-v8/source/optee_os/lib/libutils/ext/snprintk.c:494
    2268:	52800000 	mov	w0, #0x0                   	// #0
/home/jayanth/quemu-v8/source/optee_os/lib/libutils/ext/snprintk.c:503
    226c:	f100005f 	cmp	x2, #0x0
/home/jayanth/quemu-v8/source/optee_os/lib/libutils/ext/snprintk.c:495
    2270:	12157ab5 	and	w21, w21, #0xfffffbff
/home/jayanth/quemu-v8/source/optee_os/lib/libutils/ext/snprintk.c:503
    2274:	7a4008a0 	ccmp	w5, #0x0, #0x0, eq  // eq = none
    2278:	54ffc5a1 	b.ne	1b2c <kprintf.constprop.0+0x334>  // b.any
/home/jayanth/quemu-v8/source/optee_os/lib/libutils/ext/snprintk.c:502
    227c:	91009583 	add	x3, x12, #0x25
/home/jayanth/quemu-v8/source/optee_os/lib/libutils/ext/snprintk.c:542
    2280:	52800005 	mov	w5, #0x0                   	// #0
    2284:	17fffeaf 	b	1d40 <kprintf.constprop.0+0x548>
/home/jayanth/quemu-v8/source/optee_os/lib/libutils/ext/snprintk.c:494
    2288:	52800020 	mov	w0, #0x1                   	// #1
    228c:	17fffff8 	b	226c <kprintf.constprop.0+0xa74>
/home/jayanth/quemu-v8/source/optee_os/lib/libutils/ext/snprintk.c:523
    2290:	9ac40846 	udiv	x6, x2, x4
    2294:	9b0488c2 	msub	x2, x6, x4, x2
    2298:	1100c042 	add	w2, w2, #0x30
    229c:	381ff002 	sturb	w2, [x0, #-1]
/home/jayanth/quemu-v8/source/optee_os/lib/libutils/ext/snprintk.c:524
    22a0:	aa0603e2 	mov	x2, x6
    22a4:	aa0303e0 	mov	x0, x3
    22a8:	17ffff8f 	b	20e4 <kprintf.constprop.0+0x8ec>
/home/jayanth/quemu-v8/source/optee_os/lib/libutils/ext/snprintk.c:547
    22ac:	35ffb55c 	cbnz	w28, 1954 <kprintf.constprop.0+0x15c>
/home/jayanth/quemu-v8/source/optee_os/lib/libutils/ext/snprintk.c:619
    22b0:	b4000048 	cbz	x8, 22b8 <kprintf.constprop.0+0xac0>
/home/jayanth/quemu-v8/source/optee_os/lib/libutils/ext/snprintk.c:620
    22b4:	f9000116 	str	x22, [x8]
/home/jayanth/quemu-v8/source/optee_os/lib/libutils/ext/snprintk.c:622
    22b8:	2a1903e0 	mov	w0, w25
    22bc:	a9437bfd 	ldp	x29, x30, [sp, #48]
    22c0:	a94453f3 	ldp	x19, x20, [sp, #64]
    22c4:	a9455bf5 	ldp	x21, x22, [sp, #80]
    22c8:	a94663f7 	ldp	x23, x24, [sp, #96]
    22cc:	a9476bf9 	ldp	x25, x26, [sp, #112]
    22d0:	a94873fb 	ldp	x27, x28, [sp, #128]
    22d4:	9103c3ff 	add	sp, sp, #0xf0
    22d8:	d65f03c0 	ret
/home/jayanth/quemu-v8/source/optee_os/lib/libutils/ext/snprintk.c:574
    22dc:	360fdf75 	tbz	w21, #1, 1ec8 <kprintf.constprop.0+0x6d0>
/home/jayanth/quemu-v8/source/optee_os/lib/libutils/ext/snprintk.c:575
    22e0:	11000884 	add	w4, w4, #0x2
    22e4:	17fffef9 	b	1ec8 <kprintf.constprop.0+0x6d0>
/home/jayanth/quemu-v8/source/optee_os/lib/libutils/ext/snprintk.c:584
    22e8:	b40000b6 	cbz	x22, 22fc <kprintf.constprop.0+0xb04>
    22ec:	f100011f 	cmp	x8, #0x0
    22f0:	fa561302 	ccmp	x24, x22, #0x2, ne  // ne = any
    22f4:	54000049 	b.ls	22fc <kprintf.constprop.0+0xb04>  // b.plast
    22f8:	380016c2 	strb	w2, [x22], #1
    22fc:	510004e7 	sub	w7, w7, #0x1
    2300:	17fffefa 	b	1ee8 <kprintf.constprop.0+0x6f0>
/home/jayanth/quemu-v8/source/optee_os/lib/libutils/ext/snprintk.c:590
    2304:	360fe035 	tbz	w21, #1, 1f08 <kprintf.constprop.0+0x710>
/home/jayanth/quemu-v8/source/optee_os/lib/libutils/ext/snprintk.c:591
    2308:	b4ffe016 	cbz	x22, 1f08 <kprintf.constprop.0+0x710>
    230c:	f100011f 	cmp	x8, #0x0
    2310:	1a9f17e2 	cset	w2, eq  // eq = none
    2314:	7100005f 	cmp	w2, #0x0
    2318:	fa560302 	ccmp	x24, x22, #0x2, eq  // eq = none
    231c:	54ffdf69 	b.ls	1f08 <kprintf.constprop.0+0x710>  // b.plast
    2320:	aa1603e1 	mov	x1, x22
    2324:	52800607 	mov	w7, #0x30                  	// #48
/home/jayanth/quemu-v8/source/optee_os/lib/libutils/ext/snprintk.c:592
    2328:	7100005f 	cmp	w2, #0x0
/home/jayanth/quemu-v8/source/optee_os/lib/libutils/ext/snprintk.c:591
    232c:	38001427 	strb	w7, [x1], #1
/home/jayanth/quemu-v8/source/optee_os/lib/libutils/ext/snprintk.c:592
    2330:	fa410302 	ccmp	x24, x1, #0x2, eq  // eq = none
    2334:	54000089 	b.ls	2344 <kprintf.constprop.0+0xb4c>  // b.plast
    2338:	91000ad6 	add	x22, x22, #0x2
    233c:	381ff2dc 	sturb	w28, [x22, #-1]
    2340:	17fffef2 	b	1f08 <kprintf.constprop.0+0x710>
    2344:	aa0103f6 	mov	x22, x1
    2348:	17fffef0 	b	1f08 <kprintf.constprop.0+0x710>
/home/jayanth/quemu-v8/source/optee_os/lib/libutils/ext/snprintk.c:599
    234c:	b40000b6 	cbz	x22, 2360 <kprintf.constprop.0+0xb68>
    2350:	f100011f 	cmp	x8, #0x0
    2354:	fa561302 	ccmp	x24, x22, #0x2, ne  // ne = any
    2358:	54000049 	b.ls	2360 <kprintf.constprop.0+0xb68>  // b.plast
    235c:	380016c1 	strb	w1, [x22], #1
    2360:	51000400 	sub	w0, w0, #0x1
    2364:	17fffeed 	b	1f18 <kprintf.constprop.0+0x720>
/home/jayanth/quemu-v8/source/optee_os/lib/libutils/ext/snprintk.c:605
    2368:	b40000b6 	cbz	x22, 237c <kprintf.constprop.0+0xb84>
    236c:	f100011f 	cmp	x8, #0x0
    2370:	fa561302 	ccmp	x24, x22, #0x2, ne  // ne = any
    2374:	54000049 	b.ls	237c <kprintf.constprop.0+0xb84>  // b.plast
    2378:	380016c0 	strb	w0, [x22], #1
    237c:	510004c6 	sub	w6, w6, #0x1
    2380:	17fffeea 	b	1f28 <kprintf.constprop.0+0x730>
/home/jayanth/quemu-v8/source/optee_os/lib/libutils/ext/snprintk.c:609
    2384:	b40000d6 	cbz	x22, 239c <kprintf.constprop.0+0xba4>
    2388:	f100011f 	cmp	x8, #0x0
    238c:	fa561302 	ccmp	x24, x22, #0x2, ne  // ne = any
    2390:	54000069 	b.ls	239c <kprintf.constprop.0+0xba4>  // b.plast
    2394:	38616860 	ldrb	w0, [x3, x1]
    2398:	380016c0 	strb	w0, [x22], #1
/home/jayanth/quemu-v8/source/optee_os/lib/libutils/ext/snprintk.c:608
    239c:	91000421 	add	x1, x1, #0x1
    23a0:	17fffee6 	b	1f38 <kprintf.constprop.0+0x740>

00000000000023a4 <__vsprintf>:
__vsprintf():
/home/jayanth/quemu-v8/source/optee_os/lib/libutils/ext/snprintk.c:155
    23a4:	a9bc7bfd 	stp	x29, x30, [sp, #-64]!
/home/jayanth/quemu-v8/source/optee_os/lib/libutils/ext/snprintk.c:156
    23a8:	910083e3 	add	x3, sp, #0x20
/home/jayanth/quemu-v8/source/optee_os/lib/libutils/ext/snprintk.c:155
    23ac:	910003fd 	mov	x29, sp
    23b0:	a90153f3 	stp	x19, x20, [sp, #16]
    23b4:	aa0003f4 	mov	x20, x0
    23b8:	aa0103f3 	mov	x19, x1
/home/jayanth/quemu-v8/source/optee_os/lib/libutils/ext/snprintk.c:156
    23bc:	aa0303e0 	mov	x0, x3
/home/jayanth/quemu-v8/source/optee_os/lib/libutils/ext/snprintk.c:155
    23c0:	aa0203e1 	mov	x1, x2
/home/jayanth/quemu-v8/source/optee_os/lib/libutils/ext/snprintk.c:156
    23c4:	d2800402 	mov	x2, #0x20                  	// #32
    23c8:	97fff716 	bl	20 <memcpy>
    23cc:	aa1403e2 	mov	x2, x20
    23d0:	aa0003e3 	mov	x3, x0
    23d4:	52800004 	mov	w4, #0x0                   	// #0
    23d8:	aa1303e0 	mov	x0, x19
    23dc:	d2800001 	mov	x1, #0x0                   	// #0
    23e0:	97fffd06 	bl	17f8 <kprintf.constprop.0>
/home/jayanth/quemu-v8/source/optee_os/lib/libutils/ext/snprintk.c:157
    23e4:	a94153f3 	ldp	x19, x20, [sp, #16]
    23e8:	a8c47bfd 	ldp	x29, x30, [sp], #64
    23ec:	d65f03c0 	ret

00000000000023f0 <memchr>:
memchr():
/home/jayanth/quemu-v8/source/optee_os/lib/libutils/isoc/newlib/memchr.c:109
    23f0:	12001c21 	and	w1, w1, #0xff
/home/jayanth/quemu-v8/source/optee_os/lib/libutils/isoc/newlib/memchr.c:153
    23f4:	8b020002 	add	x2, x0, x2
    23f8:	eb02001f 	cmp	x0, x2
    23fc:	54000061 	b.ne	2408 <memchr+0x18>  // b.any
/home/jayanth/quemu-v8/source/optee_os/lib/libutils/isoc/newlib/memchr.c:159
    2400:	d2800000 	mov	x0, #0x0                   	// #0
/home/jayanth/quemu-v8/source/optee_os/lib/libutils/isoc/newlib/memchr.c:160
    2404:	d65f03c0 	ret
/home/jayanth/quemu-v8/source/optee_os/lib/libutils/isoc/newlib/memchr.c:154
    2408:	39400003 	ldrb	w3, [x0]
    240c:	6b01007f 	cmp	w3, w1
    2410:	54ffffa0 	b.eq	2404 <memchr+0x14>  // b.none
/home/jayanth/quemu-v8/source/optee_os/lib/libutils/isoc/newlib/memchr.c:156
    2414:	91000400 	add	x0, x0, #0x1
    2418:	17fffff8 	b	23f8 <memchr+0x8>

000000000000241c <_assert_log>:
_assert_log():
/home/jayanth/quemu-v8/source/optee_os/lib/libutee/assert.c:17
    241c:	d10083ff 	sub	sp, sp, #0x20
/home/jayanth/quemu-v8/source/optee_os/lib/libutee/assert.c:18
    2420:	2a0203e7 	mov	w7, w2
    2424:	aa0103e6 	mov	x6, x1
    2428:	aa0003e5 	mov	x5, x0
    242c:	52800022 	mov	w2, #0x1                   	// #1
    2430:	52800001 	mov	w1, #0x0                   	// #0
/home/jayanth/quemu-v8/source/optee_os/lib/libutee/assert.c:17
    2434:	a9017bfd 	stp	x29, x30, [sp, #16]
    2438:	910043fd 	add	x29, sp, #0x10
/home/jayanth/quemu-v8/source/optee_os/lib/libutee/assert.c:18
    243c:	d2800000 	mov	x0, #0x0                   	// #0
    2440:	d0000044 	adrp	x4, c000 <__func__.4194+0x3e3>
    2444:	f90003e3 	str	x3, [sp]
    2448:	91030c84 	add	x4, x4, #0xc3
    244c:	52800023 	mov	w3, #0x1                   	// #1
    2450:	97fffc77 	bl	162c <trace_printf>
/home/jayanth/quemu-v8/source/optee_os/lib/libutee/assert.c:20
    2454:	a9417bfd 	ldp	x29, x30, [sp, #16]
    2458:	910083ff 	add	sp, sp, #0x20
    245c:	d65f03c0 	ret

0000000000002460 <_assert_break>:
_assert_break():
/home/jayanth/quemu-v8/source/optee_os/lib/libutee/assert.c:23
    2460:	a9bf7bfd 	stp	x29, x30, [sp, #-16]!
/home/jayanth/quemu-v8/source/optee_os/lib/libutee/assert.c:24
    2464:	d2bfffe0 	mov	x0, #0xffff0000            	// #4294901760
/home/jayanth/quemu-v8/source/optee_os/lib/libutee/assert.c:23
    2468:	910003fd 	mov	x29, sp
/home/jayanth/quemu-v8/source/optee_os/lib/libutee/assert.c:24
    246c:	94000360 	bl	31ec <_utee_panic>
/home/jayanth/quemu-v8/source/optee_os/lib/libutee/assert.c:26 (discriminator 1)
    2470:	14000000 	b	2470 <_assert_break+0x10>

0000000000002474 <parse_hex>:
parse_hex():
/home/jayanth/quemu-v8/source/optee_os/lib/libutee/tee_uuid_from_str.c:24
    2474:	a9bc7bfd 	stp	x29, x30, [sp, #-64]!
    2478:	910003fd 	mov	x29, sp
    247c:	a90153f3 	stp	x19, x20, [sp, #16]
    2480:	aa0003f3 	mov	x19, x0
    2484:	a9025bf5 	stp	x21, x22, [sp, #32]
    2488:	aa0203f5 	mov	x21, x2
/home/jayanth/quemu-v8/source/optee_os/lib/libutee/tee_uuid_from_str.c:25
    248c:	52800016 	mov	w22, #0x0                   	// #0
/home/jayanth/quemu-v8/source/optee_os/lib/libutee/tee_uuid_from_str.c:24
    2490:	f9001bf7 	str	x23, [sp, #48]
    2494:	8b010017 	add	x23, x0, x1
hex():
/home/jayanth/quemu-v8/source/optee_os/lib/libutee/tee_uuid_from_str.c:14
    2498:	39400260 	ldrb	w0, [x19]
    249c:	94001c4b 	bl	95c8 <tolower>
/home/jayanth/quemu-v8/source/optee_os/lib/libutee/tee_uuid_from_str.c:16
    24a0:	12001c14 	and	w20, w0, #0xff
    24a4:	5100c280 	sub	w0, w20, #0x30
    24a8:	7100241f 	cmp	w0, #0x9
    24ac:	540001e9 	b.ls	24e8 <parse_hex+0x74>  // b.plast
/home/jayanth/quemu-v8/source/optee_os/lib/libutee/tee_uuid_from_str.c:18
    24b0:	2a1403e0 	mov	w0, w20
    24b4:	94001c07 	bl	94d0 <isxdigit>
    24b8:	35000120 	cbnz	w0, 24dc <parse_hex+0x68>
parse_hex():
/home/jayanth/quemu-v8/source/optee_os/lib/libutee/tee_uuid_from_str.c:32
    24bc:	129fff40 	mov	w0, #0xffff0005            	// #-65531
    24c0:	b90002a0 	str	w0, [x21]
/home/jayanth/quemu-v8/source/optee_os/lib/libutee/tee_uuid_from_str.c:40
    24c4:	2a1603e0 	mov	w0, w22
    24c8:	a94153f3 	ldp	x19, x20, [sp, #16]
    24cc:	a9425bf5 	ldp	x21, x22, [sp, #32]
    24d0:	f9401bf7 	ldr	x23, [sp, #48]
    24d4:	a8c47bfd 	ldp	x29, x30, [sp], #64
    24d8:	d65f03c0 	ret
hex():
/home/jayanth/quemu-v8/source/optee_os/lib/libutee/tee_uuid_from_str.c:19
    24dc:	51015e80 	sub	w0, w20, #0x57
parse_hex():
/home/jayanth/quemu-v8/source/optee_os/lib/libutee/tee_uuid_from_str.c:31
    24e0:	71015a9f 	cmp	w20, #0x56
    24e4:	54fffec0 	b.eq	24bc <parse_hex+0x48>  // b.none
/home/jayanth/quemu-v8/source/optee_os/lib/libutee/tee_uuid_from_str.c:35 (discriminator 2)
    24e8:	91000673 	add	x19, x19, #0x1
    24ec:	0b161016 	add	w22, w0, w22, lsl #4
/home/jayanth/quemu-v8/source/optee_os/lib/libutee/tee_uuid_from_str.c:29 (discriminator 2)
    24f0:	eb1302ff 	cmp	x23, x19
    24f4:	54fffd21 	b.ne	2498 <parse_hex+0x24>  // b.any
/home/jayanth/quemu-v8/source/optee_os/lib/libutee/tee_uuid_from_str.c:37
    24f8:	b90002bf 	str	wzr, [x21]
/home/jayanth/quemu-v8/source/optee_os/lib/libutee/tee_uuid_from_str.c:39
    24fc:	17fffff2 	b	24c4 <parse_hex+0x50>

0000000000002500 <tee_uuid_from_str>:
tee_uuid_from_str():
/home/jayanth/quemu-v8/source/optee_os/lib/libutee/tee_uuid_from_str.c:43
    2500:	a9b97bfd 	stp	x29, x30, [sp, #-112]!
    2504:	910003fd 	mov	x29, sp
    2508:	a90153f3 	stp	x19, x20, [sp, #16]
    250c:	a9025bf5 	stp	x21, x22, [sp, #32]
    2510:	a90363f7 	stp	x23, x24, [sp, #48]
    2514:	a9046bf9 	stp	x25, x26, [sp, #64]
/home/jayanth/quemu-v8/source/optee_os/lib/libutee/tee_uuid_from_str.c:44
    2518:	b9005fff 	str	wzr, [sp, #92]
/home/jayanth/quemu-v8/source/optee_os/lib/libutee/tee_uuid_from_str.c:45
    251c:	a9067fff 	stp	xzr, xzr, [sp, #96]
/home/jayanth/quemu-v8/source/optee_os/lib/libutee/tee_uuid_from_str.c:49
    2520:	b4000941 	cbz	x1, 2648 <tee_uuid_from_str+0x148>
    2524:	aa0103f3 	mov	x19, x1
    2528:	aa0003f6 	mov	x22, x0
/home/jayanth/quemu-v8/source/optee_os/lib/libutee/tee_uuid_from_str.c:49 (discriminator 1)
    252c:	d28004a1 	mov	x1, #0x25                  	// #37
    2530:	aa1303e0 	mov	x0, x19
    2534:	94001c41 	bl	9638 <strnlen>
    2538:	f100901f 	cmp	x0, #0x24
    253c:	54000861 	b.ne	2648 <tee_uuid_from_str+0x148>  // b.any
/home/jayanth/quemu-v8/source/optee_os/lib/libutee/tee_uuid_from_str.c:51
    2540:	39402260 	ldrb	w0, [x19, #8]
    2544:	7100b41f 	cmp	w0, #0x2d
    2548:	54000801 	b.ne	2648 <tee_uuid_from_str+0x148>  // b.any
/home/jayanth/quemu-v8/source/optee_os/lib/libutee/tee_uuid_from_str.c:51 (discriminator 1)
    254c:	39403660 	ldrb	w0, [x19, #13]
    2550:	7100b41f 	cmp	w0, #0x2d
    2554:	540007a1 	b.ne	2648 <tee_uuid_from_str+0x148>  // b.any
/home/jayanth/quemu-v8/source/optee_os/lib/libutee/tee_uuid_from_str.c:51 (discriminator 2)
    2558:	39404a60 	ldrb	w0, [x19, #18]
    255c:	7100b41f 	cmp	w0, #0x2d
    2560:	54000741 	b.ne	2648 <tee_uuid_from_str+0x148>  // b.any
/home/jayanth/quemu-v8/source/optee_os/lib/libutee/tee_uuid_from_str.c:51 (discriminator 3)
    2564:	39405e60 	ldrb	w0, [x19, #23]
    2568:	7100b41f 	cmp	w0, #0x2d
    256c:	540006e1 	b.ne	2648 <tee_uuid_from_str+0x148>  // b.any
/home/jayanth/quemu-v8/source/optee_os/lib/libutee/tee_uuid_from_str.c:54
    2570:	910173f5 	add	x21, sp, #0x5c
    2574:	aa1303e0 	mov	x0, x19
    2578:	aa1503e2 	mov	x2, x21
    257c:	d2800101 	mov	x1, #0x8                   	// #8
    2580:	97ffffbd 	bl	2474 <parse_hex>
    2584:	2a0003f9 	mov	w25, w0
/home/jayanth/quemu-v8/source/optee_os/lib/libutee/tee_uuid_from_str.c:55
    2588:	b9405fe0 	ldr	w0, [sp, #92]
    258c:	35000500 	cbnz	w0, 262c <tee_uuid_from_str+0x12c>
/home/jayanth/quemu-v8/source/optee_os/lib/libutee/tee_uuid_from_str.c:58
    2590:	aa1503e2 	mov	x2, x21
    2594:	91002660 	add	x0, x19, #0x9
    2598:	d2800081 	mov	x1, #0x4                   	// #4
    259c:	97ffffb6 	bl	2474 <parse_hex>
    25a0:	2a0003f8 	mov	w24, w0
/home/jayanth/quemu-v8/source/optee_os/lib/libutee/tee_uuid_from_str.c:59
    25a4:	b9405fe0 	ldr	w0, [sp, #92]
    25a8:	35000420 	cbnz	w0, 262c <tee_uuid_from_str+0x12c>
/home/jayanth/quemu-v8/source/optee_os/lib/libutee/tee_uuid_from_str.c:62
    25ac:	aa1503e2 	mov	x2, x21
    25b0:	91003a60 	add	x0, x19, #0xe
    25b4:	d2800081 	mov	x1, #0x4                   	// #4
    25b8:	97ffffaf 	bl	2474 <parse_hex>
    25bc:	2a0003f7 	mov	w23, w0
/home/jayanth/quemu-v8/source/optee_os/lib/libutee/tee_uuid_from_str.c:63
    25c0:	b9405fe0 	ldr	w0, [sp, #92]
    25c4:	35000340 	cbnz	w0, 262c <tee_uuid_from_str+0x12c>
/home/jayanth/quemu-v8/source/optee_os/lib/libutee/tee_uuid_from_str.c:65
    25c8:	91004e73 	add	x19, x19, #0x13
/home/jayanth/quemu-v8/source/optee_os/lib/libutee/tee_uuid_from_str.c:67
    25cc:	910183fa 	add	x26, sp, #0x60
/home/jayanth/quemu-v8/source/optee_os/lib/libutee/tee_uuid_from_str.c:66
    25d0:	d2800014 	mov	x20, #0x0                   	// #0
/home/jayanth/quemu-v8/source/optee_os/lib/libutee/tee_uuid_from_str.c:67
    25d4:	d2800041 	mov	x1, #0x2                   	// #2
    25d8:	aa1503e2 	mov	x2, x21
    25dc:	aa1303e0 	mov	x0, x19
    25e0:	97ffffa5 	bl	2474 <parse_hex>
    25e4:	8b1a0281 	add	x1, x20, x26
    25e8:	39002020 	strb	w0, [x1, #8]
/home/jayanth/quemu-v8/source/optee_os/lib/libutee/tee_uuid_from_str.c:68
    25ec:	b9405fe0 	ldr	w0, [sp, #92]
    25f0:	350001e0 	cbnz	w0, 262c <tee_uuid_from_str+0x12c>
/home/jayanth/quemu-v8/source/optee_os/lib/libutee/tee_uuid_from_str.c:71
    25f4:	f100069f 	cmp	x20, #0x1
    25f8:	91000e60 	add	x0, x19, #0x3
/home/jayanth/quemu-v8/source/optee_os/lib/libutee/tee_uuid_from_str.c:66
    25fc:	91000694 	add	x20, x20, #0x1
/home/jayanth/quemu-v8/source/optee_os/lib/libutee/tee_uuid_from_str.c:71
    2600:	91000a73 	add	x19, x19, #0x2
    2604:	9a801273 	csel	x19, x19, x0, ne  // ne = any
/home/jayanth/quemu-v8/source/optee_os/lib/libutee/tee_uuid_from_str.c:66
    2608:	f100229f 	cmp	x20, #0x8
    260c:	54fffe41 	b.ne	25d4 <tee_uuid_from_str+0xd4>  // b.any
/home/jayanth/quemu-v8/source/optee_os/lib/libutee/tee_uuid_from_str.c:75
    2610:	aa1a03e1 	mov	x1, x26
    2614:	aa1603e0 	mov	x0, x22
    2618:	d2800202 	mov	x2, #0x10                  	// #16
    261c:	b90063f9 	str	w25, [sp, #96]
/home/jayanth/quemu-v8/source/optee_os/lib/libutee/tee_uuid_from_str.c:58
    2620:	7900cbf8 	strh	w24, [sp, #100]
/home/jayanth/quemu-v8/source/optee_os/lib/libutee/tee_uuid_from_str.c:62
    2624:	7900cff7 	strh	w23, [sp, #102]
/home/jayanth/quemu-v8/source/optee_os/lib/libutee/tee_uuid_from_str.c:75
    2628:	97fff67e 	bl	20 <memcpy>
/home/jayanth/quemu-v8/source/optee_os/lib/libutee/tee_uuid_from_str.c:77
    262c:	b9405fe0 	ldr	w0, [sp, #92]
/home/jayanth/quemu-v8/source/optee_os/lib/libutee/tee_uuid_from_str.c:78
    2630:	a94153f3 	ldp	x19, x20, [sp, #16]
    2634:	a9425bf5 	ldp	x21, x22, [sp, #32]
    2638:	a94363f7 	ldp	x23, x24, [sp, #48]
    263c:	a9446bf9 	ldp	x25, x26, [sp, #64]
    2640:	a8c77bfd 	ldp	x29, x30, [sp], #112
    2644:	d65f03c0 	ret
/home/jayanth/quemu-v8/source/optee_os/lib/libutee/tee_uuid_from_str.c:50
    2648:	129fff40 	mov	w0, #0xffff0005            	// #-65531
    264c:	17fffff9 	b	2630 <tee_uuid_from_str+0x130>

0000000000002650 <trace_ext_puts>:
trace_ext_puts():
/home/jayanth/quemu-v8/source/optee_os/lib/libutee/trace_ext.c:22
    2650:	a9be7bfd 	stp	x29, x30, [sp, #-32]!
    2654:	910003fd 	mov	x29, sp
    2658:	f9000bf3 	str	x19, [sp, #16]
    265c:	aa0003f3 	mov	x19, x0
/home/jayanth/quemu-v8/source/optee_os/lib/libutee/trace_ext.c:26
    2660:	97fffb65 	bl	13f4 <strlen>
    2664:	aa0003e1 	mov	x1, x0
    2668:	aa1303e0 	mov	x0, x19
/home/jayanth/quemu-v8/source/optee_os/lib/libutee/trace_ext.c:28
    266c:	f9400bf3 	ldr	x19, [sp, #16]
    2670:	a8c27bfd 	ldp	x29, x30, [sp], #32
/home/jayanth/quemu-v8/source/optee_os/lib/libutee/trace_ext.c:26
    2674:	140002e4 	b	3204 <_utee_log>

0000000000002678 <trace_ext_get_thread_id>:
trace_ext_get_thread_id():
/home/jayanth/quemu-v8/source/optee_os/lib/libutee/trace_ext.c:33
    2678:	12800000 	mov	w0, #0xffffffff            	// #-1
    267c:	d65f03c0 	ret

0000000000002680 <printf>:
printf():
/home/jayanth/quemu-v8/source/optee_os/lib/libutee/trace_ext.c:41
    2680:	d10883ff 	sub	sp, sp, #0x220
    2684:	a9007bfd 	stp	x29, x30, [sp]
    2688:	910003fd 	mov	x29, sp
    268c:	a90153f3 	stp	x19, x20, [sp, #16]
    2690:	aa0003f3 	mov	x19, x0
    2694:	3d805be0 	str	q0, [sp, #352]
    2698:	3d805fe1 	str	q1, [sp, #368]
    269c:	3d8063e2 	str	q2, [sp, #384]
    26a0:	3d8067e3 	str	q3, [sp, #400]
    26a4:	3d806be4 	str	q4, [sp, #416]
    26a8:	3d806fe5 	str	q5, [sp, #432]
    26ac:	3d8073e6 	str	q6, [sp, #448]
    26b0:	3d8077e7 	str	q7, [sp, #464]
    26b4:	a91e8be1 	stp	x1, x2, [sp, #488]
    26b8:	a91f93e3 	stp	x3, x4, [sp, #504]
    26bc:	f90107e5 	str	x5, [sp, #520]
    26c0:	f9010be6 	str	x6, [sp, #528]
    26c4:	f9010fe7 	str	x7, [sp, #536]
/home/jayanth/quemu-v8/source/optee_os/lib/libutee/trace_ext.c:46
    26c8:	97fffb59 	bl	142c <trace_get_level>
    26cc:	7100001f 	cmp	w0, #0x0
    26d0:	5400038d 	b.le	2740 <printf+0xc0>
/home/jayanth/quemu-v8/source/optee_os/lib/libutee/trace_ext.c:49
    26d4:	910883e0 	add	x0, sp, #0x220
    26d8:	a90403e0 	stp	x0, x0, [sp, #64]
    26dc:	910783e0 	add	x0, sp, #0x1e0
    26e0:	f9002be0 	str	x0, [sp, #80]
    26e4:	128006e0 	mov	w0, #0xffffffc8            	// #-56
    26e8:	b9005be0 	str	w0, [sp, #88]
    26ec:	12800fe0 	mov	w0, #0xffffff80            	// #-128
    26f0:	b9005fe0 	str	w0, [sp, #92]
/home/jayanth/quemu-v8/source/optee_os/lib/libutee/trace_ext.c:50
    26f4:	910183f4 	add	x20, sp, #0x60
    26f8:	a94407e0 	ldp	x0, x1, [sp, #64]
    26fc:	a90207e0 	stp	x0, x1, [sp, #32]
    2700:	aa1303e2 	mov	x2, x19
    2704:	a94507e0 	ldp	x0, x1, [sp, #80]
    2708:	910083e3 	add	x3, sp, #0x20
    270c:	a90307e0 	stp	x0, x1, [sp, #48]
    2710:	aa1403e0 	mov	x0, x20
    2714:	d2802001 	mov	x1, #0x100                 	// #256
    2718:	94001b96 	bl	9570 <vsnprintf>
    271c:	2a0003f3 	mov	w19, w0
/home/jayanth/quemu-v8/source/optee_os/lib/libutee/trace_ext.c:53
    2720:	37f80060 	tbnz	w0, #31, 272c <printf+0xac>
/home/jayanth/quemu-v8/source/optee_os/lib/libutee/trace_ext.c:56
    2724:	aa1403e0 	mov	x0, x20
    2728:	97ffffca 	bl	2650 <trace_ext_puts>
/home/jayanth/quemu-v8/source/optee_os/lib/libutee/trace_ext.c:59
    272c:	2a1303e0 	mov	w0, w19
    2730:	a9407bfd 	ldp	x29, x30, [sp]
    2734:	a94153f3 	ldp	x19, x20, [sp, #16]
    2738:	910883ff 	add	sp, sp, #0x220
    273c:	d65f03c0 	ret
/home/jayanth/quemu-v8/source/optee_os/lib/libutee/trace_ext.c:47
    2740:	52800013 	mov	w19, #0x0                   	// #0
    2744:	17fffffa 	b	272c <printf+0xac>

0000000000002748 <puts>:
puts():
/home/jayanth/quemu-v8/source/optee_os/lib/libutee/trace_ext.c:62
    2748:	a9be7bfd 	stp	x29, x30, [sp, #-32]!
    274c:	910003fd 	mov	x29, sp
    2750:	f9000bf3 	str	x19, [sp, #16]
    2754:	aa0003f3 	mov	x19, x0
/home/jayanth/quemu-v8/source/optee_os/lib/libutee/trace_ext.c:63
    2758:	97fffb35 	bl	142c <trace_get_level>
    275c:	7100001f 	cmp	w0, #0x0
    2760:	540000cd 	b.le	2778 <puts+0x30>
/home/jayanth/quemu-v8/source/optee_os/lib/libutee/trace_ext.c:64
    2764:	aa1303e0 	mov	x0, x19
    2768:	97ffffba 	bl	2650 <trace_ext_puts>
/home/jayanth/quemu-v8/source/optee_os/lib/libutee/trace_ext.c:65
    276c:	b0000040 	adrp	x0, b000 <__text_end+0x1788>
    2770:	912dcc00 	add	x0, x0, #0xb73
    2774:	97ffffb7 	bl	2650 <trace_ext_puts>
/home/jayanth/quemu-v8/source/optee_os/lib/libutee/trace_ext.c:68
    2778:	52800020 	mov	w0, #0x1                   	// #1
    277c:	f9400bf3 	ldr	x19, [sp, #16]
    2780:	a8c27bfd 	ldp	x29, x30, [sp], #32
    2784:	d65f03c0 	ret

0000000000002788 <putchar>:
putchar():
/home/jayanth/quemu-v8/source/optee_os/lib/libutee/trace_ext.c:71
    2788:	a9bd7bfd 	stp	x29, x30, [sp, #-48]!
    278c:	910003fd 	mov	x29, sp
    2790:	f9000bf3 	str	x19, [sp, #16]
    2794:	2a0003f3 	mov	w19, w0
/home/jayanth/quemu-v8/source/optee_os/lib/libutee/trace_ext.c:72
    2798:	3900a3e0 	strb	w0, [sp, #40]
    279c:	3900a7ff 	strb	wzr, [sp, #41]
/home/jayanth/quemu-v8/source/optee_os/lib/libutee/trace_ext.c:74
    27a0:	97fffb23 	bl	142c <trace_get_level>
    27a4:	7100001f 	cmp	w0, #0x0
    27a8:	5400006d 	b.le	27b4 <putchar+0x2c>
/home/jayanth/quemu-v8/source/optee_os/lib/libutee/trace_ext.c:75
    27ac:	9100a3e0 	add	x0, sp, #0x28
    27b0:	97ffffa8 	bl	2650 <trace_ext_puts>
/home/jayanth/quemu-v8/source/optee_os/lib/libutee/trace_ext.c:82
    27b4:	12001e60 	and	w0, w19, #0xff
    27b8:	f9400bf3 	ldr	x19, [sp, #16]
    27bc:	a8c37bfd 	ldp	x29, x30, [sp], #48
    27c0:	d65f03c0 	ret

00000000000027c4 <update_out_param>:
update_out_param():
/home/jayanth/quemu-v8/source/optee_os/lib/libutee/tee_api.c:115
    27c4:	a9bc7bfd 	stp	x29, x30, [sp, #-64]!
    27c8:	910003fd 	mov	x29, sp
    27cc:	a90153f3 	stp	x19, x20, [sp, #16]
/home/jayanth/quemu-v8/source/optee_os/lib/libutee/tee_api.c:117
    27d0:	aa0203f4 	mov	x20, x2
    27d4:	aa0003f3 	mov	x19, x0
/home/jayanth/quemu-v8/source/optee_os/lib/libutee/tee_api.c:115
    27d8:	a90363f7 	stp	x23, x24, [sp, #48]
    27dc:	aa0103f8 	mov	x24, x1
/home/jayanth/quemu-v8/source/optee_os/lib/libutee/tee_api.c:117
    27e0:	f8408697 	ldr	x23, [x20], #8
/home/jayanth/quemu-v8/source/optee_os/lib/libutee/tee_api.c:115
    27e4:	a9025bf5 	stp	x21, x22, [sp, #32]
/home/jayanth/quemu-v8/source/optee_os/lib/libutee/tee_api.c:119
    27e8:	d2800015 	mov	x21, #0x0                   	// #0
/home/jayanth/quemu-v8/source/optee_os/lib/libutee/tee_api.c:123
    27ec:	531e76a0 	lsl	w0, w21, #2
/home/jayanth/quemu-v8/source/optee_os/lib/libutee/tee_api.c:121
    27f0:	f9400696 	ldr	x22, [x20, #8]
/home/jayanth/quemu-v8/source/optee_os/lib/libutee/tee_api.c:123
    27f4:	1ac026e0 	lsr	w0, w23, w0
    27f8:	12000c01 	and	w1, w0, #0xf
    27fc:	721e041f 	tst	w0, #0xc
    2800:	540000c1 	b.ne	2818 <update_out_param+0x54>  // b.any
    2804:	721f081f 	tst	w0, #0xe
    2808:	540000e0 	b.eq	2824 <update_out_param+0x60>  // b.none
/home/jayanth/quemu-v8/source/optee_os/lib/libutee/tee_api.c:126
    280c:	f9400280 	ldr	x0, [x20]
/home/jayanth/quemu-v8/source/optee_os/lib/libutee/tee_api.c:127
    2810:	29005a60 	stp	w0, w22, [x19]
/home/jayanth/quemu-v8/source/optee_os/lib/libutee/tee_api.c:128
    2814:	14000004 	b	2824 <update_out_param+0x60>
/home/jayanth/quemu-v8/source/optee_os/lib/libutee/tee_api.c:123
    2818:	51001820 	sub	w0, w1, #0x6
    281c:	7100041f 	cmp	w0, #0x1
    2820:	54000169 	b.ls	284c <update_out_param+0x88>  // b.plast
/home/jayanth/quemu-v8/source/optee_os/lib/libutee/tee_api.c:119 (discriminator 2)
    2824:	910006b5 	add	x21, x21, #0x1
    2828:	91004294 	add	x20, x20, #0x10
    282c:	91004273 	add	x19, x19, #0x10
    2830:	f10012bf 	cmp	x21, #0x4
    2834:	54fffdc1 	b.ne	27ec <update_out_param+0x28>  // b.any
/home/jayanth/quemu-v8/source/optee_os/lib/libutee/tee_api.c:140
    2838:	a94153f3 	ldp	x19, x20, [sp, #16]
    283c:	a9425bf5 	ldp	x21, x22, [sp, #32]
    2840:	a94363f7 	ldp	x23, x24, [sp, #48]
    2844:	a8c47bfd 	ldp	x29, x30, [sp], #64
    2848:	d65f03c0 	ret
/home/jayanth/quemu-v8/source/optee_os/lib/libutee/tee_api.c:131
    284c:	f8757b01 	ldr	x1, [x24, x21, lsl #3]
    2850:	b40000c1 	cbz	x1, 2868 <update_out_param+0xa4>
/home/jayanth/quemu-v8/source/optee_os/lib/libutee/tee_api.c:133
    2854:	b9400a62 	ldr	w2, [x19, #8]
/home/jayanth/quemu-v8/source/optee_os/lib/libutee/tee_api.c:132
    2858:	f9400260 	ldr	x0, [x19]
/home/jayanth/quemu-v8/source/optee_os/lib/libutee/tee_api.c:133
    285c:	eb16005f 	cmp	x2, x22
/home/jayanth/quemu-v8/source/optee_os/lib/libutee/tee_api.c:132
    2860:	9a969042 	csel	x2, x2, x22, ls  // ls = plast
    2864:	97fff5ef 	bl	20 <memcpy>
/home/jayanth/quemu-v8/source/optee_os/lib/libutee/tee_api.c:134
    2868:	b9000a76 	str	w22, [x19, #8]
/home/jayanth/quemu-v8/source/optee_os/lib/libutee/tee_api.c:135
    286c:	17ffffee 	b	2824 <update_out_param+0x60>

0000000000002870 <TEE_CloseTASession>:
TEE_CloseTASession():
/home/jayanth/quemu-v8/source/optee_os/lib/libutee/tee_api.c:190
    2870:	b4000120 	cbz	x0, 2894 <TEE_CloseTASession+0x24>
/home/jayanth/quemu-v8/source/optee_os/lib/libutee/tee_api.c:189
    2874:	a9bf7bfd 	stp	x29, x30, [sp, #-16]!
    2878:	910003fd 	mov	x29, sp
/home/jayanth/quemu-v8/source/optee_os/lib/libutee/tee_api.c:191
    287c:	94000271 	bl	3240 <_utee_close_ta_session>
/home/jayanth/quemu-v8/source/optee_os/lib/libutee/tee_api.c:193
    2880:	34000060 	cbz	w0, 288c <TEE_CloseTASession+0x1c>
/home/jayanth/quemu-v8/source/optee_os/lib/libutee/tee_api.c:196
    2884:	a8c17bfd 	ldp	x29, x30, [sp], #16
/home/jayanth/quemu-v8/source/optee_os/lib/libutee/tee_api.c:194
    2888:	140001aa 	b	2f30 <TEE_Panic>
/home/jayanth/quemu-v8/source/optee_os/lib/libutee/tee_api.c:196
    288c:	a8c17bfd 	ldp	x29, x30, [sp], #16
    2890:	d65f03c0 	ret
    2894:	d65f03c0 	ret

0000000000002898 <TEE_GetCancellationFlag>:
TEE_GetCancellationFlag():
/home/jayanth/quemu-v8/source/optee_os/lib/libutee/tee_api.c:251
    2898:	a9be7bfd 	stp	x29, x30, [sp, #-32]!
    289c:	910003fd 	mov	x29, sp
/home/jayanth/quemu-v8/source/optee_os/lib/libutee/tee_api.c:253
    28a0:	910073e0 	add	x0, sp, #0x1c
    28a4:	9400026d 	bl	3258 <_utee_get_cancellation_flag>
/home/jayanth/quemu-v8/source/optee_os/lib/libutee/tee_api.c:255
    28a8:	34000040 	cbz	w0, 28b0 <TEE_GetCancellationFlag+0x18>
/home/jayanth/quemu-v8/source/optee_os/lib/libutee/tee_api.c:256
    28ac:	b9001fff 	str	wzr, [sp, #28]
/home/jayanth/quemu-v8/source/optee_os/lib/libutee/tee_api.c:257
    28b0:	b9401fe0 	ldr	w0, [sp, #28]
/home/jayanth/quemu-v8/source/optee_os/lib/libutee/tee_api.c:258
    28b4:	a8c27bfd 	ldp	x29, x30, [sp], #32
/home/jayanth/quemu-v8/source/optee_os/lib/libutee/tee_api.c:257
    28b8:	7100001f 	cmp	w0, #0x0
/home/jayanth/quemu-v8/source/optee_os/lib/libutee/tee_api.c:258
    28bc:	1a9f07e0 	cset	w0, ne  // ne = any
    28c0:	d65f03c0 	ret

00000000000028c4 <TEE_UnmaskCancellation>:
TEE_UnmaskCancellation():
/home/jayanth/quemu-v8/source/optee_os/lib/libutee/tee_api.c:261
    28c4:	a9be7bfd 	stp	x29, x30, [sp, #-32]!
    28c8:	910003fd 	mov	x29, sp
/home/jayanth/quemu-v8/source/optee_os/lib/libutee/tee_api.c:263
    28cc:	910073e0 	add	x0, sp, #0x1c
    28d0:	94000268 	bl	3270 <_utee_unmask_cancellation>
/home/jayanth/quemu-v8/source/optee_os/lib/libutee/tee_api.c:265
    28d4:	34000040 	cbz	w0, 28dc <TEE_UnmaskCancellation+0x18>
/home/jayanth/quemu-v8/source/optee_os/lib/libutee/tee_api.c:266
    28d8:	94000196 	bl	2f30 <TEE_Panic>
/home/jayanth/quemu-v8/source/optee_os/lib/libutee/tee_api.c:267
    28dc:	b9401fe0 	ldr	w0, [sp, #28]
/home/jayanth/quemu-v8/source/optee_os/lib/libutee/tee_api.c:268
    28e0:	a8c27bfd 	ldp	x29, x30, [sp], #32
/home/jayanth/quemu-v8/source/optee_os/lib/libutee/tee_api.c:267
    28e4:	7100001f 	cmp	w0, #0x0
/home/jayanth/quemu-v8/source/optee_os/lib/libutee/tee_api.c:268
    28e8:	1a9f07e0 	cset	w0, ne  // ne = any
    28ec:	d65f03c0 	ret

00000000000028f0 <TEE_MaskCancellation>:
TEE_MaskCancellation():
/home/jayanth/quemu-v8/source/optee_os/lib/libutee/tee_api.c:271
    28f0:	a9be7bfd 	stp	x29, x30, [sp, #-32]!
    28f4:	910003fd 	mov	x29, sp
/home/jayanth/quemu-v8/source/optee_os/lib/libutee/tee_api.c:273
    28f8:	910073e0 	add	x0, sp, #0x1c
    28fc:	94000260 	bl	327c <_utee_mask_cancellation>
/home/jayanth/quemu-v8/source/optee_os/lib/libutee/tee_api.c:275
    2900:	34000040 	cbz	w0, 2908 <TEE_MaskCancellation+0x18>
/home/jayanth/quemu-v8/source/optee_os/lib/libutee/tee_api.c:276
    2904:	9400018b 	bl	2f30 <TEE_Panic>
/home/jayanth/quemu-v8/source/optee_os/lib/libutee/tee_api.c:277
    2908:	b9401fe0 	ldr	w0, [sp, #28]
/home/jayanth/quemu-v8/source/optee_os/lib/libutee/tee_api.c:278
    290c:	a8c27bfd 	ldp	x29, x30, [sp], #32
/home/jayanth/quemu-v8/source/optee_os/lib/libutee/tee_api.c:277
    2910:	7100001f 	cmp	w0, #0x0
/home/jayanth/quemu-v8/source/optee_os/lib/libutee/tee_api.c:278
    2914:	1a9f07e0 	cset	w0, ne  // ne = any
    2918:	d65f03c0 	ret

000000000000291c <TEE_CheckMemoryAccessRights>:
TEE_CheckMemoryAccessRights():
/home/jayanth/quemu-v8/source/optee_os/lib/libutee/tee_api.c:287
    291c:	34000062 	cbz	w2, 2928 <TEE_CheckMemoryAccessRights+0xc>
/home/jayanth/quemu-v8/source/optee_os/lib/libutee/tee_api.c:291
    2920:	2a0203e2 	mov	w2, w2
    2924:	14000250 	b	3264 <_utee_check_access_rights>
/home/jayanth/quemu-v8/source/optee_os/lib/libutee/tee_api.c:303
    2928:	52800000 	mov	w0, #0x0                   	// #0
    292c:	d65f03c0 	ret

0000000000002930 <copy_param>:
copy_param():
/home/jayanth/quemu-v8/source/optee_os/lib/libutee/tee_api.c:23
    2930:	a9b87bfd 	stp	x29, x30, [sp, #-128]!
    2934:	910003fd 	mov	x29, sp
    2938:	a9046bf9 	stp	x25, x26, [sp, #64]
    293c:	aa0303f9 	mov	x25, x3
/home/jayanth/quemu-v8/source/optee_os/lib/libutee/tee_api.c:60
    2940:	9101e3e3 	add	x3, sp, #0x78
/home/jayanth/quemu-v8/source/optee_os/lib/libutee/tee_api.c:23
    2944:	a90363f7 	stp	x23, x24, [sp, #48]
    2948:	aa0403f8 	mov	x24, x4
    294c:	aa0503f7 	mov	x23, x5
    2950:	a90153f3 	stp	x19, x20, [sp, #16]
    2954:	aa0003f3 	mov	x19, x0
    2958:	aa0203f4 	mov	x20, x2
    295c:	a9025bf5 	stp	x21, x22, [sp, #32]
    2960:	2a0103f6 	mov	w22, w1
/home/jayanth/quemu-v8/source/optee_os/lib/libutee/tee_api.c:41
    2964:	d2800015 	mov	x21, #0x0                   	// #0
/home/jayanth/quemu-v8/source/optee_os/lib/libutee/tee_api.c:23
    2968:	a90573fb 	stp	x27, x28, [sp, #80]
/home/jayanth/quemu-v8/source/optee_os/lib/libutee/tee_api.c:48
    296c:	9100205c 	add	x28, x2, #0x8
/home/jayanth/quemu-v8/source/optee_os/lib/libutee/tee_api.c:26
    2970:	d280001b 	mov	x27, #0x0                   	// #0
/home/jayanth/quemu-v8/source/optee_os/lib/libutee/tee_api.c:39
    2974:	f900033f 	str	xzr, [x25]
/home/jayanth/quemu-v8/source/optee_os/lib/libutee/tee_api.c:60
    2978:	52800024 	mov	w4, #0x1                   	// #1
/home/jayanth/quemu-v8/source/optee_os/lib/libutee/tee_api.c:40
    297c:	f900031f 	str	xzr, [x24]
/home/jayanth/quemu-v8/source/optee_os/lib/libutee/tee_api.c:28
    2980:	b9007bff 	str	wzr, [sp, #120]
/home/jayanth/quemu-v8/source/optee_os/lib/libutee/tee_api.c:43
    2984:	531e76a0 	lsl	w0, w21, #2
/home/jayanth/quemu-v8/source/optee_os/lib/libutee/tee_api.c:42
    2988:	f8357aff 	str	xzr, [x23, x21, lsl #3]
/home/jayanth/quemu-v8/source/optee_os/lib/libutee/tee_api.c:43
    298c:	1ac026c0 	lsr	w0, w22, w0
    2990:	12000c00 	and	w0, w0, #0xf
    2994:	51001400 	sub	w0, w0, #0x5
    2998:	7100081f 	cmp	w0, #0x2
    299c:	54000268 	b.hi	29e8 <copy_param+0xb8>  // b.pmore
/home/jayanth/quemu-v8/source/optee_os/lib/libutee/tee_api.c:47
    29a0:	d37ceea0 	lsl	x0, x21, #4
    29a4:	f8606a81 	ldr	x1, [x20, x0]
/home/jayanth/quemu-v8/source/optee_os/lib/libutee/tee_api.c:48
    29a8:	b8606b82 	ldr	w2, [x28, x0]
/home/jayanth/quemu-v8/source/optee_os/lib/libutee/tee_api.c:58
    29ac:	f100003f 	cmp	x1, #0x0
/home/jayanth/quemu-v8/source/optee_os/lib/libutee/tee_api.c:48
    29b0:	2a0203fa 	mov	w26, w2
/home/jayanth/quemu-v8/source/optee_os/lib/libutee/tee_api.c:58
    29b4:	fa401b44 	ccmp	x26, #0x0, #0x4, ne  // ne = any
    29b8:	54000180 	b.eq	29e8 <copy_param+0xb8>  // b.none
/home/jayanth/quemu-v8/source/optee_os/lib/libutee/tee_api.c:59 (discriminator 1)
    29bc:	52800020 	mov	w0, #0x1                   	// #1
    29c0:	f90033e3 	str	x3, [sp, #96]
    29c4:	b9006fe4 	str	w4, [sp, #108]
    29c8:	97ffffd5 	bl	291c <TEE_CheckMemoryAccessRights>
/home/jayanth/quemu-v8/source/optee_os/lib/libutee/tee_api.c:58 (discriminator 1)
    29cc:	b9406fe4 	ldr	w4, [sp, #108]
    29d0:	f94033e3 	ldr	x3, [sp, #96]
    29d4:	350000a0 	cbnz	w0, 29e8 <copy_param+0xb8>
/home/jayanth/quemu-v8/source/optee_os/lib/libutee/tee_api.c:61
    29d8:	91003f5a 	add	x26, x26, #0xf
/home/jayanth/quemu-v8/source/optee_os/lib/libutee/tee_api.c:60
    29dc:	38236aa4 	strb	w4, [x21, x3]
/home/jayanth/quemu-v8/source/optee_os/lib/libutee/tee_api.c:61
    29e0:	927cef5a 	and	x26, x26, #0xfffffffffffffff0
    29e4:	8b1a037b 	add	x27, x27, x26
/home/jayanth/quemu-v8/source/optee_os/lib/libutee/tee_api.c:41 (discriminator 2)
    29e8:	910006b5 	add	x21, x21, #0x1
    29ec:	f10012bf 	cmp	x21, #0x4
    29f0:	54fffca1 	b.ne	2984 <copy_param+0x54>  // b.any
/home/jayanth/quemu-v8/source/optee_os/lib/libutee/tee_api.c:69
    29f4:	b40002fb 	cbz	x27, 2a50 <copy_param+0x120>
/home/jayanth/quemu-v8/source/optee_os/lib/libutee/tee_api.c:70
    29f8:	2a1503e1 	mov	w1, w21
    29fc:	aa1b03e0 	mov	x0, x27
    2a00:	940001bf 	bl	30fc <tee_map_zi>
    2a04:	aa0003e6 	mov	x6, x0
/home/jayanth/quemu-v8/source/optee_os/lib/libutee/tee_api.c:71
    2a08:	b4000780 	cbz	x0, 2af8 <copy_param+0x1c8>
/home/jayanth/quemu-v8/source/optee_os/lib/libutee/tee_api.c:73
    2a0c:	f9000320 	str	x0, [x25]
/home/jayanth/quemu-v8/source/optee_os/lib/libutee/tee_api.c:74
    2a10:	f900031b 	str	x27, [x24]
/home/jayanth/quemu-v8/source/optee_os/lib/libutee/tee_api.c:89
    2a14:	9101e3fa 	add	x26, sp, #0x78
/home/jayanth/quemu-v8/source/optee_os/lib/libutee/tee_api.c:77
    2a18:	2a1603e0 	mov	w0, w22
/home/jayanth/quemu-v8/source/optee_os/lib/libutee/tee_api.c:78
    2a1c:	d2800015 	mov	x21, #0x0                   	// #0
/home/jayanth/quemu-v8/source/optee_os/lib/libutee/tee_api.c:77
    2a20:	f8008660 	str	x0, [x19], #8
/home/jayanth/quemu-v8/source/optee_os/lib/libutee/tee_api.c:79
    2a24:	531e76a1 	lsl	w1, w21, #2
    2a28:	1ac126c1 	lsr	w1, w22, w1
    2a2c:	12000c20 	and	w0, w1, #0xf
    2a30:	71000c1f 	cmp	w0, #0x3
    2a34:	540003a0 	b.eq	2aa8 <copy_param+0x178>  // b.none
    2a38:	721e043f 	tst	w1, #0xc
    2a3c:	540000e1 	b.ne	2a58 <copy_param+0x128>  // b.any
    2a40:	7100041f 	cmp	w0, #0x1
    2a44:	54000320 	b.eq	2aa8 <copy_param+0x178>  // b.none
/home/jayanth/quemu-v8/source/optee_os/lib/libutee/tee_api.c:104
    2a48:	a9007e7f 	stp	xzr, xzr, [x19]
/home/jayanth/quemu-v8/source/optee_os/lib/libutee/tee_api.c:105
    2a4c:	1400001b 	b	2ab8 <copy_param+0x188>
/home/jayanth/quemu-v8/source/optee_os/lib/libutee/tee_api.c:25
    2a50:	d2800006 	mov	x6, #0x0                   	// #0
    2a54:	17fffff0 	b	2a14 <copy_param+0xe4>
/home/jayanth/quemu-v8/source/optee_os/lib/libutee/tee_api.c:79
    2a58:	51001401 	sub	w1, w0, #0x5
    2a5c:	7100083f 	cmp	w1, #0x2
    2a60:	54ffff48 	b.hi	2a48 <copy_param+0x118>  // b.pmore
/home/jayanth/quemu-v8/source/optee_os/lib/libutee/tee_api.c:89
    2a64:	387a6aa1 	ldrb	w1, [x21, x26]
/home/jayanth/quemu-v8/source/optee_os/lib/libutee/tee_api.c:88
    2a68:	b9400a99 	ldr	w25, [x20, #8]
/home/jayanth/quemu-v8/source/optee_os/lib/libutee/tee_api.c:89
    2a6c:	34000401 	cbz	w1, 2aec <copy_param+0x1bc>
/home/jayanth/quemu-v8/source/optee_os/lib/libutee/tee_api.c:92
    2a70:	91003f38 	add	x24, x25, #0xf
/home/jayanth/quemu-v8/source/optee_os/lib/libutee/tee_api.c:91
    2a74:	f8357ae6 	str	x6, [x23, x21, lsl #3]
/home/jayanth/quemu-v8/source/optee_os/lib/libutee/tee_api.c:92
    2a78:	927cef18 	and	x24, x24, #0xfffffffffffffff0
/home/jayanth/quemu-v8/source/optee_os/lib/libutee/tee_api.c:93
    2a7c:	7100181f 	cmp	w0, #0x6
/home/jayanth/quemu-v8/source/optee_os/lib/libutee/tee_api.c:92
    2a80:	8b1800d8 	add	x24, x6, x24
/home/jayanth/quemu-v8/source/optee_os/lib/libutee/tee_api.c:93
    2a84:	540000c0 	b.eq	2a9c <copy_param+0x16c>  // b.none
/home/jayanth/quemu-v8/source/optee_os/lib/libutee/tee_api.c:95
    2a88:	f9400281 	ldr	x1, [x20]
    2a8c:	aa0603e0 	mov	x0, x6
    2a90:	aa1903e2 	mov	x2, x25
    2a94:	97fff563 	bl	20 <memcpy>
    2a98:	aa0003e6 	mov	x6, x0
/home/jayanth/quemu-v8/source/optee_os/lib/libutee/tee_api.c:100
    2a9c:	a9006666 	stp	x6, x25, [x19]
/home/jayanth/quemu-v8/source/optee_os/lib/libutee/tee_api.c:101
    2aa0:	aa1803e6 	mov	x6, x24
    2aa4:	14000005 	b	2ab8 <copy_param+0x188>
/home/jayanth/quemu-v8/source/optee_os/lib/libutee/tee_api.c:82
    2aa8:	b9400280 	ldr	w0, [x20]
    2aac:	f9000260 	str	x0, [x19]
/home/jayanth/quemu-v8/source/optee_os/lib/libutee/tee_api.c:83
    2ab0:	b9400680 	ldr	w0, [x20, #4]
    2ab4:	f9000660 	str	x0, [x19, #8]
/home/jayanth/quemu-v8/source/optee_os/lib/libutee/tee_api.c:78 (discriminator 2)
    2ab8:	910006b5 	add	x21, x21, #0x1
    2abc:	91004294 	add	x20, x20, #0x10
    2ac0:	91004273 	add	x19, x19, #0x10
    2ac4:	f10012bf 	cmp	x21, #0x4
    2ac8:	54fffae1 	b.ne	2a24 <copy_param+0xf4>  // b.any
/home/jayanth/quemu-v8/source/optee_os/lib/libutee/tee_api.c:109
    2acc:	52800000 	mov	w0, #0x0                   	// #0
/home/jayanth/quemu-v8/source/optee_os/lib/libutee/tee_api.c:110
    2ad0:	a94153f3 	ldp	x19, x20, [sp, #16]
    2ad4:	a9425bf5 	ldp	x21, x22, [sp, #32]
    2ad8:	a94363f7 	ldp	x23, x24, [sp, #48]
    2adc:	a9446bf9 	ldp	x25, x26, [sp, #64]
    2ae0:	a94573fb 	ldp	x27, x28, [sp, #80]
    2ae4:	a8c87bfd 	ldp	x29, x30, [sp], #128
    2ae8:	d65f03c0 	ret
/home/jayanth/quemu-v8/source/optee_os/lib/libutee/tee_api.c:97
    2aec:	aa0603f8 	mov	x24, x6
    2af0:	f9400286 	ldr	x6, [x20]
    2af4:	17ffffea 	b	2a9c <copy_param+0x16c>
/home/jayanth/quemu-v8/source/optee_os/lib/libutee/tee_api.c:72
    2af8:	129ffe60 	mov	w0, #0xffff000c            	// #-65524
    2afc:	17fffff5 	b	2ad0 <copy_param+0x1a0>

0000000000002b00 <TEE_OpenTASession>:
TEE_OpenTASession():
/home/jayanth/quemu-v8/source/optee_os/lib/libutee/tee_api.c:148
    2b00:	a9b37bfd 	stp	x29, x30, [sp, #-208]!
    2b04:	910003fd 	mov	x29, sp
    2b08:	a90153f3 	stp	x19, x20, [sp, #16]
    2b0c:	2a0203f3 	mov	w19, w2
    2b10:	aa0303f4 	mov	x20, x3
    2b14:	a9025bf5 	stp	x21, x22, [sp, #32]
    2b18:	aa0403f5 	mov	x21, x4
    2b1c:	a90363f7 	stp	x23, x24, [sp, #48]
    2b20:	aa0003f7 	mov	x23, x0
    2b24:	2a0103f8 	mov	w24, w1
    2b28:	a9046bf9 	stp	x25, x26, [sp, #64]
    2b2c:	aa0503f9 	mov	x25, x5
/home/jayanth/quemu-v8/source/optee_os/lib/libutee/tee_api.c:151
    2b30:	b90057ff 	str	wzr, [sp, #84]
/home/jayanth/quemu-v8/source/optee_os/lib/libutee/tee_api.c:153
    2b34:	a905ffff 	stp	xzr, xzr, [sp, #88]
/home/jayanth/quemu-v8/source/optee_os/lib/libutee/tee_api.c:154
    2b38:	a906ffff 	stp	xzr, xzr, [sp, #104]
    2b3c:	a907ffff 	stp	xzr, xzr, [sp, #120]
/home/jayanth/quemu-v8/source/optee_os/lib/libutee/tee_api.c:156
    2b40:	34000082 	cbz	w2, 2b50 <TEE_OpenTASession+0x50>
/home/jayanth/quemu-v8/source/optee_os/lib/libutee/tee_api.c:157
    2b44:	aa0303e0 	mov	x0, x3
    2b48:	d2800801 	mov	x1, #0x40                  	// #64
    2b4c:	94000142 	bl	3054 <__utee_check_inout_annotation>
/home/jayanth/quemu-v8/source/optee_os/lib/libutee/tee_api.c:160
    2b50:	aa1503e0 	mov	x0, x21
    2b54:	d2800101 	mov	x1, #0x8                   	// #8
/home/jayanth/quemu-v8/source/optee_os/lib/libutee/tee_api.c:162
    2b58:	9101a3fa 	add	x26, sp, #0x68
/home/jayanth/quemu-v8/source/optee_os/lib/libutee/tee_api.c:160
    2b5c:	9400012d 	bl	3010 <__utee_check_out_annotation>
/home/jayanth/quemu-v8/source/optee_os/lib/libutee/tee_api.c:162
    2b60:	910223f6 	add	x22, sp, #0x88
    2b64:	2a1303e1 	mov	w1, w19
    2b68:	aa1a03e5 	mov	x5, x26
    2b6c:	910183e4 	add	x4, sp, #0x60
    2b70:	910163e3 	add	x3, sp, #0x58
    2b74:	aa1403e2 	mov	x2, x20
    2b78:	aa1603e0 	mov	x0, x22
    2b7c:	97ffff6d 	bl	2930 <copy_param>
    2b80:	2a0003f3 	mov	w19, w0
/home/jayanth/quemu-v8/source/optee_os/lib/libutee/tee_api.c:163
    2b84:	35000260 	cbnz	w0, 2bd0 <TEE_OpenTASession+0xd0>
/home/jayanth/quemu-v8/source/optee_os/lib/libutee/tee_api.c:165
    2b88:	aa1903e4 	mov	x4, x25
    2b8c:	910153e3 	add	x3, sp, #0x54
    2b90:	aa1603e2 	mov	x2, x22
    2b94:	2a1803e1 	mov	w1, w24
    2b98:	aa1703e0 	mov	x0, x23
    2b9c:	940001a6 	bl	3234 <_utee_open_ta_session>
/home/jayanth/quemu-v8/source/optee_os/lib/libutee/tee_api.c:167
    2ba0:	aa1603e2 	mov	x2, x22
/home/jayanth/quemu-v8/source/optee_os/lib/libutee/tee_api.c:165
    2ba4:	2a0003f3 	mov	w19, w0
/home/jayanth/quemu-v8/source/optee_os/lib/libutee/tee_api.c:167
    2ba8:	aa1a03e1 	mov	x1, x26
    2bac:	aa1403e0 	mov	x0, x20
    2bb0:	97ffff05 	bl	27c4 <update_out_param>
/home/jayanth/quemu-v8/source/optee_os/lib/libutee/tee_api.c:168
    2bb4:	f9402fe0 	ldr	x0, [sp, #88]
    2bb8:	b40000a0 	cbz	x0, 2bcc <TEE_OpenTASession+0xcc>
/home/jayanth/quemu-v8/source/optee_os/lib/libutee/tee_api.c:169
    2bbc:	f94033e1 	ldr	x1, [sp, #96]
    2bc0:	94000168 	bl	3160 <tee_unmap>
/home/jayanth/quemu-v8/source/optee_os/lib/libutee/tee_api.c:171
    2bc4:	34000040 	cbz	w0, 2bcc <TEE_OpenTASession+0xcc>
/home/jayanth/quemu-v8/source/optee_os/lib/libutee/tee_api.c:172
    2bc8:	940000da 	bl	2f30 <TEE_Panic>
/home/jayanth/quemu-v8/source/optee_os/lib/libutee/tee_api.c:181
    2bcc:	34000053 	cbz	w19, 2bd4 <TEE_OpenTASession+0xd4>
/home/jayanth/quemu-v8/source/optee_os/lib/libutee/tee_api.c:182
    2bd0:	b90057ff 	str	wzr, [sp, #84]
/home/jayanth/quemu-v8/source/optee_os/lib/libutee/tee_api.c:184
    2bd4:	b94057e0 	ldr	w0, [sp, #84]
/home/jayanth/quemu-v8/source/optee_os/lib/libutee/tee_api.c:186
    2bd8:	a94363f7 	ldp	x23, x24, [sp, #48]
    2bdc:	a9446bf9 	ldp	x25, x26, [sp, #64]
/home/jayanth/quemu-v8/source/optee_os/lib/libutee/tee_api.c:184
    2be0:	f90002a0 	str	x0, [x21]
/home/jayanth/quemu-v8/source/optee_os/lib/libutee/tee_api.c:186
    2be4:	2a1303e0 	mov	w0, w19
    2be8:	a94153f3 	ldp	x19, x20, [sp, #16]
    2bec:	a9425bf5 	ldp	x21, x22, [sp, #32]
    2bf0:	a8cd7bfd 	ldp	x29, x30, [sp], #208
    2bf4:	d65f03c0 	ret

0000000000002bf8 <TEE_InvokeTACommand>:
TEE_InvokeTACommand():
/home/jayanth/quemu-v8/source/optee_os/lib/libutee/tee_api.c:203
    2bf8:	a9b37bfd 	stp	x29, x30, [sp, #-208]!
    2bfc:	910003fd 	mov	x29, sp
    2c00:	a90153f3 	stp	x19, x20, [sp, #16]
    2c04:	2a0303f3 	mov	w19, w3
    2c08:	aa0503f4 	mov	x20, x5
    2c0c:	a9025bf5 	stp	x21, x22, [sp, #32]
    2c10:	aa0403f5 	mov	x21, x4
    2c14:	a90363f7 	stp	x23, x24, [sp, #48]
    2c18:	aa0003f7 	mov	x23, x0
/home/jayanth/quemu-v8/source/optee_os/lib/libutee/tee_api.c:205
    2c1c:	52800060 	mov	w0, #0x3                   	// #3
/home/jayanth/quemu-v8/source/optee_os/lib/libutee/tee_api.c:203
    2c20:	a9046bf9 	stp	x25, x26, [sp, #64]
    2c24:	2a0103f8 	mov	w24, w1
    2c28:	2a0203f9 	mov	w25, w2
/home/jayanth/quemu-v8/source/optee_os/lib/libutee/tee_api.c:205
    2c2c:	b90057e0 	str	w0, [sp, #84]
/home/jayanth/quemu-v8/source/optee_os/lib/libutee/tee_api.c:208
    2c30:	a905ffff 	stp	xzr, xzr, [sp, #88]
/home/jayanth/quemu-v8/source/optee_os/lib/libutee/tee_api.c:209
    2c34:	a906ffff 	stp	xzr, xzr, [sp, #104]
    2c38:	a907ffff 	stp	xzr, xzr, [sp, #120]
/home/jayanth/quemu-v8/source/optee_os/lib/libutee/tee_api.c:211
    2c3c:	34000083 	cbz	w3, 2c4c <TEE_InvokeTACommand+0x54>
/home/jayanth/quemu-v8/source/optee_os/lib/libutee/tee_api.c:212
    2c40:	aa0403e0 	mov	x0, x4
    2c44:	d2800801 	mov	x1, #0x40                  	// #64
    2c48:	94000103 	bl	3054 <__utee_check_inout_annotation>
/home/jayanth/quemu-v8/source/optee_os/lib/libutee/tee_api.c:215
    2c4c:	b4000094 	cbz	x20, 2c5c <TEE_InvokeTACommand+0x64>
/home/jayanth/quemu-v8/source/optee_os/lib/libutee/tee_api.c:216
    2c50:	aa1403e0 	mov	x0, x20
    2c54:	d2800081 	mov	x1, #0x4                   	// #4
    2c58:	940000ee 	bl	3010 <__utee_check_out_annotation>
/home/jayanth/quemu-v8/source/optee_os/lib/libutee/tee_api.c:219
    2c5c:	9101a3fa 	add	x26, sp, #0x68
    2c60:	910223f6 	add	x22, sp, #0x88
    2c64:	2a1303e1 	mov	w1, w19
    2c68:	aa1a03e5 	mov	x5, x26
    2c6c:	910183e4 	add	x4, sp, #0x60
    2c70:	910163e3 	add	x3, sp, #0x58
    2c74:	aa1503e2 	mov	x2, x21
    2c78:	aa1603e0 	mov	x0, x22
    2c7c:	97ffff2d 	bl	2930 <copy_param>
    2c80:	2a0003f3 	mov	w19, w0
/home/jayanth/quemu-v8/source/optee_os/lib/libutee/tee_api.c:220
    2c84:	35000240 	cbnz	w0, 2ccc <TEE_InvokeTACommand+0xd4>
/home/jayanth/quemu-v8/source/optee_os/lib/libutee/tee_api.c:222
    2c88:	910153e4 	add	x4, sp, #0x54
    2c8c:	aa1603e3 	mov	x3, x22
    2c90:	2a1903e2 	mov	w2, w25
    2c94:	2a1803e1 	mov	w1, w24
    2c98:	aa1703e0 	mov	x0, x23
    2c9c:	9400016c 	bl	324c <_utee_invoke_ta_command>
/home/jayanth/quemu-v8/source/optee_os/lib/libutee/tee_api.c:225
    2ca0:	aa1603e2 	mov	x2, x22
/home/jayanth/quemu-v8/source/optee_os/lib/libutee/tee_api.c:222
    2ca4:	2a0003f3 	mov	w19, w0
/home/jayanth/quemu-v8/source/optee_os/lib/libutee/tee_api.c:225
    2ca8:	aa1a03e1 	mov	x1, x26
    2cac:	aa1503e0 	mov	x0, x21
    2cb0:	97fffec5 	bl	27c4 <update_out_param>
/home/jayanth/quemu-v8/source/optee_os/lib/libutee/tee_api.c:226
    2cb4:	f9402fe0 	ldr	x0, [sp, #88]
    2cb8:	b40000a0 	cbz	x0, 2ccc <TEE_InvokeTACommand+0xd4>
/home/jayanth/quemu-v8/source/optee_os/lib/libutee/tee_api.c:227
    2cbc:	f94033e1 	ldr	x1, [sp, #96]
    2cc0:	94000128 	bl	3160 <tee_unmap>
/home/jayanth/quemu-v8/source/optee_os/lib/libutee/tee_api.c:229
    2cc4:	34000040 	cbz	w0, 2ccc <TEE_InvokeTACommand+0xd4>
/home/jayanth/quemu-v8/source/optee_os/lib/libutee/tee_api.c:230
    2cc8:	9400009a 	bl	2f30 <TEE_Panic>
/home/jayanth/quemu-v8/source/optee_os/lib/libutee/tee_api.c:234
    2ccc:	b94057e0 	ldr	w0, [sp, #84]
    2cd0:	b4000054 	cbz	x20, 2cd8 <TEE_InvokeTACommand+0xe0>
/home/jayanth/quemu-v8/source/optee_os/lib/libutee/tee_api.c:235
    2cd4:	b9000280 	str	w0, [x20]
/home/jayanth/quemu-v8/source/optee_os/lib/libutee/tee_api.c:237
    2cd8:	7100101f 	cmp	w0, #0x4
    2cdc:	54000140 	b.eq	2d04 <TEE_InvokeTACommand+0x10c>  // b.none
/home/jayanth/quemu-v8/source/optee_os/lib/libutee/tee_api.c:240
    2ce0:	7100027f 	cmp	w19, #0x0
    2ce4:	129ffe60 	mov	w0, #0xffff000c            	// #-65524
    2ce8:	7a401264 	ccmp	w19, w0, #0x4, ne  // ne = any
    2cec:	540000c0 	b.eq	2d04 <TEE_InvokeTACommand+0x10c>  // b.none
/home/jayanth/quemu-v8/source/optee_os/lib/libutee/tee_api.c:241
    2cf0:	1299fb60 	mov	w0, #0xffff3024            	// #-53212
    2cf4:	6b00027f 	cmp	w19, w0
    2cf8:	54000060 	b.eq	2d04 <TEE_InvokeTACommand+0x10c>  // b.none
/home/jayanth/quemu-v8/source/optee_os/lib/libutee/tee_api.c:243
    2cfc:	2a1303e0 	mov	w0, w19
    2d00:	9400008c 	bl	2f30 <TEE_Panic>
/home/jayanth/quemu-v8/source/optee_os/lib/libutee/tee_api.c:246
    2d04:	2a1303e0 	mov	w0, w19
    2d08:	a94153f3 	ldp	x19, x20, [sp, #16]
    2d0c:	a9425bf5 	ldp	x21, x22, [sp, #32]
    2d10:	a94363f7 	ldp	x23, x24, [sp, #48]
    2d14:	a9446bf9 	ldp	x25, x26, [sp, #64]
    2d18:	a8cd7bfd 	ldp	x29, x30, [sp], #208
    2d1c:	d65f03c0 	ret

0000000000002d20 <TEE_SetInstanceData>:
TEE_SetInstanceData():
/home/jayanth/quemu-v8/source/optee_os/lib/libutee/tee_api.c:307
    2d20:	f0000041 	adrp	x1, d000 <_DYNAMIC>
    2d24:	f9023420 	str	x0, [x1, #1128]
/home/jayanth/quemu-v8/source/optee_os/lib/libutee/tee_api.c:308
    2d28:	d65f03c0 	ret

0000000000002d2c <TEE_GetInstanceData>:
TEE_GetInstanceData():
/home/jayanth/quemu-v8/source/optee_os/lib/libutee/tee_api.c:313
    2d2c:	f0000040 	adrp	x0, d000 <_DYNAMIC>
    2d30:	f9423400 	ldr	x0, [x0, #1128]
    2d34:	d65f03c0 	ret

0000000000002d38 <TEE_MemMove>:
TEE_MemMove():
/home/jayanth/quemu-v8/source/optee_os/lib/libutee/tee_api.c:317
    2d38:	2a0203e2 	mov	w2, w2
    2d3c:	14001a28 	b	95dc <memmove>

0000000000002d40 <TEE_MemCompare>:
TEE_MemCompare():
/home/jayanth/quemu-v8/source/optee_os/lib/libutee/tee_api.c:322
    2d40:	2a0203e2 	mov	w2, w2
    2d44:	14001ab1 	b	9808 <consttime_memcmp>

0000000000002d48 <TEE_MemFill>:
TEE_MemFill():
/home/jayanth/quemu-v8/source/optee_os/lib/libutee/tee_api.c:327
    2d48:	2a0203e2 	mov	w2, w2
    2d4c:	17fff9a3 	b	13d8 <memset>

0000000000002d50 <TEE_GetSystemTime>:
TEE_GetSystemTime():
/home/jayanth/quemu-v8/source/optee_os/lib/libutee/tee_api.c:333
    2d50:	a9bf7bfd 	stp	x29, x30, [sp, #-16]!
/home/jayanth/quemu-v8/source/optee_os/lib/libutee/tee_api.c:334
    2d54:	aa0003e1 	mov	x1, x0
    2d58:	d2800000 	mov	x0, #0x0                   	// #0
/home/jayanth/quemu-v8/source/optee_os/lib/libutee/tee_api.c:333
    2d5c:	910003fd 	mov	x29, sp
/home/jayanth/quemu-v8/source/optee_os/lib/libutee/tee_api.c:334
    2d60:	9400014d 	bl	3294 <_utee_get_time>
/home/jayanth/quemu-v8/source/optee_os/lib/libutee/tee_api.c:336
    2d64:	34000060 	cbz	w0, 2d70 <TEE_GetSystemTime+0x20>
/home/jayanth/quemu-v8/source/optee_os/lib/libutee/tee_api.c:338
    2d68:	a8c17bfd 	ldp	x29, x30, [sp], #16
/home/jayanth/quemu-v8/source/optee_os/lib/libutee/tee_api.c:337
    2d6c:	14000071 	b	2f30 <TEE_Panic>
/home/jayanth/quemu-v8/source/optee_os/lib/libutee/tee_api.c:338
    2d70:	a8c17bfd 	ldp	x29, x30, [sp], #16
    2d74:	d65f03c0 	ret

0000000000002d78 <TEE_Wait>:
TEE_Wait():
/home/jayanth/quemu-v8/source/optee_os/lib/libutee/tee_api.c:341
    2d78:	a9be7bfd 	stp	x29, x30, [sp, #-32]!
/home/jayanth/quemu-v8/source/optee_os/lib/libutee/tee_api.c:342
    2d7c:	2a0003e0 	mov	w0, w0
/home/jayanth/quemu-v8/source/optee_os/lib/libutee/tee_api.c:341
    2d80:	910003fd 	mov	x29, sp
    2d84:	f9000bf3 	str	x19, [sp, #16]
/home/jayanth/quemu-v8/source/optee_os/lib/libutee/tee_api.c:342
    2d88:	94000140 	bl	3288 <_utee_wait>
/home/jayanth/quemu-v8/source/optee_os/lib/libutee/tee_api.c:344
    2d8c:	7100001f 	cmp	w0, #0x0
    2d90:	129fffa1 	mov	w1, #0xffff0002            	// #-65534
/home/jayanth/quemu-v8/source/optee_os/lib/libutee/tee_api.c:342
    2d94:	2a0003f3 	mov	w19, w0
/home/jayanth/quemu-v8/source/optee_os/lib/libutee/tee_api.c:344
    2d98:	7a411004 	ccmp	w0, w1, #0x4, ne  // ne = any
    2d9c:	54000040 	b.eq	2da4 <TEE_Wait+0x2c>  // b.none
/home/jayanth/quemu-v8/source/optee_os/lib/libutee/tee_api.c:345
    2da0:	94000064 	bl	2f30 <TEE_Panic>
/home/jayanth/quemu-v8/source/optee_os/lib/libutee/tee_api.c:348
    2da4:	2a1303e0 	mov	w0, w19
    2da8:	f9400bf3 	ldr	x19, [sp, #16]
    2dac:	a8c27bfd 	ldp	x29, x30, [sp], #32
    2db0:	d65f03c0 	ret

0000000000002db4 <TEE_GetTAPersistentTime>:
TEE_GetTAPersistentTime():
/home/jayanth/quemu-v8/source/optee_os/lib/libutee/tee_api.c:351
    2db4:	a9be7bfd 	stp	x29, x30, [sp, #-32]!
/home/jayanth/quemu-v8/source/optee_os/lib/libutee/tee_api.c:354
    2db8:	aa0003e1 	mov	x1, x0
/home/jayanth/quemu-v8/source/optee_os/lib/libutee/tee_api.c:351
    2dbc:	910003fd 	mov	x29, sp
    2dc0:	a90153f3 	stp	x19, x20, [sp, #16]
    2dc4:	aa0003f4 	mov	x20, x0
/home/jayanth/quemu-v8/source/optee_os/lib/libutee/tee_api.c:354
    2dc8:	d2800020 	mov	x0, #0x1                   	// #1
    2dcc:	94000132 	bl	3294 <_utee_get_time>
/home/jayanth/quemu-v8/source/optee_os/lib/libutee/tee_api.c:356
    2dd0:	7100001f 	cmp	w0, #0x0
/home/jayanth/quemu-v8/source/optee_os/lib/libutee/tee_api.c:354
    2dd4:	2a0003f3 	mov	w19, w0
/home/jayanth/quemu-v8/source/optee_os/lib/libutee/tee_api.c:356
    2dd8:	1a9f07e2 	cset	w2, ne  // ne = any
    2ddc:	1299fe00 	mov	w0, #0xffff300f            	// #-53233
    2de0:	6b00027f 	cmp	w19, w0
    2de4:	1a9f1041 	csel	w1, w2, wzr, ne  // ne = any
    2de8:	34000041 	cbz	w1, 2df0 <TEE_GetTAPersistentTime+0x3c>
/home/jayanth/quemu-v8/source/optee_os/lib/libutee/tee_api.c:358
    2dec:	29007e9f 	stp	wzr, wzr, [x20]
/home/jayanth/quemu-v8/source/optee_os/lib/libutee/tee_api.c:362
    2df0:	11402e60 	add	w0, w19, #0xb, lsl #12
/home/jayanth/quemu-v8/source/optee_os/lib/libutee/tee_api.c:361
    2df4:	7100005f 	cmp	w2, #0x0
    2df8:	7a411800 	ccmp	w0, #0x1, #0x0, ne  // ne = any
    2dfc:	540000e9 	b.ls	2e18 <TEE_GetTAPersistentTime+0x64>  // b.plast
/home/jayanth/quemu-v8/source/optee_os/lib/libutee/tee_api.c:363
    2e00:	340000c1 	cbz	w1, 2e18 <TEE_GetTAPersistentTime+0x64>
/home/jayanth/quemu-v8/source/optee_os/lib/libutee/tee_api.c:364
    2e04:	129ffe60 	mov	w0, #0xffff000c            	// #-65524
    2e08:	6b00027f 	cmp	w19, w0
    2e0c:	54000060 	b.eq	2e18 <TEE_GetTAPersistentTime+0x64>  // b.none
/home/jayanth/quemu-v8/source/optee_os/lib/libutee/tee_api.c:366
    2e10:	2a1303e0 	mov	w0, w19
    2e14:	94000047 	bl	2f30 <TEE_Panic>
/home/jayanth/quemu-v8/source/optee_os/lib/libutee/tee_api.c:369
    2e18:	2a1303e0 	mov	w0, w19
    2e1c:	a94153f3 	ldp	x19, x20, [sp, #16]
    2e20:	a8c27bfd 	ldp	x29, x30, [sp], #32
    2e24:	d65f03c0 	ret

0000000000002e28 <TEE_SetTAPersistentTime>:
TEE_SetTAPersistentTime():
/home/jayanth/quemu-v8/source/optee_os/lib/libutee/tee_api.c:372
    2e28:	a9be7bfd 	stp	x29, x30, [sp, #-32]!
    2e2c:	910003fd 	mov	x29, sp
    2e30:	f9000bf3 	str	x19, [sp, #16]
/home/jayanth/quemu-v8/source/optee_os/lib/libutee/tee_api.c:375
    2e34:	9400011b 	bl	32a0 <_utee_set_ta_time>
/home/jayanth/quemu-v8/source/optee_os/lib/libutee/tee_api.c:377
    2e38:	7100001f 	cmp	w0, #0x0
    2e3c:	129ffe61 	mov	w1, #0xffff000c            	// #-65524
/home/jayanth/quemu-v8/source/optee_os/lib/libutee/tee_api.c:375
    2e40:	2a0003f3 	mov	w19, w0
/home/jayanth/quemu-v8/source/optee_os/lib/libutee/tee_api.c:377
    2e44:	7a411004 	ccmp	w0, w1, #0x4, ne  // ne = any
    2e48:	540000a0 	b.eq	2e5c <TEE_SetTAPersistentTime+0x34>  // b.none
/home/jayanth/quemu-v8/source/optee_os/lib/libutee/tee_api.c:378
    2e4c:	1299f7c1 	mov	w1, #0xffff3041            	// #-53183
    2e50:	6b01001f 	cmp	w0, w1
    2e54:	54000040 	b.eq	2e5c <TEE_SetTAPersistentTime+0x34>  // b.none
/home/jayanth/quemu-v8/source/optee_os/lib/libutee/tee_api.c:380
    2e58:	94000036 	bl	2f30 <TEE_Panic>
/home/jayanth/quemu-v8/source/optee_os/lib/libutee/tee_api.c:383
    2e5c:	2a1303e0 	mov	w0, w19
    2e60:	f9400bf3 	ldr	x19, [sp, #16]
    2e64:	a8c27bfd 	ldp	x29, x30, [sp], #32
    2e68:	d65f03c0 	ret

0000000000002e6c <TEE_GetREETime>:
TEE_GetREETime():
/home/jayanth/quemu-v8/source/optee_os/lib/libutee/tee_api.c:386
    2e6c:	a9bf7bfd 	stp	x29, x30, [sp, #-16]!
/home/jayanth/quemu-v8/source/optee_os/lib/libutee/tee_api.c:387
    2e70:	aa0003e1 	mov	x1, x0
    2e74:	d2800040 	mov	x0, #0x2                   	// #2
/home/jayanth/quemu-v8/source/optee_os/lib/libutee/tee_api.c:386
    2e78:	910003fd 	mov	x29, sp
/home/jayanth/quemu-v8/source/optee_os/lib/libutee/tee_api.c:387
    2e7c:	94000106 	bl	3294 <_utee_get_time>
/home/jayanth/quemu-v8/source/optee_os/lib/libutee/tee_api.c:389
    2e80:	34000060 	cbz	w0, 2e8c <TEE_GetREETime+0x20>
/home/jayanth/quemu-v8/source/optee_os/lib/libutee/tee_api.c:391
    2e84:	a8c17bfd 	ldp	x29, x30, [sp], #16
/home/jayanth/quemu-v8/source/optee_os/lib/libutee/tee_api.c:390
    2e88:	1400002a 	b	2f30 <TEE_Panic>
/home/jayanth/quemu-v8/source/optee_os/lib/libutee/tee_api.c:391
    2e8c:	a8c17bfd 	ldp	x29, x30, [sp], #16
    2e90:	d65f03c0 	ret

0000000000002e94 <TEE_Malloc>:
TEE_Malloc():
/home/jayanth/quemu-v8/source/optee_os/lib/libutee/tee_api.c:395
    2e94:	35000081 	cbnz	w1, 2ea4 <TEE_Malloc+0x10>
/home/jayanth/quemu-v8/source/optee_os/lib/libutee/tee_api.c:396
    2e98:	2a0003e1 	mov	w1, w0
    2e9c:	d2800020 	mov	x0, #0x1                   	// #1
    2ea0:	17fff833 	b	f6c <calloc>
    2ea4:	2a0103e5 	mov	w5, w1
/home/jayanth/quemu-v8/source/optee_os/lib/libutee/tee_api.c:397
    2ea8:	52b00001 	mov	w1, #0x80000000            	// #-2147483648
    2eac:	6b0100bf 	cmp	w5, w1
    2eb0:	54000061 	b.ne	2ebc <TEE_Malloc+0x28>  // b.any
/home/jayanth/quemu-v8/source/optee_os/lib/libutee/tee_api.c:398
    2eb4:	2a0003e0 	mov	w0, w0
    2eb8:	17fff817 	b	f14 <malloc>
/home/jayanth/quemu-v8/source/optee_os/lib/libutee/tee_api.c:394
    2ebc:	a9bf7bfd 	stp	x29, x30, [sp, #-16]!
/home/jayanth/quemu-v8/source/optee_os/lib/libutee/tee_api.c:400
    2ec0:	52800023 	mov	w3, #0x1                   	// #1
    2ec4:	52800022 	mov	w2, #0x1                   	// #1
/home/jayanth/quemu-v8/source/optee_os/lib/libutee/tee_api.c:394
    2ec8:	910003fd 	mov	x29, sp
/home/jayanth/quemu-v8/source/optee_os/lib/libutee/tee_api.c:400
    2ecc:	52803201 	mov	w1, #0x190                 	// #400
    2ed0:	d0000044 	adrp	x4, c000 <__func__.4194+0x3e3>
    2ed4:	d0000040 	adrp	x0, c000 <__func__.4194+0x3e3>
    2ed8:	9103a884 	add	x4, x4, #0xea
    2edc:	9103ec00 	add	x0, x0, #0xfb
    2ee0:	97fff9d3 	bl	162c <trace_printf>
/home/jayanth/quemu-v8/source/optee_os/lib/libutee/tee_api.c:403
    2ee4:	d2800000 	mov	x0, #0x0                   	// #0
    2ee8:	a8c17bfd 	ldp	x29, x30, [sp], #16
    2eec:	d65f03c0 	ret

0000000000002ef0 <TEE_Realloc>:
TEE_Realloc():
/home/jayanth/quemu-v8/source/optee_os/lib/libutee/tee_api.c:407
    2ef0:	2a0103e1 	mov	w1, w1
    2ef4:	17fff838 	b	fd4 <realloc>

0000000000002ef8 <TEE_Free>:
TEE_Free():
/home/jayanth/quemu-v8/source/optee_os/lib/libutee/tee_api.c:412
    2ef8:	17fff86b 	b	10a4 <free>

0000000000002efc <TEE_CacheClean>:
TEE_CacheClean():
/home/jayanth/quemu-v8/source/optee_os/lib/libutee/tee_api.c:418
    2efc:	d2800002 	mov	x2, #0x0                   	// #0
    2f00:	14000163 	b	348c <_utee_cache_operation>

0000000000002f04 <TEE_CacheFlush>:
TEE_CacheFlush():
/home/jayanth/quemu-v8/source/optee_os/lib/libutee/tee_api.c:422
    2f04:	d2800022 	mov	x2, #0x1                   	// #1
    2f08:	14000161 	b	348c <_utee_cache_operation>

0000000000002f0c <TEE_CacheInvalidate>:
TEE_CacheInvalidate():
/home/jayanth/quemu-v8/source/optee_os/lib/libutee/tee_api.c:427
    2f0c:	d2800042 	mov	x2, #0x2                   	// #2
    2f10:	1400015f 	b	348c <_utee_cache_operation>

0000000000002f14 <check_access>:
check_access():
/home/jayanth/quemu-v8/source/optee_os/lib/libutee/tee_api_panic.c:37
    2f14:	b4000062 	cbz	x2, 2f20 <check_access+0xc>
/home/jayanth/quemu-v8/source/optee_os/lib/libutee/tee_api_panic.c:40
    2f18:	b4000081 	cbz	x1, 2f28 <check_access+0x14>
/home/jayanth/quemu-v8/source/optee_os/lib/libutee/tee_api_panic.c:44
    2f1c:	17fffe80 	b	291c <TEE_CheckMemoryAccessRights>
/home/jayanth/quemu-v8/source/optee_os/lib/libutee/tee_api_panic.c:38
    2f20:	52800000 	mov	w0, #0x0                   	// #0
/home/jayanth/quemu-v8/source/optee_os/lib/libutee/tee_api_panic.c:47
    2f24:	d65f03c0 	ret
/home/jayanth/quemu-v8/source/optee_os/lib/libutee/tee_api_panic.c:41
    2f28:	129ffe00 	mov	w0, #0xffff000f            	// #-65521
    2f2c:	17fffffe 	b	2f24 <check_access+0x10>

0000000000002f30 <TEE_Panic>:
TEE_Panic():
/home/jayanth/quemu-v8/source/optee_os/lib/libutee/tee_api_panic.c:24
    2f30:	2a0003e0 	mov	w0, w0
    2f34:	140000ae 	b	31ec <_utee_panic>

0000000000002f38 <check_res.isra.0>:
check_res():
/home/jayanth/quemu-v8/source/optee_os/lib/libutee/tee_api_panic.c:29
    2f38:	34000060 	cbz	w0, 2f44 <check_res.isra.0+0xc>
/home/jayanth/quemu-v8/source/optee_os/lib/libutee/tee_api_panic.c:31
    2f3c:	52800000 	mov	w0, #0x0                   	// #0
    2f40:	17fffffc 	b	2f30 <TEE_Panic>
/home/jayanth/quemu-v8/source/optee_os/lib/libutee/tee_api_panic.c:33
    2f44:	d65f03c0 	ret

0000000000002f48 <__utee_check_outbuf_annotation>:
__utee_check_outbuf_annotation():
/home/jayanth/quemu-v8/source/optee_os/lib/libutee/tee_api_panic.c:50
    2f48:	a9be7bfd 	stp	x29, x30, [sp, #-32]!
    2f4c:	910003fd 	mov	x29, sp
    2f50:	a90153f3 	stp	x19, x20, [sp, #16]
    2f54:	aa0003f4 	mov	x20, x0
    2f58:	aa0103f3 	mov	x19, x1
check_access():
/home/jayanth/quemu-v8/source/optee_os/lib/libutee/tee_api_panic.c:40
    2f5c:	b4000181 	cbz	x1, 2f8c <__utee_check_outbuf_annotation+0x44>
/home/jayanth/quemu-v8/source/optee_os/lib/libutee/tee_api_panic.c:44
    2f60:	52800082 	mov	w2, #0x4                   	// #4
    2f64:	52800060 	mov	w0, #0x3                   	// #3
    2f68:	97fffe6d 	bl	291c <TEE_CheckMemoryAccessRights>
__utee_check_outbuf_annotation():
/home/jayanth/quemu-v8/source/optee_os/lib/libutee/tee_api_panic.c:51
    2f6c:	97fffff3 	bl	2f38 <check_res.isra.0>
/home/jayanth/quemu-v8/source/optee_os/lib/libutee/tee_api_panic.c:53
    2f70:	b9400262 	ldr	w2, [x19]
    2f74:	aa1403e1 	mov	x1, x20
    2f78:	528000c0 	mov	w0, #0x6                   	// #6
    2f7c:	97ffffe6 	bl	2f14 <check_access>
/home/jayanth/quemu-v8/source/optee_os/lib/libutee/tee_api_panic.c:55
    2f80:	a94153f3 	ldp	x19, x20, [sp, #16]
    2f84:	a8c27bfd 	ldp	x29, x30, [sp], #32
/home/jayanth/quemu-v8/source/optee_os/lib/libutee/tee_api_panic.c:53
    2f88:	17ffffec 	b	2f38 <check_res.isra.0>
check_access():
/home/jayanth/quemu-v8/source/optee_os/lib/libutee/tee_api_panic.c:41
    2f8c:	129ffe00 	mov	w0, #0xffff000f            	// #-65521
    2f90:	17fffff7 	b	2f6c <__utee_check_outbuf_annotation+0x24>

0000000000002f94 <__utee_check_instring_annotation>:
__utee_check_instring_annotation():
/home/jayanth/quemu-v8/source/optee_os/lib/libutee/tee_api_panic.c:58
    2f94:	a9be7bfd 	stp	x29, x30, [sp, #-32]!
    2f98:	910003fd 	mov	x29, sp
    2f9c:	f9000bf3 	str	x19, [sp, #16]
    2fa0:	aa0003f3 	mov	x19, x0
/home/jayanth/quemu-v8/source/optee_os/lib/libutee/tee_api_panic.c:60
    2fa4:	97fff914 	bl	13f4 <strlen>
/home/jayanth/quemu-v8/source/optee_os/lib/libutee/tee_api_panic.c:59
    2fa8:	91000402 	add	x2, x0, #0x1
    2fac:	aa1303e1 	mov	x1, x19
    2fb0:	52800020 	mov	w0, #0x1                   	// #1
    2fb4:	97ffffd8 	bl	2f14 <check_access>
/home/jayanth/quemu-v8/source/optee_os/lib/libutee/tee_api_panic.c:61
    2fb8:	f9400bf3 	ldr	x19, [sp, #16]
    2fbc:	a8c27bfd 	ldp	x29, x30, [sp], #32
/home/jayanth/quemu-v8/source/optee_os/lib/libutee/tee_api_panic.c:59
    2fc0:	17ffffde 	b	2f38 <check_res.isra.0>

0000000000002fc4 <__utee_check_outstring_annotation>:
__utee_check_outstring_annotation():
/home/jayanth/quemu-v8/source/optee_os/lib/libutee/tee_api_panic.c:64
    2fc4:	a9be7bfd 	stp	x29, x30, [sp, #-32]!
    2fc8:	910003fd 	mov	x29, sp
    2fcc:	a90153f3 	stp	x19, x20, [sp, #16]
    2fd0:	aa0003f4 	mov	x20, x0
    2fd4:	aa0103f3 	mov	x19, x1
check_access():
/home/jayanth/quemu-v8/source/optee_os/lib/libutee/tee_api_panic.c:40
    2fd8:	b4000181 	cbz	x1, 3008 <__utee_check_outstring_annotation+0x44>
/home/jayanth/quemu-v8/source/optee_os/lib/libutee/tee_api_panic.c:44
    2fdc:	52800082 	mov	w2, #0x4                   	// #4
    2fe0:	52800060 	mov	w0, #0x3                   	// #3
    2fe4:	97fffe4e 	bl	291c <TEE_CheckMemoryAccessRights>
__utee_check_outstring_annotation():
/home/jayanth/quemu-v8/source/optee_os/lib/libutee/tee_api_panic.c:65
    2fe8:	97ffffd4 	bl	2f38 <check_res.isra.0>
/home/jayanth/quemu-v8/source/optee_os/lib/libutee/tee_api_panic.c:67
    2fec:	b9400262 	ldr	w2, [x19]
    2ff0:	aa1403e1 	mov	x1, x20
    2ff4:	528000c0 	mov	w0, #0x6                   	// #6
    2ff8:	97ffffc7 	bl	2f14 <check_access>
/home/jayanth/quemu-v8/source/optee_os/lib/libutee/tee_api_panic.c:69
    2ffc:	a94153f3 	ldp	x19, x20, [sp, #16]
    3000:	a8c27bfd 	ldp	x29, x30, [sp], #32
/home/jayanth/quemu-v8/source/optee_os/lib/libutee/tee_api_panic.c:67
    3004:	17ffffcd 	b	2f38 <check_res.isra.0>
check_access():
/home/jayanth/quemu-v8/source/optee_os/lib/libutee/tee_api_panic.c:41
    3008:	129ffe00 	mov	w0, #0xffff000f            	// #-65521
