
8aaaf200-2450-11e4-abe2-0002a5d5c51b.elf:     file format elf64-littleaarch64
8aaaf200-2450-11e4-abe2-0002a5d5c51b.elf
architecture: aarch64, flags 0x00000150:
HAS_SYMS, DYNAMIC, D_PAGED
start address 0x0000000000000404

Program Header:
    LOAD off    0x0000000000001000 vaddr 0x0000000000000000 paddr 0x0000000000000000 align 2**12
         filesz 0x000000000000cbf0 memsz 0x000000000000cbf0 flags r-x
    LOAD off    0x000000000000e000 vaddr 0x000000000000d000 paddr 0x000000000000d000 align 2**12
         filesz 0x0000000000000454 memsz 0x000000000000b4f8 flags rw-
 DYNAMIC off    0x000000000000e000 vaddr 0x000000000000d000 paddr 0x000000000000d000 align 2**3
         filesz 0x0000000000000110 memsz 0x0000000000000110 flags rw-
   STACK off    0x0000000000000000 vaddr 0x0000000000000000 paddr 0x0000000000000000 align 2**4
         filesz 0x0000000000000000 memsz 0x0000000000000000 flags rw-

Dynamic Section:
  HASH                 0x000000000000c9a8
  GNU_HASH             0x000000000000c908
  STRTAB               0x000000000000c990
  SYMTAB               0x000000000000c930
  STRSZ                0x0000000000000011
  SYMENT               0x0000000000000018
  DEBUG                0x0000000000000000
  RELA                 0x000000000000c9c8
  RELASZ               0x0000000000000360
  RELAENT              0x0000000000000018
  FLAGS_1              0x0000000008000000
  RELACOUNT            0x0000000000000017
private flags = 0:

Sections:
Idx Name          Size      VMA               LMA               File off  Algn
  0 .ta_head      00000020  0000000000000000  0000000000000000  00001000  2**3
                  CONTENTS, ALLOC, LOAD, READONLY, DATA
  1 .text         00009858  0000000000000020  0000000000000020  00001020  2**3
                  CONTENTS, ALLOC, LOAD, READONLY, CODE
  2 .eh_frame     00001e94  0000000000009878  0000000000009878  0000a878  2**3
                  CONTENTS, ALLOC, LOAD, READONLY, DATA
  3 .rodata       000011f1  000000000000b710  000000000000b710  0000c710  2**3
                  CONTENTS, ALLOC, LOAD, READONLY, DATA
  4 .gnu.hash     00000024  000000000000c908  000000000000c908  0000d908  2**3
                  CONTENTS, ALLOC, LOAD, READONLY, DATA
  5 .dynsym       00000060  000000000000c930  000000000000c930  0000d930  2**3
                  CONTENTS, ALLOC, LOAD, READONLY, DATA
  6 .dynstr       00000011  000000000000c990  000000000000c990  0000d990  2**0
                  CONTENTS, ALLOC, LOAD, READONLY, DATA
  7 .hash         0000001c  000000000000c9a8  000000000000c9a8  0000d9a8  2**3
                  CONTENTS, ALLOC, LOAD, READONLY, DATA
  8 .rela.dyn     00000228  000000000000c9c8  000000000000c9c8  0000d9c8  2**3
                  CONTENTS, ALLOC, LOAD, READONLY, DATA
  9 .dynamic      00000110  000000000000d000  000000000000d000  0000e000  2**3
                  CONTENTS, ALLOC, LOAD, DATA
 10 .got          00000088  000000000000d110  000000000000d110  0000e110  2**3
                  CONTENTS, ALLOC, LOAD, DATA
 11 .rela.got     00000138  000000000000d198  000000000000d198  0000e198  2**3
                  CONTENTS, ALLOC, LOAD, READONLY, DATA
 12 .data         00000184  000000000000d2d0  000000000000d2d0  0000e2d0  2**3
                  CONTENTS, ALLOC, LOAD, DATA
 13 .bss          0000b0a0  000000000000d458  000000000000d458  0000e454  2**3
                  ALLOC
 14 .debug_info   00014a0c  0000000000000000  0000000000000000  0000e454  2**0
                  CONTENTS, READONLY, DEBUGGING
 15 .debug_abbrev 000038d8  0000000000000000  0000000000000000  00022e60  2**0
                  CONTENTS, READONLY, DEBUGGING
 16 .debug_loc    0001dd5b  0000000000000000  0000000000000000  00026738  2**0
                  CONTENTS, READONLY, DEBUGGING
 17 .debug_aranges 00000920  0000000000000000  0000000000000000  000444a0  2**4
                  CONTENTS, READONLY, DEBUGGING
 18 .debug_ranges 00001a00  0000000000000000  0000000000000000  00044dc0  2**4
                  CONTENTS, READONLY, DEBUGGING
 19 .debug_macro  0001606f  0000000000000000  0000000000000000  000467c0  2**0
                  CONTENTS, READONLY, DEBUGGING
 20 .debug_line   0000ccc4  0000000000000000  0000000000000000  0005c82f  2**0
                  CONTENTS, READONLY, DEBUGGING
 21 .debug_str    00016c09  0000000000000000  0000000000000000  000694f3  2**0
                  CONTENTS, READONLY, DEBUGGING
 22 .comment      0000005a  0000000000000000  0000000000000000  000800fc  2**0
                  CONTENTS, READONLY
SYMBOL TABLE:
0000000000000000 l    d  .ta_head	0000000000000000 .ta_head
0000000000000020 l    d  .text	0000000000000000 .text
0000000000009878 l    d  .eh_frame	0000000000000000 .eh_frame
000000000000b710 l    d  .rodata	0000000000000000 .rodata
000000000000c908 l    d  .gnu.hash	0000000000000000 .gnu.hash
000000000000c930 l    d  .dynsym	0000000000000000 .dynsym
000000000000c990 l    d  .dynstr	0000000000000000 .dynstr
000000000000c9a8 l    d  .hash	0000000000000000 .hash
000000000000c9c8 l    d  .rela.dyn	0000000000000000 .rela.dyn
000000000000d000 l    d  .dynamic	0000000000000000 .dynamic
000000000000d110 l    d  .got	0000000000000000 .got
000000000000d198 l    d  .rela.got	0000000000000000 .rela.got
000000000000d2d0 l    d  .data	0000000000000000 .data
000000000000d458 l    d  .bss	0000000000000000 .bss
0000000000000000 l    d  .debug_info	0000000000000000 .debug_info
0000000000000000 l    d  .debug_abbrev	0000000000000000 .debug_abbrev
0000000000000000 l    d  .debug_loc	0000000000000000 .debug_loc
0000000000000000 l    d  .debug_aranges	0000000000000000 .debug_aranges
0000000000000000 l    d  .debug_ranges	0000000000000000 .debug_ranges
0000000000000000 l    d  .debug_macro	0000000000000000 .debug_macro
0000000000000000 l    d  .debug_line	0000000000000000 .debug_line
0000000000000000 l    d  .debug_str	0000000000000000 .debug_str
0000000000000000 l    d  .comment	0000000000000000 .comment
0000000000000000 l    df *ABS*	0000000000000000 user_ta_header.c
000000000000b718 l     O .rodata	0000000000000004 __compound_literal.5
000000000000b71c l     O .rodata	0000000000000004 __compound_literal.4
000000000000b720 l     O .rodata	0000000000000004 __compound_literal.3
000000000000b724 l     O .rodata	0000000000000001 __compound_literal.2
000000000000b725 l     O .rodata	0000000000000001 __compound_literal.1
000000000000b726 l     O .rodata	0000000000000001 __compound_literal.0
0000000000000000 l    df *ABS*	0000000000000000 memcpy.c
0000000000000000 l    df *ABS*	0000000000000000 hello_qemu_ta.c
000000000000bbb7 l     O .rodata	0000000000000014 __func__.4161
000000000000bbcb l     O .rodata	0000000000000015 __func__.4165
000000000000bbe0 l     O .rodata	0000000000000019 __func__.4172
000000000000bbf9 l     O .rodata	000000000000001a __func__.4176
000000000000bc13 l     O .rodata	000000000000000a __func__.4188
000000000000bc1d l     O .rodata	000000000000000a __func__.4194
0000000000000000 l    df *ABS*	0000000000000000 dlfcn.c
0000000000000420 l     F .text	0000000000000098 invoke_system_pta.constprop.0
000000000000d458 l     O .bss	0000000000000008 sess
000000000000d460 l     O .bss	0000000000000008 hcount
0000000000000000 l    df *ABS*	0000000000000000 bget_malloc.c
0000000000000634 l     F .text	0000000000000044 raw_malloc_return_hook.constprop.0
000000000000c014 l     O .rodata	0000000000000005 __func__.3748
000000000000c019 l     O .rodata	0000000000000006 __func__.3768
000000000000c01f l     O .rodata	0000000000000005 __func__.3788
000000000000c024 l     O .rodata	0000000000000006 __func__.3779
000000000000c02a l     O .rodata	0000000000000006 __func__.3797
000000000000c030 l     O .rodata	0000000000000007 __func__.3807
000000000000c037 l     O .rodata	0000000000000014 __func__.3980
000000000000c04b l     O .rodata	000000000000000e __func__.3925
000000000000c059 l     O .rodata	0000000000000013 __func__.3869
000000000000d3a8 l     O .data	0000000000000080 malloc_ctx
0000000000000000 l    df *ABS*	0000000000000000 memset.c
0000000000000000 l    df *ABS*	0000000000000000 strlen.c
0000000000000000 l    df *ABS*	0000000000000000 trace.c
000000000000c086 l     O .rodata	0000000000000005 lvl_strs.3567
0000000000000000 l    df *ABS*	0000000000000000 snprintk.c
00000000000017f8 l     F .text	0000000000000bac kprintf.constprop.0
000000000000b7ce l     O .rodata	0000000000000011 HEXDIGITS
000000000000b7df l     O .rodata	0000000000000011 hexdigits
0000000000000000 l    df *ABS*	0000000000000000 memchr.c
0000000000000000 l    df *ABS*	0000000000000000 assert.c
0000000000000000 l    df *ABS*	0000000000000000 tee_uuid_from_str.c
0000000000002474 l     F .text	000000000000008c parse_hex
0000000000000000 l    df *ABS*	0000000000000000 trace_ext.c
0000000000000000 l    df *ABS*	0000000000000000 tee_api.c
00000000000027c4 l     F .text	00000000000000ac update_out_param
0000000000002930 l     F .text	00000000000001d0 copy_param
000000000000c0fb l     O .rodata	000000000000000b __func__.4822
000000000000d468 l     O .bss	0000000000000008 tee_api_instance_data
0000000000000000 l    df *ABS*	0000000000000000 tee_api_panic.c
0000000000002f14 l     F .text	000000000000001c check_access
0000000000002f38 l     F .text	0000000000000010 check_res.isra.0
0000000000000000 l    df *ABS*	0000000000000000 tee_system_pta.c
0000000000003074 l     F .text	0000000000000088 invoke_system_pta
000000000000b7f0 l     O .rodata	0000000000000010 uuid.4227
000000000000b800 l     O .rodata	000000000000000a __func__.4247
000000000000d470 l     O .bss	0000000000000008 sess.4226
0000000000000000 l    df *ABS*	0000000000000000 utee_syscalls_a64.o
0000000000000000 l    df *ABS*	0000000000000000 tcb.c
000000000000c1c6 l     O .rodata	0000000000000010 __func__.3977
000000000000c1d6 l     O .rodata	0000000000000010 __func__.4004
000000000000d478 l     O .bss	0000000000000008 _tls_size
000000000000d480 l     O .bss	0000000000000008 _tcb
0000000000000000 l    df *ABS*	0000000000000000 user_ta_entry.c
00000000000037e4 l     F .text	0000000000000028 ta_header_get_session
000000000000380c l     F .text	000000000000006c to_utee_params
0000000000003878 l     F .text	0000000000000060 from_utee_params
00000000000038d8 l     F .text	0000000000000094 _init_iterate_phdr_cb
000000000000396c l     F .text	0000000000000014 ta_header_save_params.part.0
0000000000003980 l     F .text	00000000000000ac _get_fn_array.constprop.0
0000000000003a2c l     F .text	0000000000000058 _fini_iterate_phdr_cb
0000000000003bb4 l     F .text	0000000000000098 ta_header_remove_session
000000000000c1ff l     O .rodata	0000000000000016 __func__.4864
000000000000d488 l     O .bss	0000000000000008 _num_mod_init
000000000000d490 l     O .bss	0000000000000001 init_done
000000000000d428 l     O .data	0000000000000010 ta_sessions
000000000000d438 l     O .data	0000000000000010 __phdr_info_head
0000000000000000 l    df *ABS*	0000000000000000 abort.c
0000000000000000 l    df *ABS*	0000000000000000 tee_api_arith_mpi.c
0000000000003e74 l     F .text	0000000000000030 api_panic
0000000000003ea4 l     F .text	0000000000000030 mpi_panic
0000000000003ed4 l     F .text	0000000000000098 get_mpi
0000000000003f6c l     F .text	0000000000000064 copy_mpi_to_bigint
0000000000003fd0 l     F .text	0000000000000118 bigint_binary
00000000000040e8 l     F .text	0000000000000020 mpi_is_odd
0000000000004108 l     F .text	0000000000000028 rng_read
0000000000004130 l     F .text	0000000000000540 mpi_egcd
000000000000d4f0 l     O .bss	0000000000003000 data.4809
0000000000004a08 l     F .text	0000000000000194 bigint_binary_mod
000000000000c2d3 l     O .rodata	0000000000000008 __func__.4843
000000000000c2db l     O .rodata	000000000000000e __func__.4940
000000000000c2e9 l     O .rodata	0000000000000009 __func__.5086
000000000000c2f2 l     O .rodata	0000000000000012 __func__.4810
000000000000c304 l     O .rodata	000000000000000f __func__.4849
000000000000c313 l     O .rodata	000000000000001f __func__.4867
000000000000c332 l     O .rodata	0000000000000019 __func__.4874
000000000000c34b l     O .rodata	0000000000000012 __func__.4952
000000000000c35d l     O .rodata	0000000000000015 __func__.4905
000000000000c372 l     O .rodata	000000000000000e __func__.4980
000000000000c380 l     O .rodata	000000000000000e __func__.5009
000000000000c38e l     O .rodata	000000000000000e __func__.5017
000000000000c39c l     O .rodata	0000000000000011 __func__.5046
000000000000c3ad l     O .rodata	0000000000000018 __func__.5063
000000000000c3c5 l     O .rodata	000000000000001d __func__.5143
000000000000c3e2 l     O .rodata	0000000000000019 __func__.5196
000000000000c3fb l     O .rodata	0000000000000015 __func__.5211
0000000000000000 l    df *ABS*	0000000000000000 bignum.c
00000000000057b4 l     F .text	0000000000000064 mpi_get_digit
0000000000005818 l     F .text	0000000000000060 mpi_sub_hlp
0000000000005878 l     F .text	0000000000000404 mpi_mul_hlp
0000000000005c7c l     F .text	0000000000000074 mpi_bigendian_to_host.part.0
0000000000007b2c l     F .text	0000000000000090 mpi_check_small_factors
0000000000008658 l     F .text	0000000000000270 mpi_miller_rabin
000000000000b80c l     O .rodata	00000000000002a0 small_prime
000000000000baac l     O .rodata	0000000000000024 gcd_pairs
0000000000000000 l    df *ABS*	0000000000000000 platform_util.c
000000000000d448 l     O .data	0000000000000008 memset_func
0000000000000000 l    df *ABS*	0000000000000000 isxdigit.c
0000000000000000 l    df *ABS*	0000000000000000 snprintf.c
0000000000000000 l    df *ABS*	0000000000000000 tolower.c
0000000000000000 l    df *ABS*	0000000000000000 memmove.c
0000000000000000 l    df *ABS*	0000000000000000 strnlen.c
0000000000000000 l    df *ABS*	0000000000000000 mempool.c
000000000000c8e0 l     O .rodata	0000000000000013 __func__.3621
000000000000c8f3 l     O .rodata	000000000000000e __func__.3630
0000000000000000 l    df *ABS*	0000000000000000 consttime_memcmp.c
0000000000000000 l    df *ABS*	0000000000000000 
000000000000d000 l     O *ABS*	0000000000000000 _DYNAMIC
000000000000d128 l     O *ABS*	0000000000000000 _GLOBAL_OFFSET_TABLE_
0000000000002788 g     F .text	000000000000003c putchar
0000000000005600 g     F .text	0000000000000004 TEE_BigIntConvertToFMM
000000000000515c g     F .text	000000000000000c TEE_BigIntSquareMod
0000000000004b9c g     F .text	000000000000016c TEE_BigIntShiftRight
0000000000005d94 g     F .text	00000000000000e8 mbedtls_mpi_grow
0000000000002ef0 g     F .text	0000000000000008 TEE_Realloc
0000000000003054 g     F .text	0000000000000020 __utee_check_inout_annotation
0000000000002680 g     F .text	00000000000000c8 printf
0000000000003204 g     F .text	000000000000000c _utee_log
0000000000002bf8 g     F .text	0000000000000128 TEE_InvokeTACommand
0000000000002f48 g     F .text	000000000000004c __utee_check_outbuf_annotation
0000000000005d00 g     F .text	0000000000000028 mbedtls_mpi_init_mempool
0000000000003384 g     F .text	000000000000000c _utee_cryp_random_number_generate
0000000000006660 g     F .text	00000000000000c4 mbedtls_mpi_write_binary
0000000000002500 g     F .text	0000000000000150 tee_uuid_from_str
000000000000172c g     F .text	0000000000000058 vsnprintk
0000000000006eb8 g     F .text	0000000000000040 mbedtls_mpi_sub_int
00000000000095dc g     F .text	000000000000005c memmove
00000000000094f8 g     F .text	0000000000000078 snprintf
00000000000049c0 g     F .text	0000000000000048 TEE_BigIntCmpS32
0000000000005e7c g     F .text	0000000000000120 mbedtls_mpi_shrink
0000000000004d94 g     F .text	000000000000000c TEE_BigIntAdd
0000000000003324 g     F .text	000000000000000c _utee_cryp_obj_restrict_usage
000000000000b728 g     O .rodata	0000000000000008 ta_heap_size
00000000000033cc g     F .text	000000000000000c _utee_asymm_operate
0000000000007078 g     F .text	00000000000001e4 mbedtls_mpi_read_string
0000000000004dac g     F .text	00000000000000b0 TEE_BigIntNeg
0000000000003420 g     F .text	000000000000000c _utee_storage_free_enum
0000000000000020 g       .text	0000000000000000 __text_start
0000000000006834 g     F .text	00000000000000c0 mbedtls_mpi_shift_r
0000000000001374 g     F .text	0000000000000064 malloc_buffer_overlaps_heap
00000000000032d0 g     F .text	000000000000000c _utee_hash_init
0000000000005144 g     F .text	000000000000000c TEE_BigIntSubMod
0000000000008da4 g     F .text	0000000000000318 mbedtls_mpi_gen_prime
00000000000062b8 g     F .text	000000000000002c mbedtls_mpi_get_bit
00000000000064e0 g     F .text	00000000000000c8 mbedtls_mpi_read_binary
000000000000162c g     F .text	0000000000000070 trace_printf
0000000000007bf8 g     F .text	0000000000000130 mbedtls_mpi_montmul
000000000000348c g     F .text	000000000000000c _utee_cache_operation
0000000000000020 g     F .text	00000000000000ec memcpy
0000000000005604 g     F .text	000000000000009c TEE_BigIntConvertFromFMM
0000000000002f30 g     F .text	0000000000000008 TEE_Panic
0000000000002748 g     F .text	0000000000000040 puts
00000000000056a0 g     F .text	0000000000000114 TEE_BigIntComputeFMM
0000000000000edc g     F .text	0000000000000038 malloc_get_stats
0000000000002e6c g     F .text	0000000000000028 TEE_GetREETime
00000000000095c8 g     F .text	0000000000000014 tolower
000000000000d2d0 g     O .data	00000000000000d8 ta_props
0000000000002f94 g     F .text	0000000000000030 __utee_check_instring_annotation
0000000000000f14 g     F .text	0000000000000058 malloc
0000000000009570 g     F .text	0000000000000058 vsnprintf
000000000000d450 g     O .data	0000000000000004 trace_level
0000000000004958 g     F .text	0000000000000068 TEE_BigIntCmp
000000000000b710 g     O .rodata	0000000000000008 ta_num_props
0000000000000c84 g     F .text	00000000000000d4 bgetr
00000000000033e4 g     F .text	000000000000000c _utee_storage_obj_open
00000000000097c4 g     F .text	0000000000000044 mempool_free
00000000000032dc g     F .text	000000000000000c _utee_hash_update
00000000000047b8 g     F .text	0000000000000094 TEE_BigIntConvertToOctetString
00000000000063c4 g     F .text	000000000000005c mbedtls_mpi_bitlen
0000000000004d08 g     F .text	000000000000004c TEE_BigIntGetBit
000000000000b730 g     O .rodata	0000000000000003 trace_ext_prefix
0000000000003444 g     F .text	000000000000000c _utee_storage_next_enum
000000000000093c g     F .text	000000000000008c bgetz
0000000000002d2c g     F .text	000000000000000c TEE_GetInstanceData
0000000000002d78 g     F .text	000000000000003c TEE_Wait
0000000000006ef8 g     F .text	000000000000014c mbedtls_mpi_mul_mpi
0000000000002f04 g     F .text	0000000000000008 TEE_CacheFlush
000000000000143c g     F .text	00000000000001f0 trace_vprintf
0000000000000140 g     F .text	0000000000000024 TA_DestroyEntryPoint
0000000000005cf0 g     F .text	0000000000000010 mbedtls_mpi_init
00000000000033fc g     F .text	000000000000000c _utee_storage_obj_del
0000000000006370 g     F .text	0000000000000054 mbedtls_mpi_lsb
000000000000241c g     F .text	0000000000000044 _assert_log
00000000000032b8 g     F .text	000000000000000c _utee_cryp_state_copy
00000000000055f8 g     F .text	0000000000000008 TEE_BigIntFMMContextSizeInU32
0000000000003160 g     F .text	000000000000008c tee_unmap
0000000000000578 g     F .text	0000000000000048 dlclose
0000000000004670 g     F .text	0000000000000050 _TEE_MathAPI_Init
0000000000003498 g     F .text	0000000000000240 __utee_tcb_init
0000000000006d64 g     F .text	0000000000000088 mbedtls_mpi_add_mpi
0000000000003e54 g     F .text	0000000000000020 abort
0000000000003010 g     F .text	0000000000000020 __utee_check_out_annotation
00000000000104f8 g     O .bss	0000000000008000 ta_heap
0000000000005168 g     F .text	000000000000011c TEE_BigIntInvMod
00000000000094d0 g     F .text	0000000000000028 isxdigit
0000000000003a84 g     F .text	0000000000000120 __utee_call_elf_init_fn
00000000000001d4 g     F .text	0000000000000024 TA_CloseSessionEntryPoint
0000000000003240 g     F .text	000000000000000c _utee_close_ta_session
0000000000006dec g     F .text	000000000000008c mbedtls_mpi_sub_mpi
0000000000009808 g     F .text	0000000000000070 consttime_memcmp
00000000000031f8 g     F .text	000000000000000c _utee_return
0000000000003210 g     F .text	000000000000000c __utee_panic
00000000000036d8 g     F .text	000000000000001c __tls_get_addr
0000000000009638 g     F .text	0000000000000028 strnlen
00000000000001f8 g     F .text	000000000000020c TA_InvokeCommandEntryPoint
0000000000003ba4 g     F .text	0000000000000010 __utee_call_elf_fini_fn
00000000000010bc g     F .text	0000000000000018 free_wipe
00000000000096c8 g     F .text	00000000000000ac mempool_alloc
00000000000031ec g     F .text	000000000000000c _utee_panic
0000000000009774 g     F .text	0000000000000050 mempool_calloc
0000000000003480 g     F .text	000000000000000c _utee_cryp_obj_generate_key
0000000000003468 g     F .text	000000000000000c _utee_storage_obj_trunc
0000000000003270 g     F .text	000000000000000c _utee_unmask_cancellation
0000000000000f6c g     F .text	0000000000000068 calloc
0000000000002e94 g     F .text	000000000000005c TEE_Malloc
000000000000291c g     F .text	0000000000000014 TEE_CheckMemoryAccessRights
000000000000321c g     F .text	000000000000000c _utee_get_property
0000000000006250 g     F .text	0000000000000068 mbedtls_mpi_lset
0000000000000164 g     F .text	0000000000000070 TA_OpenSessionEntryPoint
00000000000036f4 g     F .text	00000000000000f0 dl_iterate_phdr
00000000000184f8 g       .bss	0000000000000000 __ftrace_buf_end
000000000000d498 g     O .bss	0000000000000004 ta_param_types
000000000000775c g     F .text	0000000000000040 mbedtls_mpi_div_int
0000000000008cec g     F .text	00000000000000a8 mbedtls_mpi_is_prime_ext
0000000000005590 g     F .text	0000000000000050 TEE_BigIntIsProbablePrime
0000000000007044 g     F .text	0000000000000034 mbedtls_mpi_mul_int
0000000000007d68 g     F .text	000000000000068c mbedtls_mpi_exp_mod
00000000000060b0 g     F .text	00000000000000c0 mbedtls_mpi_safe_cond_assign
0000000000006a64 g     F .text	00000000000000cc mbedtls_mpi_lt_mpi_ct
00000000000046c0 g     F .text	0000000000000064 TEE_BigIntInit
0000000000002fc4 g     F .text	000000000000004c __utee_check_outstring_annotation
0000000000002d38 g     F .text	0000000000000008 TEE_MemMove
00000000000094b0 g     F .text	0000000000000020 mbedtls_platform_zeroize
0000000000004724 g     F .text	0000000000000094 TEE_BigIntConvertFromOctetString
00000000000033c0 g     F .text	000000000000000c _utee_authenc_dec_final
00000000000068f4 g     F .text	000000000000009c mbedtls_mpi_cmp_abs
0000000000003450 g     F .text	000000000000000c _utee_storage_obj_read
00000000000023f0 g     F .text	000000000000002c memchr
00000000000028c4 g     F .text	000000000000002c TEE_UnmaskCancellation
00000000000090bc g     F .text	00000000000003f4 mbedtls_mpi_self_test
0000000000003474 g     F .text	000000000000000c _utee_storage_obj_seek
0000000000003264 g     F .text	000000000000000c _utee_check_access_rights
0000000000006b30 g     F .text	0000000000000040 mbedtls_mpi_cmp_int
000000000000342c g     F .text	000000000000000c _utee_storage_reset_enum
0000000000003030 g     F .text	0000000000000024 __utee_check_attr_in_annotation
00000000000033a8 g     F .text	000000000000000c _utee_authenc_update_payload
00000000000050cc g     F .text	000000000000006c TEE_BigIntMod
0000000000007850 g     F .text	00000000000000a0 mbedtls_mpi_mod_int
000000000000643c g     F .text	00000000000000a4 mbedtls_mpi_read_binary_le
0000000000004f4c g     F .text	0000000000000180 TEE_BigIntDiv
000000000000333c g     F .text	000000000000000c _utee_cryp_obj_alloc
00000000000184f8 g       .bss	0000000000000000 __ftrace_buf_start
00000000000004b8 g     F .text	00000000000000c0 dlopen
0000000000005f9c g     F .text	00000000000000b4 mbedtls_mpi_copy
0000000000000ec4 g     F .text	0000000000000018 malloc_reset_stats
00000000000023a4 g     F .text	000000000000004c __vsprintf
00000000000032a0 g     F .text	000000000000000c _utee_set_ta_time
000000000000324c g     F .text	000000000000000c _utee_invoke_ta_command
0000000000000fd4 g     F .text	0000000000000058 realloc
0000000000006050 g     F .text	0000000000000060 mbedtls_mpi_swap
0000000000009660 g     F .text	0000000000000068 mempool_alloc_pool
0000000000004e5c g     F .text	00000000000000e8 TEE_BigIntMul
0000000000006724 g     F .text	0000000000000110 mbedtls_mpi_shift_l
0000000000006990 g     F .text	00000000000000d4 mbedtls_mpi_cmp_mpi
0000000000002d48 g     F .text	0000000000000008 TEE_MemFill
00000000000010d4 g     F .text	0000000000000124 malloc_add_pool
000000000000142c g     F .text	0000000000000010 trace_get_level
0000000000006b70 g     F .text	0000000000000120 mbedtls_mpi_add_abs
00000000000055e8 g     F .text	0000000000000010 TEE_BigIntFMMSizeInU32
00000000000055e0 g     F .text	0000000000000004 TEE_BigIntInitFMM
00000000000032f4 g     F .text	000000000000000c _utee_cipher_init
0000000000003c4c g     F .text	0000000000000208 __utee_entry
0000000000009878 g       .text	0000000000000000 __text_end
0000000000005284 g     F .text	00000000000000d4 TEE_BigIntRelativePrime
000000000000779c g     F .text	00000000000000b4 mbedtls_mpi_mod_mpi
0000000000003318 g     F .text	000000000000000c _utee_cryp_obj_get_info
0000000000000d58 g     F .text	00000000000000d4 bpool
00000000000005c0 g     F .text	0000000000000074 dlsym
00000000000032ac g     F .text	000000000000000c _utee_cryp_state_alloc
0000000000002898 g     F .text	000000000000002c TEE_GetCancellationFlag
00000000000083f4 g     F .text	00000000000001a8 mbedtls_mpi_gcd
0000000000002e28 g     F .text	0000000000000044 TEE_SetTAPersistentTime
00000000000065a8 g     F .text	00000000000000b8 mbedtls_mpi_write_binary_le
00000000000013d8 g     F .text	000000000000001c memset
0000000000002db4 g     F .text	0000000000000074 TEE_GetTAPersistentTime
000000000000169c g     F .text	0000000000000004 dhex_dump
00000000000028f0 g     F .text	000000000000002c TEE_MaskCancellation
0000000000003330 g     F .text	000000000000000c _utee_cryp_obj_get_attr
000000000000330c g     F .text	000000000000000c _utee_cipher_final
0000000000001410 g     F .text	000000000000001c trace_set_level
00000000000032c4 g     F .text	000000000000000c _utee_cryp_state_free
0000000000003234 g     F .text	000000000000000c _utee_open_ta_session
00000000000048d0 g     F .text	0000000000000088 TEE_BigIntConvertToS32
0000000000004da0 g     F .text	000000000000000c TEE_BigIntSub
0000000000000418 g     F .text	0000000000000008 tahead_get_trace_level
0000000000003438 g     F .text	000000000000000c _utee_storage_start_enum
00000000000030fc g     F .text	0000000000000064 tee_map_zi
0000000000007d28 g     F .text	0000000000000040 mbedtls_mpi_montred
000000000000102c g     F .text	0000000000000078 memalign
000000000000484c g     F .text	0000000000000084 TEE_BigIntConvertFromS32
0000000000006e78 g     F .text	0000000000000040 mbedtls_mpi_add_int
00000000000033b4 g     F .text	000000000000000c _utee_authenc_enc_final
00000000000011f8 g     F .text	000000000000017c malloc_buffer_is_within_alloced
0000000000003348 g     F .text	000000000000000c _utee_cryp_obj_close
00000000000055e4 g     F .text	0000000000000004 TEE_BigIntInitFMMContext
000000000000327c g     F .text	000000000000000c _utee_mask_cancellation
0000000000003408 g     F .text	000000000000000c _utee_storage_obj_rename
0000000000004f44 g     F .text	0000000000000008 TEE_BigIntSquare
000000000000345c g     F .text	000000000000000c _utee_storage_obj_write
000000000000010c g     F .text	0000000000000034 TA_CreateEntryPoint
0000000000000404 g     F .text	0000000000000014 __ta_entry
000000000000339c g     F .text	000000000000000c _utee_authenc_update_aad
0000000000007bbc g     F .text	000000000000003c mbedtls_mpi_montg_init
0000000000001784 g     F .text	0000000000000074 snprintk
0000000000004d54 g     F .text	0000000000000040 TEE_BigIntGetBitCount
000000000000336c g     F .text	000000000000000c _utee_cryp_obj_copy
0000000000005150 g     F .text	000000000000000c TEE_BigIntMulMod
00000000000088c8 g     F .text	0000000000000424 mbedtls_mpi_inv_mod
000000000000d4a0 g     O .bss	0000000000000040 ta_params
000000000000725c g     F .text	0000000000000500 mbedtls_mpi_div_mpi
0000000000006420 g     F .text	000000000000001c mbedtls_mpi_size
0000000000000678 g     F .text	00000000000002c4 bget
0000000000003288 g     F .text	000000000000000c _utee_wait
00000000000062e4 g     F .text	000000000000008c mbedtls_mpi_set_bit
0000000000002ef8 g     F .text	0000000000000004 TEE_Free
0000000000008d94 g     F .text	0000000000000010 mbedtls_mpi_is_prime
0000000000002f0c g     F .text	0000000000000008 TEE_CacheInvalidate
0000000000002460 g     F .text	0000000000000014 _assert_break
0000000000005138 g     F .text	000000000000000c TEE_BigIntAddMod
0000000000003294 g     F .text	000000000000000c _utee_get_time
0000000000003360 g     F .text	000000000000000c _utee_cryp_obj_populate
0000000000002d40 g     F .text	0000000000000008 TEE_MemCompare
0000000000003300 g     F .text	000000000000000c _utee_cipher_update
00000000000016a0 g     F .text	000000000000008c __vsnprintf
000000000000d4e0 g     O .bss	0000000000000010 __elf_phdr_info
0000000000002b00 g     F .text	00000000000000f8 TEE_OpenTASession
0000000000002650 g     F .text	0000000000000028 trace_ext_puts
0000000000002678 g     F .text	0000000000000008 trace_ext_get_thread_id
0000000000003378 g     F .text	000000000000000c _utee_cryp_derive_key
0000000000005d28 g     F .text	000000000000006c mbedtls_mpi_free
0000000000003354 g     F .text	000000000000000c _utee_cryp_obj_reset
0000000000002efc g     F .text	0000000000000008 TEE_CacheClean
0000000000003228 g     F .text	000000000000000c _utee_get_property_name_to_index
0000000000006170 g     F .text	00000000000000e0 mbedtls_mpi_safe_cond_swap
0000000000003390 g     F .text	000000000000000c _utee_authenc_init
00000000000013f4 g     F .text	000000000000001c strlen
0000000000005358 g     F .text	0000000000000238 TEE_BigIntComputeExtendedGcd
0000000000003414 g     F .text	000000000000000c _utee_storage_alloc_enum
0000000000002d50 g     F .text	0000000000000028 TEE_GetSystemTime
00000000000033d8 g     F .text	000000000000000c _utee_asymm_verify
0000000000000000 g     O .ta_head	0000000000000020 ta_head
00000000000009c8 g     F .text	00000000000002bc brel
0000000000006c90 g     F .text	00000000000000d4 mbedtls_mpi_sub_abs
000000000000859c g     F .text	00000000000000bc mbedtls_mpi_fill_random
0000000000002d20 g     F .text	000000000000000c TEE_SetInstanceData
0000000000003258 g     F .text	000000000000000c _utee_get_cancellation_flag
00000000000078f0 g     F .text	000000000000023c mbedtls_mpi_write_string
0000000000002870 g     F .text	0000000000000028 TEE_CloseTASession
00000000000033f0 g     F .text	000000000000000c _utee_storage_obj_create
00000000000010a4 g     F .text	0000000000000018 free
0000000000000e2c g     F .text	0000000000000098 bstats
00000000000104f0 g     O .bss	0000000000000008 mbedtls_mpi_mempool
00000000000032e8 g     F .text	000000000000000c _utee_hash_final



Disassembly of section .text:

0000000000000020 <memcpy>:
memcpy():
/home/jayanth/quemu-v8/source/optee_os/lib/libutils/isoc/newlib/memcpy.c:106
      20:	f1007c5f 	cmp	x2, #0x1f
      24:	54000629 	b.ls	e8 <memcpy+0xc8>  // b.plast
/home/jayanth/quemu-v8/source/optee_os/lib/libutils/isoc/newlib/memcpy.c:106 (discriminator 1)
      28:	aa000025 	orr	x5, x1, x0
      2c:	f24008a5 	ands	x5, x5, #0x7
      30:	54000641 	b.ne	f8 <memcpy+0xd8>  // b.any
      34:	d1008048 	sub	x8, x2, #0x20
/home/jayanth/quemu-v8/source/optee_os/lib/libutils/isoc/newlib/memcpy.c:108
      38:	aa0103e4 	mov	x4, x1
      3c:	927be908 	and	x8, x8, #0xffffffffffffffe0
/home/jayanth/quemu-v8/source/optee_os/lib/libutils/isoc/newlib/memcpy.c:107
      40:	aa0003e3 	mov	x3, x0
      44:	91008108 	add	x8, x8, #0x20
      48:	8b080007 	add	x7, x0, x8
      4c:	d503201f 	nop
/home/jayanth/quemu-v8/source/optee_os/lib/libutils/isoc/newlib/memcpy.c:112
      50:	f9400086 	ldr	x6, [x4]
      54:	f9000066 	str	x6, [x3]
/home/jayanth/quemu-v8/source/optee_os/lib/libutils/isoc/newlib/memcpy.c:113
      58:	91008084 	add	x4, x4, #0x20
      5c:	91008063 	add	x3, x3, #0x20
      60:	f85e8086 	ldur	x6, [x4, #-24]
      64:	f81e8066 	stur	x6, [x3, #-24]
/home/jayanth/quemu-v8/source/optee_os/lib/libutils/isoc/newlib/memcpy.c:114
      68:	f85f0086 	ldur	x6, [x4, #-16]
      6c:	f81f0066 	stur	x6, [x3, #-16]
/home/jayanth/quemu-v8/source/optee_os/lib/libutils/isoc/newlib/memcpy.c:111
      70:	eb0300ff 	cmp	x7, x3
/home/jayanth/quemu-v8/source/optee_os/lib/libutils/isoc/newlib/memcpy.c:115
      74:	f85f8086 	ldur	x6, [x4, #-8]
      78:	f81f8066 	stur	x6, [x3, #-8]
/home/jayanth/quemu-v8/source/optee_os/lib/libutils/isoc/newlib/memcpy.c:111
      7c:	54fffea1 	b.ne	50 <memcpy+0x30>  // b.any
      80:	8b080021 	add	x1, x1, x8
/home/jayanth/quemu-v8/source/optee_os/lib/libutils/isoc/newlib/memcpy.c:120
      84:	f27d045f 	tst	x2, #0x18
      88:	92401044 	and	x4, x2, #0x1f
      8c:	540003c0 	b.eq	104 <memcpy+0xe4>  // b.none
/home/jayanth/quemu-v8/source/optee_os/lib/libutils/isoc/newlib/memcpy.c:121
      90:	f8656826 	ldr	x6, [x1, x5]
      94:	f8256866 	str	x6, [x3, x5]
/home/jayanth/quemu-v8/source/optee_os/lib/libutils/isoc/newlib/memcpy.c:120
      98:	910020a5 	add	x5, x5, #0x8
      9c:	cb050086 	sub	x6, x4, x5
      a0:	f1001cdf 	cmp	x6, #0x7
      a4:	54ffff68 	b.hi	90 <memcpy+0x70>  // b.pmore
      a8:	d1002084 	sub	x4, x4, #0x8
      ac:	92400842 	and	x2, x2, #0x7
      b0:	927df084 	and	x4, x4, #0xfffffffffffffff8
/home/jayanth/quemu-v8/source/optee_os/lib/libutils/isoc/newlib/memcpy.c:130
      b4:	d1000446 	sub	x6, x2, #0x1
      b8:	91002084 	add	x4, x4, #0x8
      bc:	8b040063 	add	x3, x3, x4
      c0:	8b040021 	add	x1, x1, x4
      c4:	b4000102 	cbz	x2, e4 <memcpy+0xc4>
/home/jayanth/quemu-v8/source/optee_os/lib/libutils/isoc/newlib/memcpy.c:99
      c8:	d2800002 	mov	x2, #0x0                   	// #0
      cc:	d503201f 	nop
/home/jayanth/quemu-v8/source/optee_os/lib/libutils/isoc/newlib/memcpy.c:131
      d0:	38626825 	ldrb	w5, [x1, x2]
/home/jayanth/quemu-v8/source/optee_os/lib/libutils/isoc/newlib/memcpy.c:130
      d4:	eb0200df 	cmp	x6, x2
/home/jayanth/quemu-v8/source/optee_os/lib/libutils/isoc/newlib/memcpy.c:131
      d8:	38226865 	strb	w5, [x3, x2]
/home/jayanth/quemu-v8/source/optee_os/lib/libutils/isoc/newlib/memcpy.c:130
      dc:	91000442 	add	x2, x2, #0x1
      e0:	54ffff81 	b.ne	d0 <memcpy+0xb0>  // b.any
/home/jayanth/quemu-v8/source/optee_os/lib/libutils/isoc/newlib/memcpy.c:135
      e4:	d65f03c0 	ret
/home/jayanth/quemu-v8/source/optee_os/lib/libutils/isoc/newlib/memcpy.c:99
      e8:	aa0003e3 	mov	x3, x0
/home/jayanth/quemu-v8/source/optee_os/lib/libutils/isoc/newlib/memcpy.c:130
      ec:	d1000446 	sub	x6, x2, #0x1
      f0:	b5fffec2 	cbnz	x2, c8 <memcpy+0xa8>
/home/jayanth/quemu-v8/source/optee_os/lib/libutils/isoc/newlib/memcpy.c:135
      f4:	d65f03c0 	ret
/home/jayanth/quemu-v8/source/optee_os/lib/libutils/isoc/newlib/memcpy.c:130
      f8:	d1000446 	sub	x6, x2, #0x1
/home/jayanth/quemu-v8/source/optee_os/lib/libutils/isoc/newlib/memcpy.c:99
      fc:	aa0003e3 	mov	x3, x0
     100:	17fffff2 	b	c8 <memcpy+0xa8>
/home/jayanth/quemu-v8/source/optee_os/lib/libutils/isoc/newlib/memcpy.c:120
     104:	aa0403e2 	mov	x2, x4
     108:	17fffff9 	b	ec <memcpy+0xcc>

000000000000010c <TA_CreateEntryPoint>:
TA_CreateEntryPoint():
/home/jayanth/quemu-v8/source/optee_examples/hello_qemu/ta/hello_qemu_ta.c:38
     10c:	a9bf7bfd 	stp	x29, x30, [sp, #-16]!
/home/jayanth/quemu-v8/source/optee_examples/hello_qemu/ta/hello_qemu_ta.c:39
     110:	52800023 	mov	w3, #0x1                   	// #1
     114:	52800062 	mov	w2, #0x3                   	// #3
/home/jayanth/quemu-v8/source/optee_examples/hello_qemu/ta/hello_qemu_ta.c:38
     118:	910003fd 	mov	x29, sp
/home/jayanth/quemu-v8/source/optee_examples/hello_qemu/ta/hello_qemu_ta.c:39
     11c:	528004e1 	mov	w1, #0x27                  	// #39
     120:	f0000044 	adrp	x4, b000 <__text_end+0x1788>
     124:	f0000040 	adrp	x0, b000 <__text_end+0x1788>
     128:	912b4084 	add	x4, x4, #0xad0
     12c:	912edc00 	add	x0, x0, #0xbb7
     130:	9400053f 	bl	162c <trace_printf>
/home/jayanth/quemu-v8/source/optee_examples/hello_qemu/ta/hello_qemu_ta.c:42
     134:	52800000 	mov	w0, #0x0                   	// #0
     138:	a8c17bfd 	ldp	x29, x30, [sp], #16
     13c:	d65f03c0 	ret

0000000000000140 <TA_DestroyEntryPoint>:
TA_DestroyEntryPoint():
/home/jayanth/quemu-v8/source/optee_examples/hello_qemu/ta/hello_qemu_ta.c:50
     140:	f0000040 	adrp	x0, b000 <__text_end+0x1788>
     144:	912edc00 	add	x0, x0, #0xbb7
     148:	91005000 	add	x0, x0, #0x14
     14c:	f0000044 	adrp	x4, b000 <__text_end+0x1788>
     150:	52800023 	mov	w3, #0x1                   	// #1
     154:	912b4084 	add	x4, x4, #0xad0
     158:	52800062 	mov	w2, #0x3                   	// #3
     15c:	52800641 	mov	w1, #0x32                  	// #50
     160:	14000533 	b	162c <trace_printf>

0000000000000164 <TA_OpenSessionEntryPoint>:
TA_OpenSessionEntryPoint():
/home/jayanth/quemu-v8/source/optee_examples/hello_qemu/ta/hello_qemu_ta.c:62
     164:	a9be7bfd 	stp	x29, x30, [sp, #-32]!
/home/jayanth/quemu-v8/source/optee_examples/hello_qemu/ta/hello_qemu_ta.c:68
     168:	f0000044 	adrp	x4, b000 <__text_end+0x1788>
     16c:	52800023 	mov	w3, #0x1                   	// #1
/home/jayanth/quemu-v8/source/optee_examples/hello_qemu/ta/hello_qemu_ta.c:62
     170:	910003fd 	mov	x29, sp
     174:	a90153f3 	stp	x19, x20, [sp, #16]
/home/jayanth/quemu-v8/source/optee_examples/hello_qemu/ta/hello_qemu_ta.c:68
     178:	f0000053 	adrp	x19, b000 <__text_end+0x1788>
     17c:	912ede73 	add	x19, x19, #0xbb7
     180:	9100a673 	add	x19, x19, #0x29
/home/jayanth/quemu-v8/source/optee_examples/hello_qemu/ta/hello_qemu_ta.c:62
     184:	2a0003f4 	mov	w20, w0
/home/jayanth/quemu-v8/source/optee_examples/hello_qemu/ta/hello_qemu_ta.c:68
     188:	912b4084 	add	x4, x4, #0xad0
     18c:	aa1303e0 	mov	x0, x19
     190:	52800062 	mov	w2, #0x3                   	// #3
     194:	52800881 	mov	w1, #0x44                  	// #68
     198:	94000525 	bl	162c <trace_printf>
/home/jayanth/quemu-v8/source/optee_examples/hello_qemu/ta/hello_qemu_ta.c:70
     19c:	35000194 	cbnz	w20, 1cc <TA_OpenSessionEntryPoint+0x68>
/home/jayanth/quemu-v8/source/optee_examples/hello_qemu/ta/hello_qemu_ta.c:81
     1a0:	f0000044 	adrp	x4, b000 <__text_end+0x1788>
     1a4:	aa1303e0 	mov	x0, x19
     1a8:	912b8084 	add	x4, x4, #0xae0
     1ac:	52800023 	mov	w3, #0x1                   	// #1
     1b0:	52800042 	mov	w2, #0x2                   	// #2
     1b4:	52800a21 	mov	w1, #0x51                  	// #81
     1b8:	9400051d 	bl	162c <trace_printf>
/home/jayanth/quemu-v8/source/optee_examples/hello_qemu/ta/hello_qemu_ta.c:85
     1bc:	2a1403e0 	mov	w0, w20
     1c0:	a94153f3 	ldp	x19, x20, [sp, #16]
     1c4:	a8c27bfd 	ldp	x29, x30, [sp], #32
     1c8:	d65f03c0 	ret
/home/jayanth/quemu-v8/source/optee_examples/hello_qemu/ta/hello_qemu_ta.c:71
     1cc:	129fff34 	mov	w20, #0xffff0006            	// #-65530
     1d0:	17fffffb 	b	1bc <TA_OpenSessionEntryPoint+0x58>

00000000000001d4 <TA_CloseSessionEntryPoint>:
TA_CloseSessionEntryPoint():
/home/jayanth/quemu-v8/source/optee_examples/hello_qemu/ta/hello_qemu_ta.c:94
     1d4:	f0000040 	adrp	x0, b000 <__text_end+0x1788>
     1d8:	912edc00 	add	x0, x0, #0xbb7
     1dc:	91010800 	add	x0, x0, #0x42
     1e0:	f0000044 	adrp	x4, b000 <__text_end+0x1788>
     1e4:	52800023 	mov	w3, #0x1                   	// #1
     1e8:	912bb884 	add	x4, x4, #0xaee
     1ec:	52800042 	mov	w2, #0x2                   	// #2
     1f0:	52800bc1 	mov	w1, #0x5e                  	// #94
     1f4:	1400050e 	b	162c <trace_printf>

00000000000001f8 <TA_InvokeCommandEntryPoint>:
TA_InvokeCommandEntryPoint():
/home/jayanth/quemu-v8/source/optee_examples/hello_qemu/ta/hello_qemu_ta.c:177
     1f8:	a9bd7bfd 	stp	x29, x30, [sp, #-48]!
     1fc:	910003fd 	mov	x29, sp
     200:	a90153f3 	stp	x19, x20, [sp, #16]
     204:	2a0103f3 	mov	w19, w1
     208:	a9025bf5 	stp	x21, x22, [sp, #32]
     20c:	2a0203f6 	mov	w22, w2
     210:	aa0303f5 	mov	x21, x3
/home/jayanth/quemu-v8/source/optee_examples/hello_qemu/ta/hello_qemu_ta.c:180
     214:	34000121 	cbz	w1, 238 <TA_InvokeCommandEntryPoint+0x40>
     218:	7100043f 	cmp	w1, #0x1
     21c:	54000b40 	b.eq	384 <TA_InvokeCommandEntryPoint+0x18c>  // b.none
inc_value():
/home/jayanth/quemu-v8/source/optee_examples/hello_qemu/ta/hello_qemu_ta.c:112
     220:	129fff33 	mov	w19, #0xffff0006            	// #-65530
TA_InvokeCommandEntryPoint():
/home/jayanth/quemu-v8/source/optee_examples/hello_qemu/ta/hello_qemu_ta.c:188
     224:	2a1303e0 	mov	w0, w19
     228:	a94153f3 	ldp	x19, x20, [sp, #16]
     22c:	a9425bf5 	ldp	x21, x22, [sp, #32]
     230:	a8c37bfd 	ldp	x29, x30, [sp], #48
     234:	d65f03c0 	ret
inc_value():
/home/jayanth/quemu-v8/source/optee_examples/hello_qemu/ta/hello_qemu_ta.c:109
     238:	f0000054 	adrp	x20, b000 <__text_end+0x1788>
     23c:	912ede94 	add	x20, x20, #0xbb7
     240:	91017294 	add	x20, x20, #0x5c
     244:	f0000044 	adrp	x4, b000 <__text_end+0x1788>
     248:	aa1403e0 	mov	x0, x20
     24c:	912b4084 	add	x4, x4, #0xad0
     250:	52800023 	mov	w3, #0x1                   	// #1
     254:	52800062 	mov	w2, #0x3                   	// #3
     258:	52800da1 	mov	w1, #0x6d                  	// #109
     25c:	940004f4 	bl	162c <trace_printf>
/home/jayanth/quemu-v8/source/optee_examples/hello_qemu/ta/hello_qemu_ta.c:111
     260:	71000edf 	cmp	w22, #0x3
     264:	54fffde1 	b.ne	220 <TA_InvokeCommandEntryPoint+0x28>  // b.any
/home/jayanth/quemu-v8/source/optee_examples/hello_qemu/ta/hello_qemu_ta.c:114
     268:	52822041 	mov	w1, #0x1102                	// #4354
     26c:	f0000040 	adrp	x0, b000 <__text_end+0x1788>
     270:	912be000 	add	x0, x0, #0xaf8
     274:	94000091 	bl	4b8 <dlopen>
     278:	aa0003f6 	mov	x22, x0
/home/jayanth/quemu-v8/source/optee_examples/hello_qemu/ta/hello_qemu_ta.c:116
     27c:	b5000140 	cbnz	x0, 2a4 <TA_InvokeCommandEntryPoint+0xac>
/home/jayanth/quemu-v8/source/optee_examples/hello_qemu/ta/hello_qemu_ta.c:118
     280:	f0000044 	adrp	x4, b000 <__text_end+0x1788>
     284:	912c7484 	add	x4, x4, #0xb1d
     288:	52800023 	mov	w3, #0x1                   	// #1
     28c:	52800022 	mov	w2, #0x1                   	// #1
     290:	52800ec1 	mov	w1, #0x76                  	// #118
/home/jayanth/quemu-v8/source/optee_examples/hello_qemu/ta/hello_qemu_ta.c:128
     294:	aa1403e0 	mov	x0, x20
/home/jayanth/quemu-v8/source/optee_examples/hello_qemu/ta/hello_qemu_ta.c:129
     298:	52bffff3 	mov	w19, #0xffff0000            	// #-65536
/home/jayanth/quemu-v8/source/optee_examples/hello_qemu/ta/hello_qemu_ta.c:128
     29c:	940004e4 	bl	162c <trace_printf>
/home/jayanth/quemu-v8/source/optee_examples/hello_qemu/ta/hello_qemu_ta.c:129
     2a0:	17ffffe1 	b	224 <TA_InvokeCommandEntryPoint+0x2c>
/home/jayanth/quemu-v8/source/optee_examples/hello_qemu/ta/hello_qemu_ta.c:123
     2a4:	f0000044 	adrp	x4, b000 <__text_end+0x1788>
     2a8:	912cc884 	add	x4, x4, #0xb32
     2ac:	52800042 	mov	w2, #0x2                   	// #2
     2b0:	52800023 	mov	w3, #0x1                   	// #1
     2b4:	aa1403e0 	mov	x0, x20
     2b8:	52800f61 	mov	w1, #0x7b                  	// #123
     2bc:	940004dc 	bl	162c <trace_printf>
/home/jayanth/quemu-v8/source/optee_examples/hello_qemu/ta/hello_qemu_ta.c:125
     2c0:	aa1603e0 	mov	x0, x22
     2c4:	f0000041 	adrp	x1, b000 <__text_end+0x1788>
     2c8:	912d1c21 	add	x1, x1, #0xb47
     2cc:	940000bd 	bl	5c0 <dlsym>
     2d0:	aa0003e2 	mov	x2, x0
/home/jayanth/quemu-v8/source/optee_examples/hello_qemu/ta/hello_qemu_ta.c:126
     2d4:	b50000e0 	cbnz	x0, 2f0 <TA_InvokeCommandEntryPoint+0xf8>
/home/jayanth/quemu-v8/source/optee_examples/hello_qemu/ta/hello_qemu_ta.c:128
     2d8:	f0000044 	adrp	x4, b000 <__text_end+0x1788>
     2dc:	52800023 	mov	w3, #0x1                   	// #1
     2e0:	912d2c84 	add	x4, x4, #0xb4b
     2e4:	52800022 	mov	w2, #0x1                   	// #1
     2e8:	52801001 	mov	w1, #0x80                  	// #128
     2ec:	17ffffea 	b	294 <TA_InvokeCommandEntryPoint+0x9c>
/home/jayanth/quemu-v8/source/optee_examples/hello_qemu/ta/hello_qemu_ta.c:133
     2f0:	52800101 	mov	w1, #0x8                   	// #8
     2f4:	528000a0 	mov	w0, #0x5                   	// #5
     2f8:	d63f0040 	blr	x2
/home/jayanth/quemu-v8/source/optee_examples/hello_qemu/ta/hello_qemu_ta.c:134
     2fc:	2a0003e5 	mov	w5, w0
     300:	52800023 	mov	w3, #0x1                   	// #1
     304:	aa1403e0 	mov	x0, x20
     308:	52800042 	mov	w2, #0x2                   	// #2
     30c:	528010c1 	mov	w1, #0x86                  	// #134
     310:	f0000044 	adrp	x4, b000 <__text_end+0x1788>
     314:	912d6884 	add	x4, x4, #0xb5a
     318:	940004c5 	bl	162c <trace_printf>
/home/jayanth/quemu-v8/source/optee_examples/hello_qemu/ta/hello_qemu_ta.c:137
     31c:	aa1403e0 	mov	x0, x20
     320:	52800023 	mov	w3, #0x1                   	// #1
     324:	52800042 	mov	w2, #0x2                   	// #2
     328:	52801121 	mov	w1, #0x89                  	// #137
     32c:	f0000044 	adrp	x4, b000 <__text_end+0x1788>
     330:	912dc084 	add	x4, x4, #0xb70
     334:	940004be 	bl	162c <trace_printf>
/home/jayanth/quemu-v8/source/optee_examples/hello_qemu/ta/hello_qemu_ta.c:143
     338:	b94002a5 	ldr	w5, [x21]
     33c:	aa1403e0 	mov	x0, x20
     340:	52800023 	mov	w3, #0x1                   	// #1
     344:	52800042 	mov	w2, #0x2                   	// #2
     348:	528011e1 	mov	w1, #0x8f                  	// #143
     34c:	f0000044 	adrp	x4, b000 <__text_end+0x1788>
     350:	912dd484 	add	x4, x4, #0xb75
     354:	940004b6 	bl	162c <trace_printf>
/home/jayanth/quemu-v8/source/optee_examples/hello_qemu/ta/hello_qemu_ta.c:144
     358:	b94002a5 	ldr	w5, [x21]
/home/jayanth/quemu-v8/source/optee_examples/hello_qemu/ta/hello_qemu_ta.c:145
     35c:	aa1403e0 	mov	x0, x20
     360:	f0000044 	adrp	x4, b000 <__text_end+0x1788>
     364:	52800023 	mov	w3, #0x1                   	// #1
/home/jayanth/quemu-v8/source/optee_examples/hello_qemu/ta/hello_qemu_ta.c:144
     368:	110004a5 	add	w5, w5, #0x1
     36c:	b90002a5 	str	w5, [x21]
/home/jayanth/quemu-v8/source/optee_examples/hello_qemu/ta/hello_qemu_ta.c:145
     370:	912e2c84 	add	x4, x4, #0xb8b
     374:	52800042 	mov	w2, #0x2                   	// #2
     378:	52801221 	mov	w1, #0x91                  	// #145
     37c:	940004ac 	bl	162c <trace_printf>
/home/jayanth/quemu-v8/source/optee_examples/hello_qemu/ta/hello_qemu_ta.c:147
     380:	17ffffa9 	b	224 <TA_InvokeCommandEntryPoint+0x2c>
dec_value():
/home/jayanth/quemu-v8/source/optee_examples/hello_qemu/ta/hello_qemu_ta.c:158
     384:	f0000054 	adrp	x20, b000 <__text_end+0x1788>
     388:	912ede94 	add	x20, x20, #0xbb7
     38c:	91019a94 	add	x20, x20, #0x66
     390:	2a0103e3 	mov	w3, w1
     394:	aa1403e0 	mov	x0, x20
     398:	f0000044 	adrp	x4, b000 <__text_end+0x1788>
     39c:	52800062 	mov	w2, #0x3                   	// #3
     3a0:	912b4084 	add	x4, x4, #0xad0
     3a4:	528013c1 	mov	w1, #0x9e                  	// #158
     3a8:	940004a1 	bl	162c <trace_printf>
/home/jayanth/quemu-v8/source/optee_examples/hello_qemu/ta/hello_qemu_ta.c:160
     3ac:	71000edf 	cmp	w22, #0x3
     3b0:	54fff381 	b.ne	220 <TA_InvokeCommandEntryPoint+0x28>  // b.any
/home/jayanth/quemu-v8/source/optee_examples/hello_qemu/ta/hello_qemu_ta.c:163
     3b4:	b94002a5 	ldr	w5, [x21]
     3b8:	2a1303e3 	mov	w3, w19
     3bc:	aa1403e0 	mov	x0, x20
     3c0:	52800042 	mov	w2, #0x2                   	// #2
     3c4:	52801461 	mov	w1, #0xa3                  	// #163
     3c8:	f0000044 	adrp	x4, b000 <__text_end+0x1788>
     3cc:	912dd484 	add	x4, x4, #0xb75
     3d0:	94000497 	bl	162c <trace_printf>
/home/jayanth/quemu-v8/source/optee_examples/hello_qemu/ta/hello_qemu_ta.c:164
     3d4:	b94002a5 	ldr	w5, [x21]
/home/jayanth/quemu-v8/source/optee_examples/hello_qemu/ta/hello_qemu_ta.c:165
     3d8:	2a1303e3 	mov	w3, w19
     3dc:	aa1403e0 	mov	x0, x20
     3e0:	f0000044 	adrp	x4, b000 <__text_end+0x1788>
/home/jayanth/quemu-v8/source/optee_examples/hello_qemu/ta/hello_qemu_ta.c:164
     3e4:	510004a5 	sub	w5, w5, #0x1
     3e8:	b90002a5 	str	w5, [x21]
/home/jayanth/quemu-v8/source/optee_examples/hello_qemu/ta/hello_qemu_ta.c:165
     3ec:	912e8484 	add	x4, x4, #0xba1
     3f0:	52800042 	mov	w2, #0x2                   	// #2
     3f4:	528014a1 	mov	w1, #0xa5                  	// #165
/home/jayanth/quemu-v8/source/optee_examples/hello_qemu/ta/hello_qemu_ta.c:167
     3f8:	52800013 	mov	w19, #0x0                   	// #0
/home/jayanth/quemu-v8/source/optee_examples/hello_qemu/ta/hello_qemu_ta.c:165
     3fc:	9400048c 	bl	162c <trace_printf>
/home/jayanth/quemu-v8/source/optee_examples/hello_qemu/ta/hello_qemu_ta.c:167
     400:	17ffff89 	b	224 <TA_InvokeCommandEntryPoint+0x2c>

0000000000000404 <__ta_entry>:
__ta_entry():
/home/jayanth/quemu-v8/source/optee_os/out/arm/export-ta_arm64/src/user_ta_header.c:47
     404:	a9bf7bfd 	stp	x29, x30, [sp, #-16]!
     408:	910003fd 	mov	x29, sp
/home/jayanth/quemu-v8/source/optee_os/out/arm/export-ta_arm64/src/user_ta_header.c:48
     40c:	94000e10 	bl	3c4c <__utee_entry>
/home/jayanth/quemu-v8/source/optee_os/out/arm/export-ta_arm64/src/user_ta_header.c:59
     410:	2a0003e0 	mov	w0, w0
     414:	94000b79 	bl	31f8 <_utee_return>

0000000000000418 <tahead_get_trace_level>:
tahead_get_trace_level():
/home/jayanth/quemu-v8/source/optee_os/out/arm/export-ta_arm64/src/user_ta_header.c:149
     418:	52800080 	mov	w0, #0x4                   	// #4
     41c:	d65f03c0 	ret

0000000000000420 <invoke_system_pta.constprop.0>:
invoke_system_pta():
/home/jayanth/quemu-v8/source/optee_os/lib/libdl/dlfcn.c:18
     420:	a9bc7bfd 	stp	x29, x30, [sp, #-64]!
/home/jayanth/quemu-v8/source/optee_os/lib/libdl/dlfcn.c:21
     424:	9100c3e6 	add	x6, sp, #0x30
/home/jayanth/quemu-v8/source/optee_os/lib/libdl/dlfcn.c:18
     428:	910003fd 	mov	x29, sp
     42c:	a90153f3 	stp	x19, x20, [sp, #16]
     430:	2a0003f4 	mov	w20, w0
/home/jayanth/quemu-v8/source/optee_os/lib/libdl/dlfcn.c:21
     434:	aa0603e0 	mov	x0, x6
/home/jayanth/quemu-v8/source/optee_os/lib/libdl/dlfcn.c:18
     438:	a9025bf5 	stp	x21, x22, [sp, #32]
     43c:	2a0103f5 	mov	w21, w1
     440:	aa0203f6 	mov	x22, x2
/home/jayanth/quemu-v8/source/optee_os/lib/libdl/dlfcn.c:21
     444:	f0000041 	adrp	x1, b000 <__text_end+0x1788>
     448:	d2800202 	mov	x2, #0x10                  	// #16
     44c:	911cd021 	add	x1, x1, #0x734
     450:	97fffef4 	bl	20 <memcpy>
/home/jayanth/quemu-v8/source/optee_os/lib/libdl/dlfcn.c:24
     454:	b0000063 	adrp	x3, d000 <_DYNAMIC>
/home/jayanth/quemu-v8/source/optee_os/lib/libdl/dlfcn.c:21
     458:	aa0003e6 	mov	x6, x0
/home/jayanth/quemu-v8/source/optee_os/lib/libdl/dlfcn.c:24
     45c:	aa0303f3 	mov	x19, x3
     460:	f9422c60 	ldr	x0, [x3, #1112]
     464:	b4000180 	cbz	x0, 494 <invoke_system_pta.constprop.0+0x74>
/home/jayanth/quemu-v8/source/optee_os/lib/libdl/dlfcn.c:30
     468:	f9422e60 	ldr	x0, [x19, #1112]
     46c:	aa1603e4 	mov	x4, x22
     470:	2a1503e3 	mov	w3, w21
     474:	2a1403e2 	mov	w2, w20
     478:	d2800005 	mov	x5, #0x0                   	// #0
     47c:	12800001 	mov	w1, #0xffffffff            	// #-1
     480:	940009de 	bl	2bf8 <TEE_InvokeTACommand>
/home/jayanth/quemu-v8/source/optee_os/lib/libdl/dlfcn.c:32
     484:	a94153f3 	ldp	x19, x20, [sp, #16]
     488:	a9425bf5 	ldp	x21, x22, [sp, #32]
     48c:	a8c47bfd 	ldp	x29, x30, [sp], #64
     490:	d65f03c0 	ret
     494:	91116064 	add	x4, x3, #0x458
/home/jayanth/quemu-v8/source/optee_os/lib/libdl/dlfcn.c:25
     498:	aa0603e0 	mov	x0, x6
     49c:	d2800005 	mov	x5, #0x0                   	// #0
     4a0:	d2800003 	mov	x3, #0x0                   	// #0
     4a4:	52800002 	mov	w2, #0x0                   	// #0
     4a8:	12800001 	mov	w1, #0xffffffff            	// #-1
     4ac:	94000995 	bl	2b00 <TEE_OpenTASession>
/home/jayanth/quemu-v8/source/optee_os/lib/libdl/dlfcn.c:27
     4b0:	34fffdc0 	cbz	w0, 468 <invoke_system_pta.constprop.0+0x48>
     4b4:	17fffff4 	b	484 <invoke_system_pta.constprop.0+0x64>

00000000000004b8 <dlopen>:
dlopen():
/home/jayanth/quemu-v8/source/optee_os/lib/libdl/dlfcn.c:39
     4b8:	a9b87bfd 	stp	x29, x30, [sp, #-128]!
     4bc:	910003fd 	mov	x29, sp
     4c0:	a90153f3 	stp	x19, x20, [sp, #16]
     4c4:	aa0003f4 	mov	x20, x0
/home/jayanth/quemu-v8/source/optee_os/lib/libdl/dlfcn.c:46
     4c8:	d2800200 	mov	x0, #0x10                  	// #16
/home/jayanth/quemu-v8/source/optee_os/lib/libdl/dlfcn.c:39
     4cc:	a9025bf5 	stp	x21, x22, [sp, #32]
     4d0:	2a0103f5 	mov	w21, w1
/home/jayanth/quemu-v8/source/optee_os/lib/libdl/dlfcn.c:44
     4d4:	a9037fff 	stp	xzr, xzr, [sp, #48]
/home/jayanth/quemu-v8/source/optee_os/lib/libdl/dlfcn.c:40
     4d8:	a9047fff 	stp	xzr, xzr, [sp, #64]
     4dc:	a9057fff 	stp	xzr, xzr, [sp, #80]
     4e0:	a9067fff 	stp	xzr, xzr, [sp, #96]
     4e4:	a9077fff 	stp	xzr, xzr, [sp, #112]
/home/jayanth/quemu-v8/source/optee_os/lib/libdl/dlfcn.c:46
     4e8:	9400028b 	bl	f14 <malloc>
     4ec:	aa0003f3 	mov	x19, x0
/home/jayanth/quemu-v8/source/optee_os/lib/libdl/dlfcn.c:47
     4f0:	b4000320 	cbz	x0, 554 <dlopen+0x9c>
/home/jayanth/quemu-v8/source/optee_os/lib/libdl/dlfcn.c:50
     4f4:	b4000234 	cbz	x20, 538 <dlopen+0x80>
/home/jayanth/quemu-v8/source/optee_os/lib/libdl/dlfcn.c:51
     4f8:	9100c3f6 	add	x22, sp, #0x30
     4fc:	aa1403e1 	mov	x1, x20
     500:	aa1603e0 	mov	x0, x22
     504:	940007ff 	bl	2500 <tee_uuid_from_str>
/home/jayanth/quemu-v8/source/optee_os/lib/libdl/dlfcn.c:52
     508:	35000300 	cbnz	w0, 568 <dlopen+0xb0>
/home/jayanth/quemu-v8/source/optee_os/lib/libdl/dlfcn.c:61
     50c:	52800200 	mov	w0, #0x10                  	// #16
/home/jayanth/quemu-v8/source/optee_os/lib/libdl/dlfcn.c:64
     510:	910103e2 	add	x2, sp, #0x40
     514:	528002a1 	mov	w1, #0x15                  	// #21
/home/jayanth/quemu-v8/source/optee_os/lib/libdl/dlfcn.c:60
     518:	f90023f6 	str	x22, [sp, #64]
/home/jayanth/quemu-v8/source/optee_os/lib/libdl/dlfcn.c:61
     51c:	b9004be0 	str	w0, [sp, #72]
/home/jayanth/quemu-v8/source/optee_os/lib/libdl/dlfcn.c:64
     520:	52800140 	mov	w0, #0xa                   	// #10
/home/jayanth/quemu-v8/source/optee_os/lib/libdl/dlfcn.c:62
     524:	b90053f5 	str	w21, [sp, #80]
/home/jayanth/quemu-v8/source/optee_os/lib/libdl/dlfcn.c:64
     528:	97ffffbe 	bl	420 <invoke_system_pta.constprop.0>
/home/jayanth/quemu-v8/source/optee_os/lib/libdl/dlfcn.c:65
     52c:	350001e0 	cbnz	w0, 568 <dlopen+0xb0>
/home/jayanth/quemu-v8/source/optee_os/lib/libdl/dlfcn.c:68
     530:	94000bda 	bl	3498 <__utee_tcb_init>
/home/jayanth/quemu-v8/source/optee_os/lib/libdl/dlfcn.c:69
     534:	94000d54 	bl	3a84 <__utee_call_elf_init_fn>
/home/jayanth/quemu-v8/source/optee_os/lib/libdl/dlfcn.c:72
     538:	b0000060 	adrp	x0, d000 <_DYNAMIC>
     53c:	91116000 	add	x0, x0, #0x458
     540:	f9400401 	ldr	x1, [x0, #8]
     544:	91000421 	add	x1, x1, #0x1
     548:	f9000401 	str	x1, [x0, #8]
/home/jayanth/quemu-v8/source/optee_os/lib/libdl/dlfcn.c:73
     54c:	a94307e0 	ldp	x0, x1, [sp, #48]
     550:	a9000660 	stp	x0, x1, [x19]
/home/jayanth/quemu-v8/source/optee_os/lib/libdl/dlfcn.c:78
     554:	aa1303e0 	mov	x0, x19
     558:	a94153f3 	ldp	x19, x20, [sp, #16]
     55c:	a9425bf5 	ldp	x21, x22, [sp, #32]
     560:	a8c87bfd 	ldp	x29, x30, [sp], #128
     564:	d65f03c0 	ret
/home/jayanth/quemu-v8/source/optee_os/lib/libdl/dlfcn.c:76
     568:	aa1303e0 	mov	x0, x19
/home/jayanth/quemu-v8/source/optee_os/lib/libdl/dlfcn.c:77
     56c:	d2800013 	mov	x19, #0x0                   	// #0
/home/jayanth/quemu-v8/source/optee_os/lib/libdl/dlfcn.c:76
     570:	940002cd 	bl	10a4 <free>
/home/jayanth/quemu-v8/source/optee_os/lib/libdl/dlfcn.c:77
     574:	17fffff8 	b	554 <dlopen+0x9c>

0000000000000578 <dlclose>:
dlclose():
/home/jayanth/quemu-v8/source/optee_os/lib/libdl/dlfcn.c:81
     578:	a9be7bfd 	stp	x29, x30, [sp, #-32]!
     57c:	910003fd 	mov	x29, sp
     580:	f9000bf3 	str	x19, [sp, #16]
/home/jayanth/quemu-v8/source/optee_os/lib/libdl/dlfcn.c:82
     584:	940002c8 	bl	10a4 <free>
/home/jayanth/quemu-v8/source/optee_os/lib/libdl/dlfcn.c:83
     588:	b0000073 	adrp	x19, d000 <_DYNAMIC>
     58c:	91116261 	add	x1, x19, #0x458
     590:	f9400420 	ldr	x0, [x1, #8]
     594:	d1000400 	sub	x0, x0, #0x1
     598:	f9000420 	str	x0, [x1, #8]
/home/jayanth/quemu-v8/source/optee_os/lib/libdl/dlfcn.c:84
     59c:	b50000a0 	cbnz	x0, 5b0 <dlclose+0x38>
/home/jayanth/quemu-v8/source/optee_os/lib/libdl/dlfcn.c:84 (discriminator 1)
     5a0:	f9422e60 	ldr	x0, [x19, #1112]
     5a4:	b4000060 	cbz	x0, 5b0 <dlclose+0x38>
/home/jayanth/quemu-v8/source/optee_os/lib/libdl/dlfcn.c:85
     5a8:	940008b2 	bl	2870 <TEE_CloseTASession>
/home/jayanth/quemu-v8/source/optee_os/lib/libdl/dlfcn.c:86
     5ac:	f9022e7f 	str	xzr, [x19, #1112]
/home/jayanth/quemu-v8/source/optee_os/lib/libdl/dlfcn.c:89
     5b0:	52800000 	mov	w0, #0x0                   	// #0
     5b4:	f9400bf3 	ldr	x19, [sp, #16]
     5b8:	a8c27bfd 	ldp	x29, x30, [sp], #32
     5bc:	d65f03c0 	ret

00000000000005c0 <dlsym>:
dlsym():
/home/jayanth/quemu-v8/source/optee_os/lib/libdl/dlfcn.c:92
     5c0:	a9bb7bfd 	stp	x29, x30, [sp, #-80]!
/home/jayanth/quemu-v8/source/optee_os/lib/libdl/dlfcn.c:99
     5c4:	f100001f 	cmp	x0, #0x0
/home/jayanth/quemu-v8/source/optee_os/lib/libdl/dlfcn.c:92
     5c8:	aa0003e2 	mov	x2, x0
     5cc:	910003fd 	mov	x29, sp
/home/jayanth/quemu-v8/source/optee_os/lib/libdl/dlfcn.c:94
     5d0:	a9017fff 	stp	xzr, xzr, [sp, #16]
/home/jayanth/quemu-v8/source/optee_os/lib/libdl/dlfcn.c:99
     5d4:	fa401824 	ccmp	x1, #0x0, #0x4, ne  // ne = any
/home/jayanth/quemu-v8/source/optee_os/lib/libdl/dlfcn.c:94
     5d8:	a9027fff 	stp	xzr, xzr, [sp, #32]
     5dc:	a9037fff 	stp	xzr, xzr, [sp, #48]
     5e0:	a9047fff 	stp	xzr, xzr, [sp, #64]
/home/jayanth/quemu-v8/source/optee_os/lib/libdl/dlfcn.c:99
     5e4:	54000081 	b.ne	5f4 <dlsym+0x34>  // b.any
/home/jayanth/quemu-v8/source/optee_os/lib/libdl/dlfcn.c:100
     5e8:	d2800000 	mov	x0, #0x0                   	// #0
/home/jayanth/quemu-v8/source/optee_os/lib/libdl/dlfcn.c:118
     5ec:	a8c57bfd 	ldp	x29, x30, [sp], #80
     5f0:	d65f03c0 	ret
     5f4:	aa0103e0 	mov	x0, x1
/home/jayanth/quemu-v8/source/optee_os/lib/libdl/dlfcn.c:108
     5f8:	52800201 	mov	w1, #0x10                  	// #16
/home/jayanth/quemu-v8/source/optee_os/lib/libdl/dlfcn.c:107
     5fc:	f9000be2 	str	x2, [sp, #16]
/home/jayanth/quemu-v8/source/optee_os/lib/libdl/dlfcn.c:108
     600:	b9001be1 	str	w1, [sp, #24]
/home/jayanth/quemu-v8/source/optee_os/lib/libdl/dlfcn.c:109
     604:	f90013e0 	str	x0, [sp, #32]
/home/jayanth/quemu-v8/source/optee_os/lib/libdl/dlfcn.c:110
     608:	9400037b 	bl	13f4 <strlen>
     60c:	11000400 	add	w0, w0, #0x1
/home/jayanth/quemu-v8/source/optee_os/lib/libdl/dlfcn.c:112
     610:	910043e2 	add	x2, sp, #0x10
     614:	52804aa1 	mov	w1, #0x255                 	// #597
/home/jayanth/quemu-v8/source/optee_os/lib/libdl/dlfcn.c:110
     618:	b9002be0 	str	w0, [sp, #40]
/home/jayanth/quemu-v8/source/optee_os/lib/libdl/dlfcn.c:112
     61c:	52800160 	mov	w0, #0xb                   	// #11
     620:	97ffff80 	bl	420 <invoke_system_pta.constprop.0>
/home/jayanth/quemu-v8/source/optee_os/lib/libdl/dlfcn.c:113
     624:	35fffe20 	cbnz	w0, 5e8 <dlsym+0x28>
reg_pair_to_64():
/home/jayanth/quemu-v8/source/optee_os/lib/libutils/ext/include/util.h:156
     628:	294607e0 	ldp	w0, w1, [sp, #48]
     62c:	aa008020 	orr	x0, x1, x0, lsl #32
     630:	17ffffef 	b	5ec <dlsym+0x2c>

0000000000000634 <raw_malloc_return_hook.constprop.0>:
raw_malloc_return_hook():
/home/jayanth/quemu-v8/source/optee_os/lib/libutils/isoc/bget_malloc.c:211
     634:	b0000062 	adrp	x2, d000 <_DYNAMIC>
     638:	910ea044 	add	x4, x2, #0x3a8
     63c:	f9401083 	ldr	x3, [x4, #32]
     640:	b9406c85 	ldr	w5, [x4, #108]
     644:	eb05007f 	cmp	x3, x5
     648:	5400004d 	b.le	650 <raw_malloc_return_hook.constprop.0+0x1c>
/home/jayanth/quemu-v8/source/optee_os/lib/libutils/isoc/bget_malloc.c:212
     64c:	b9006c83 	str	w3, [x4, #108]
/home/jayanth/quemu-v8/source/optee_os/lib/libutils/isoc/bget_malloc.c:214
     650:	b5000120 	cbnz	x0, 674 <raw_malloc_return_hook.constprop.0+0x40>
/home/jayanth/quemu-v8/source/optee_os/lib/libutils/isoc/bget_malloc.c:215
     654:	910ea040 	add	x0, x2, #0x3a8
     658:	b9407402 	ldr	w2, [x0, #116]
     65c:	11000442 	add	w2, w2, #0x1
     660:	b9007402 	str	w2, [x0, #116]
/home/jayanth/quemu-v8/source/optee_os/lib/libutils/isoc/bget_malloc.c:217
     664:	b9407802 	ldr	w2, [x0, #120]
     668:	eb01005f 	cmp	x2, x1
     66c:	54000042 	b.cs	674 <raw_malloc_return_hook.constprop.0+0x40>  // b.hs, b.nlast
/home/jayanth/quemu-v8/source/optee_os/lib/libutils/isoc/bget_malloc.c:219
     670:	290f0c01 	stp	w1, w3, [x0, #120]
/home/jayanth/quemu-v8/source/optee_os/lib/libutils/isoc/bget_malloc.c:223
     674:	d65f03c0 	ret

0000000000000678 <bget>:
bget():
/home/jayanth/quemu-v8/source/optee_os/lib/libutils/isoc/bget.c:612
     678:	a9bf7bfd 	stp	x29, x30, [sp, #-16]!
/home/jayanth/quemu-v8/source/optee_os/lib/libutils/isoc/bget.c:625
     67c:	f100005f 	cmp	x2, #0x0
/home/jayanth/quemu-v8/source/optee_os/lib/libutils/isoc/bget.c:612
     680:	910003fd 	mov	x29, sp
/home/jayanth/quemu-v8/source/optee_os/lib/libutils/isoc/bget.c:625
     684:	5400014c 	b.gt	6ac <bget+0x34>
/home/jayanth/quemu-v8/source/optee_os/lib/libutils/isoc/bget.c:625 (discriminator 1)
     688:	90000063 	adrp	x3, c000 <__func__.4194+0x3e3>
     68c:	f0000041 	adrp	x1, b000 <__text_end+0x1788>
     690:	f0000040 	adrp	x0, b000 <__text_end+0x1788>
     694:	91005063 	add	x3, x3, #0x14
     698:	91353c21 	add	x1, x1, #0xd4f
     69c:	913f7400 	add	x0, x0, #0xfdd
     6a0:	52804e22 	mov	w2, #0x271                 	// #625
/home/jayanth/quemu-v8/source/optee_os/lib/libutils/isoc/bget.c:690
     6a4:	9400075e 	bl	241c <_assert_log>
     6a8:	9400076e 	bl	2460 <_assert_break>
/home/jayanth/quemu-v8/source/optee_os/lib/libutils/isoc/bget.c:628 (discriminator 2)
     6ac:	f100001f 	cmp	x0, #0x0
     6b0:	5400022b 	b.lt	6f4 <bget+0x7c>  // b.tstop
/home/jayanth/quemu-v8/source/optee_os/lib/libutils/isoc/bget.c:628 (discriminator 1)
     6b4:	54000080 	b.eq	6c4 <bget+0x4c>  // b.none
/home/jayanth/quemu-v8/source/optee_os/lib/libutils/isoc/bget.c:628 (discriminator 3)
     6b8:	cb0003e4 	neg	x4, x0
     6bc:	ea24001f 	bics	xzr, x0, x4
     6c0:	540001a1 	b.ne	6f4 <bget+0x7c>  // b.any
/home/jayanth/quemu-v8/source/optee_os/lib/libutils/isoc/bget.c:630
     6c4:	f2400c3f 	tst	x1, #0xf
     6c8:	54000161 	b.ne	6f4 <bget+0x7c>  // b.any
/home/jayanth/quemu-v8/source/optee_os/lib/libutils/isoc/bget.c:640
     6cc:	d2800205 	mov	x5, #0x10                  	// #16
     6d0:	eb05005f 	cmp	x2, x5
     6d4:	9a85a042 	csel	x2, x2, x5, ge  // ge = tcont
     6d8:	b1003c44 	adds	x4, x2, #0xf
     6dc:	540000c4 	b.mi	6f4 <bget+0x7c>  // b.first
     6e0:	eb02009f 	cmp	x4, x2
     6e4:	54000083 	b.cc	6f4 <bget+0x7c>  // b.lo, b.ul, b.last
/home/jayanth/quemu-v8/source/optee_os/lib/libutils/isoc/bget.c:643
     6e8:	927cec84 	and	x4, x4, #0xfffffffffffffff0
/home/jayanth/quemu-v8/source/optee_os/lib/libutils/isoc/bget.c:648
     6ec:	b1004084 	adds	x4, x4, #0x10
     6f0:	54000067 	b.vc	6fc <bget+0x84>
/home/jayanth/quemu-v8/source/optee_os/lib/libutils/isoc/bget.c:629
     6f4:	d2800000 	mov	x0, #0x0                   	// #0
     6f8:	1400008d 	b	92c <bget+0x2b4>
/home/jayanth/quemu-v8/source/optee_os/lib/libutils/isoc/bget.c:650
     6fc:	ab010084 	adds	x4, x4, x1
     700:	54ffffa6 	b.vs	6f4 <bget+0x7c>
     704:	f100401f 	cmp	x0, #0x10
     708:	91004027 	add	x7, x1, #0x10
     70c:	9a85a000 	csel	x0, x0, x5, ge  // ge = tcont
buf_get_pos():
/home/jayanth/quemu-v8/source/optee_os/lib/libutils/isoc/bget.c:592
     710:	cb0400e7 	sub	x7, x7, x4
bget():
/home/jayanth/quemu-v8/source/optee_os/lib/libutils/isoc/bget.c:660
     714:	f9400862 	ldr	x2, [x3, #16]
buf_get_pos():
/home/jayanth/quemu-v8/source/optee_os/lib/libutils/isoc/bget.c:594
     718:	cb0003e0 	neg	x0, x0
/home/jayanth/quemu-v8/source/optee_os/lib/libutils/isoc/bget.c:599
     71c:	b27be7ea 	mov	x10, #0x7fffffffffffffe0    	// #9223372036854775776
bget():
/home/jayanth/quemu-v8/source/optee_os/lib/libutils/isoc/bget.c:684
     720:	eb03005f 	cmp	x2, x3
     724:	54fffe80 	b.eq	6f4 <bget+0x7c>  // b.none
buf_get_pos():
/home/jayanth/quemu-v8/source/optee_os/lib/libutils/isoc/bget.c:585
     728:	f9400445 	ldr	x5, [x2, #8]
     72c:	eb05009f 	cmp	x4, x5
     730:	5400102c 	b.gt	934 <bget+0x2bc>
/home/jayanth/quemu-v8/source/optee_os/lib/libutils/isoc/bget.c:592
     734:	8b0200a9 	add	x9, x5, x2
/home/jayanth/quemu-v8/source/optee_os/lib/libutils/isoc/bget.c:595
     738:	8b010048 	add	x8, x2, x1
/home/jayanth/quemu-v8/source/optee_os/lib/libutils/isoc/bget.c:592
     73c:	8b070126 	add	x6, x9, x7
/home/jayanth/quemu-v8/source/optee_os/lib/libutils/isoc/bget.c:594
     740:	8a060006 	and	x6, x0, x6
/home/jayanth/quemu-v8/source/optee_os/lib/libutils/isoc/bget.c:595
     744:	cb0800c6 	sub	x6, x6, x8
/home/jayanth/quemu-v8/source/optee_os/lib/libutils/isoc/bget.c:597
     748:	f10040c8 	subs	x8, x6, #0x10
     74c:	54000080 	b.eq	75c <bget+0xe4>  // b.none
/home/jayanth/quemu-v8/source/optee_os/lib/libutils/isoc/bget.c:599
     750:	d100c0c6 	sub	x6, x6, #0x30
     754:	eb0a00df 	cmp	x6, x10
     758:	54000ee2 	b.cs	934 <bget+0x2bc>  // b.hs, b.nlast
bget():
/home/jayanth/quemu-v8/source/optee_os/lib/libutils/isoc/bget.c:690
     75c:	f8656841 	ldr	x1, [x2, x5]
/home/jayanth/quemu-v8/source/optee_os/lib/libutils/isoc/bget.c:687
     760:	8b080040 	add	x0, x2, x8
/home/jayanth/quemu-v8/source/optee_os/lib/libutils/isoc/bget.c:690
     764:	eb05003f 	cmp	x1, x5
     768:	54000120 	b.eq	78c <bget+0x114>  // b.none
     76c:	90000063 	adrp	x3, c000 <__func__.4194+0x3e3>
     770:	f0000041 	adrp	x1, b000 <__text_end+0x1788>
     774:	f0000040 	adrp	x0, b000 <__text_end+0x1788>
     778:	91005063 	add	x3, x3, #0x14
     77c:	91353c21 	add	x1, x1, #0xd4f
     780:	9135a000 	add	x0, x0, #0xd68
     784:	52805642 	mov	w2, #0x2b2                 	// #690
     788:	17ffffc7 	b	6a4 <bget+0x2c>
/home/jayanth/quemu-v8/source/optee_os/lib/libutils/isoc/bget.c:698
     78c:	f9400c41 	ldr	x1, [x2, #24]
/home/jayanth/quemu-v8/source/optee_os/lib/libutils/isoc/bget.c:696
     790:	f825685f 	str	xzr, [x2, x5]
/home/jayanth/quemu-v8/source/optee_os/lib/libutils/isoc/bget.c:698
     794:	f9400826 	ldr	x6, [x1, #16]
     798:	eb06005f 	cmp	x2, x6
     79c:	54000120 	b.eq	7c0 <bget+0x148>  // b.none
     7a0:	90000063 	adrp	x3, c000 <__func__.4194+0x3e3>
     7a4:	f0000041 	adrp	x1, b000 <__text_end+0x1788>
     7a8:	f0000040 	adrp	x0, b000 <__text_end+0x1788>
     7ac:	91005063 	add	x3, x3, #0x14
     7b0:	91353c21 	add	x1, x1, #0xd4f
     7b4:	91362000 	add	x0, x0, #0xd88
     7b8:	52805742 	mov	w2, #0x2ba                 	// #698
     7bc:	17ffffba 	b	6a4 <bget+0x2c>
/home/jayanth/quemu-v8/source/optee_os/lib/libutils/isoc/bget.c:699
     7c0:	f9400846 	ldr	x6, [x2, #16]
     7c4:	f9400cc7 	ldr	x7, [x6, #24]
     7c8:	eb07005f 	cmp	x2, x7
     7cc:	54000120 	b.eq	7f0 <bget+0x178>  // b.none
     7d0:	90000063 	adrp	x3, c000 <__func__.4194+0x3e3>
     7d4:	f0000041 	adrp	x1, b000 <__text_end+0x1788>
     7d8:	f0000040 	adrp	x0, b000 <__text_end+0x1788>
     7dc:	91005063 	add	x3, x3, #0x14
     7e0:	91353c21 	add	x1, x1, #0xd4f
     7e4:	91368c00 	add	x0, x0, #0xda3
     7e8:	52805762 	mov	w2, #0x2bb                 	// #699
     7ec:	17ffffae 	b	6a4 <bget+0x2c>
/home/jayanth/quemu-v8/source/optee_os/lib/libutils/isoc/bget.c:701
     7f0:	b5000208 	cbnz	x8, 830 <bget+0x1b8>
/home/jayanth/quemu-v8/source/optee_os/lib/libutils/isoc/bget.c:706
     7f4:	f9000826 	str	x6, [x1, #16]
/home/jayanth/quemu-v8/source/optee_os/lib/libutils/isoc/bget.c:710
     7f8:	cb0503e5 	neg	x5, x5
/home/jayanth/quemu-v8/source/optee_os/lib/libutils/isoc/bget.c:707
     7fc:	f9400846 	ldr	x6, [x2, #16]
     800:	f9000cc1 	str	x1, [x6, #24]
/home/jayanth/quemu-v8/source/optee_os/lib/libutils/isoc/bget.c:710
     804:	f9000445 	str	x5, [x2, #8]
/home/jayanth/quemu-v8/source/optee_os/lib/libutils/isoc/bget.c:721
     808:	f9400402 	ldr	x2, [x0, #8]
     80c:	b7f801a2 	tbnz	x2, #63, 840 <bget+0x1c8>
     810:	90000063 	adrp	x3, c000 <__func__.4194+0x3e3>
     814:	f0000041 	adrp	x1, b000 <__text_end+0x1788>
     818:	f0000040 	adrp	x0, b000 <__text_end+0x1788>
     81c:	91005063 	add	x3, x3, #0x14
     820:	91353c21 	add	x1, x1, #0xd4f
     824:	9136f800 	add	x0, x0, #0xdbe
     828:	52805a22 	mov	w2, #0x2d1                 	// #721
     82c:	17ffff9e 	b	6a4 <bget+0x2c>
/home/jayanth/quemu-v8/source/optee_os/lib/libutils/isoc/bget.c:716
     830:	cb050105 	sub	x5, x8, x5
     834:	a9001408 	stp	x8, x5, [x0]
/home/jayanth/quemu-v8/source/optee_os/lib/libutils/isoc/bget.c:718
     838:	f9000448 	str	x8, [x2, #8]
     83c:	17fffff3 	b	808 <bget+0x190>
/home/jayanth/quemu-v8/source/optee_os/lib/libutils/isoc/bget.c:727
     840:	cb0203e2 	neg	x2, x2
     844:	cb040042 	sub	x2, x2, x4
     848:	f100805f 	cmp	x2, #0x20
     84c:	54000609 	b.ls	90c <bget+0x294>  // b.plast
/home/jayanth/quemu-v8/source/optee_os/lib/libutils/isoc/bget.c:733
     850:	8b040001 	add	x1, x0, x4
/home/jayanth/quemu-v8/source/optee_os/lib/libutils/isoc/bget.c:734
     854:	f9000422 	str	x2, [x1, #8]
/home/jayanth/quemu-v8/source/optee_os/lib/libutils/isoc/bget.c:735
     858:	f824681f 	str	xzr, [x0, x4]
/home/jayanth/quemu-v8/source/optee_os/lib/libutils/isoc/bget.c:736
     85c:	f9400404 	ldr	x4, [x0, #8]
     860:	8b020082 	add	x2, x4, x2
     864:	f9000402 	str	x2, [x0, #8]
/home/jayanth/quemu-v8/source/optee_os/lib/libutils/isoc/bget.c:738
     868:	f9400c62 	ldr	x2, [x3, #24]
     86c:	f9400844 	ldr	x4, [x2, #16]
     870:	eb03009f 	cmp	x4, x3
     874:	54000120 	b.eq	898 <bget+0x220>  // b.none
     878:	90000063 	adrp	x3, c000 <__func__.4194+0x3e3>
     87c:	f0000041 	adrp	x1, b000 <__text_end+0x1788>
     880:	f0000040 	adrp	x0, b000 <__text_end+0x1788>
     884:	91005063 	add	x3, x3, #0x14
     888:	91353c21 	add	x1, x1, #0xd4f
     88c:	91374400 	add	x0, x0, #0xdd1
     890:	52805c42 	mov	w2, #0x2e2                 	// #738
     894:	17ffff84 	b	6a4 <bget+0x2c>
/home/jayanth/quemu-v8/source/optee_os/lib/libutils/isoc/bget.c:740
     898:	f9400864 	ldr	x4, [x3, #16]
     89c:	f9400c84 	ldr	x4, [x4, #24]
     8a0:	eb03009f 	cmp	x4, x3
     8a4:	54000120 	b.eq	8c8 <bget+0x250>  // b.none
     8a8:	90000063 	adrp	x3, c000 <__func__.4194+0x3e3>
     8ac:	f0000041 	adrp	x1, b000 <__text_end+0x1788>
     8b0:	f0000040 	adrp	x0, b000 <__text_end+0x1788>
     8b4:	91005063 	add	x3, x3, #0x14
     8b8:	91353c21 	add	x1, x1, #0xd4f
     8bc:	91383000 	add	x0, x0, #0xe0c
     8c0:	52805c82 	mov	w2, #0x2e4                 	// #740
     8c4:	17ffff78 	b	6a4 <bget+0x2c>
/home/jayanth/quemu-v8/source/optee_os/lib/libutils/isoc/bget.c:743
     8c8:	a9010823 	stp	x3, x2, [x1, #16]
/home/jayanth/quemu-v8/source/optee_os/lib/libutils/isoc/bget.c:744
     8cc:	f9000c61 	str	x1, [x3, #24]
/home/jayanth/quemu-v8/source/optee_os/lib/libutils/isoc/bget.c:745
     8d0:	f9400c22 	ldr	x2, [x1, #24]
     8d4:	f9000841 	str	x1, [x2, #16]
/home/jayanth/quemu-v8/source/optee_os/lib/libutils/isoc/bget.c:747
     8d8:	f9400422 	ldr	x2, [x1, #8]
     8dc:	8b020021 	add	x1, x1, x2
     8e0:	eb01013f 	cmp	x9, x1
     8e4:	54000120 	b.eq	908 <bget+0x290>  // b.none
     8e8:	90000063 	adrp	x3, c000 <__func__.4194+0x3e3>
     8ec:	f0000041 	adrp	x1, b000 <__text_end+0x1788>
     8f0:	f0000040 	adrp	x0, b000 <__text_end+0x1788>
     8f4:	91005063 	add	x3, x3, #0x14
     8f8:	91353c21 	add	x1, x1, #0xd4f
     8fc:	91391c00 	add	x0, x0, #0xe47
     900:	52805d62 	mov	w2, #0x2eb                 	// #747
     904:	17ffff68 	b	6a4 <bget+0x2c>
/home/jayanth/quemu-v8/source/optee_os/lib/libutils/isoc/bget.c:748
     908:	f9000122 	str	x2, [x9]
/home/jayanth/quemu-v8/source/optee_os/lib/libutils/isoc/bget.c:752
     90c:	f9400402 	ldr	x2, [x0, #8]
/home/jayanth/quemu-v8/source/optee_os/lib/libutils/isoc/bget.c:755
     910:	91004000 	add	x0, x0, #0x10
/home/jayanth/quemu-v8/source/optee_os/lib/libutils/isoc/bget.c:752
     914:	f9401061 	ldr	x1, [x3, #32]
     918:	cb020021 	sub	x1, x1, x2
     91c:	f9001061 	str	x1, [x3, #32]
/home/jayanth/quemu-v8/source/optee_os/lib/libutils/isoc/bget.c:753
     920:	f9401461 	ldr	x1, [x3, #40]
     924:	91000421 	add	x1, x1, #0x1
     928:	f9001461 	str	x1, [x3, #40]
/home/jayanth/quemu-v8/source/optee_os/lib/libutils/isoc/bget.c:839
     92c:	a8c17bfd 	ldp	x29, x30, [sp], #16
     930:	d65f03c0 	ret
/home/jayanth/quemu-v8/source/optee_os/lib/libutils/isoc/bget.c:759
     934:	f9400842 	ldr	x2, [x2, #16]
     938:	17ffff7a 	b	720 <bget+0xa8>

000000000000093c <bgetz>:
bgetz():
/home/jayanth/quemu-v8/source/optee_os/lib/libutils/isoc/bget.c:850
     93c:	a9be7bfd 	stp	x29, x30, [sp, #-32]!
     940:	910003fd 	mov	x29, sp
     944:	f9000bf3 	str	x19, [sp, #16]
     948:	aa0203f3 	mov	x19, x2
/home/jayanth/quemu-v8/source/optee_os/lib/libutils/isoc/bget.c:851
     94c:	97ffff4b 	bl	678 <bget>
     950:	aa0003e3 	mov	x3, x0
/home/jayanth/quemu-v8/source/optee_os/lib/libutils/isoc/bget.c:853
     954:	b4000320 	cbz	x0, 9b8 <bgetz+0x7c>
/home/jayanth/quemu-v8/source/optee_os/lib/libutils/isoc/bget.c:858
     958:	f85f8002 	ldur	x2, [x0, #-8]
/home/jayanth/quemu-v8/source/optee_os/lib/libutils/isoc/bget.c:859
     95c:	b5000202 	cbnz	x2, 99c <bgetz+0x60>
/home/jayanth/quemu-v8/source/optee_os/lib/libutils/isoc/bget.c:863
     960:	a97e0801 	ldp	x1, x2, [x0, #-32]
     964:	d1008021 	sub	x1, x1, #0x20
/home/jayanth/quemu-v8/source/optee_os/lib/libutils/isoc/bget.c:865
     968:	cb020022 	sub	x2, x1, x2
/home/jayanth/quemu-v8/source/optee_os/lib/libutils/isoc/bget.c:867
     96c:	eb13005f 	cmp	x2, x19
     970:	540001aa 	b.ge	9a4 <bgetz+0x68>  // b.tcont
     974:	90000063 	adrp	x3, c000 <__func__.4194+0x3e3>
     978:	91005063 	add	x3, x3, #0x14
     97c:	91001463 	add	x3, x3, #0x5
     980:	f0000041 	adrp	x1, b000 <__text_end+0x1788>
     984:	f0000040 	adrp	x0, b000 <__text_end+0x1788>
     988:	91353c21 	add	x1, x1, #0xd4f
     98c:	9139b400 	add	x0, x0, #0xe6d
     990:	52806c62 	mov	w2, #0x363                 	// #867
     994:	940006a2 	bl	241c <_assert_log>
     998:	940006b2 	bl	2460 <_assert_break>
/home/jayanth/quemu-v8/source/optee_os/lib/libutils/isoc/bget.c:865
     99c:	928001e1 	mov	x1, #0xfffffffffffffff0    	// #-16
     9a0:	17fffff2 	b	968 <bgetz+0x2c>
memset_unchecked():
/home/jayanth/quemu-v8/source/optee_os/lib/libutils/isoc/bget_malloc.c:131 (discriminator 2)
     9a4:	aa0303e0 	mov	x0, x3
     9a8:	93407c42 	sxtw	x2, w2
     9ac:	52800001 	mov	w1, #0x0                   	// #0
     9b0:	9400028a 	bl	13d8 <memset>
     9b4:	aa0003e3 	mov	x3, x0
bgetz():
/home/jayanth/quemu-v8/source/optee_os/lib/libutils/isoc/bget.c:871
     9b8:	aa0303e0 	mov	x0, x3
     9bc:	f9400bf3 	ldr	x19, [sp, #16]
     9c0:	a8c27bfd 	ldp	x29, x30, [sp], #32
     9c4:	d65f03c0 	ret

00000000000009c8 <brel>:
brel():
/home/jayanth/quemu-v8/source/optee_os/lib/libutils/isoc/bget.c:925
     9c8:	a9be7bfd 	stp	x29, x30, [sp, #-32]!
     9cc:	910003fd 	mov	x29, sp
/home/jayanth/quemu-v8/source/optee_os/lib/libutils/isoc/bget.c:931
     9d0:	f9401823 	ldr	x3, [x1, #48]
/home/jayanth/quemu-v8/source/optee_os/lib/libutils/isoc/bget.c:925
     9d4:	a90153f3 	stp	x19, x20, [sp, #16]
/home/jayanth/quemu-v8/source/optee_os/lib/libutils/isoc/bget.c:931
     9d8:	91000463 	add	x3, x3, #0x1
     9dc:	f9001823 	str	x3, [x1, #48]
/home/jayanth/quemu-v8/source/optee_os/lib/libutils/isoc/bget.c:933
     9e0:	b5000160 	cbnz	x0, a0c <brel+0x44>
/home/jayanth/quemu-v8/source/optee_os/lib/libutils/isoc/bget.c:933 (discriminator 1)
     9e4:	90000063 	adrp	x3, c000 <__func__.4194+0x3e3>
     9e8:	91005063 	add	x3, x3, #0x14
     9ec:	f0000041 	adrp	x1, b000 <__text_end+0x1788>
     9f0:	f0000040 	adrp	x0, b000 <__text_end+0x1788>
     9f4:	91002c63 	add	x3, x3, #0xb
     9f8:	91353c21 	add	x1, x1, #0xd4f
     9fc:	9139ec00 	add	x0, x0, #0xe7b
     a00:	528074a2 	mov	w2, #0x3a5                 	// #933
/home/jayanth/quemu-v8/source/optee_os/lib/libutils/isoc/bget.c:968 (discriminator 1)
     a04:	94000686 	bl	241c <_assert_log>
     a08:	94000696 	bl	2460 <_assert_break>
/home/jayanth/quemu-v8/source/optee_os/lib/libutils/isoc/bget.c:965 (discriminator 2)
     a0c:	f85f8003 	ldur	x3, [x0, #-8]
/home/jayanth/quemu-v8/source/optee_os/lib/libutils/isoc/bget.c:968 (discriminator 2)
     a10:	b7f80143 	tbnz	x3, #63, a38 <brel+0x70>
/home/jayanth/quemu-v8/source/optee_os/lib/libutils/isoc/bget.c:968 (discriminator 1)
     a14:	90000063 	adrp	x3, c000 <__func__.4194+0x3e3>
     a18:	91005063 	add	x3, x3, #0x14
     a1c:	f0000041 	adrp	x1, b000 <__text_end+0x1788>
     a20:	f0000040 	adrp	x0, b000 <__text_end+0x1788>
     a24:	91002c63 	add	x3, x3, #0xb
     a28:	91353c21 	add	x1, x1, #0xd4f
     a2c:	913a1c00 	add	x0, x0, #0xe87
     a30:	52807902 	mov	w2, #0x3c8                 	// #968
     a34:	17fffff4 	b	a04 <brel+0x3c>
     a38:	d1004013 	sub	x19, x0, #0x10
/home/jayanth/quemu-v8/source/optee_os/lib/libutils/isoc/bget.c:974 (discriminator 2)
     a3c:	cb030264 	sub	x4, x19, x3
     a40:	f9400084 	ldr	x4, [x4]
     a44:	b4000144 	cbz	x4, a6c <brel+0xa4>
/home/jayanth/quemu-v8/source/optee_os/lib/libutils/isoc/bget.c:974 (discriminator 1)
     a48:	90000063 	adrp	x3, c000 <__func__.4194+0x3e3>
     a4c:	91005063 	add	x3, x3, #0x14
     a50:	f0000041 	adrp	x1, b000 <__text_end+0x1788>
     a54:	f0000040 	adrp	x0, b000 <__text_end+0x1788>
     a58:	91002c63 	add	x3, x3, #0xb
     a5c:	91353c21 	add	x1, x1, #0xd4f
     a60:	913a5c00 	add	x0, x0, #0xe97
     a64:	528079c2 	mov	w2, #0x3ce                 	// #974
     a68:	17ffffe7 	b	a04 <brel+0x3c>
/home/jayanth/quemu-v8/source/optee_os/lib/libutils/isoc/bget.c:977 (discriminator 2)
     a6c:	f9401024 	ldr	x4, [x1, #32]
     a70:	8b040064 	add	x4, x3, x4
     a74:	f9001024 	str	x4, [x1, #32]
/home/jayanth/quemu-v8/source/optee_os/lib/libutils/isoc/bget.c:978 (discriminator 2)
     a78:	b6f80144 	tbz	x4, #63, aa0 <brel+0xd8>
/home/jayanth/quemu-v8/source/optee_os/lib/libutils/isoc/bget.c:978 (discriminator 1)
     a7c:	90000063 	adrp	x3, c000 <__func__.4194+0x3e3>
     a80:	91005063 	add	x3, x3, #0x14
     a84:	f0000041 	adrp	x1, b000 <__text_end+0x1788>
     a88:	f0000040 	adrp	x0, b000 <__text_end+0x1788>
     a8c:	91002c63 	add	x3, x3, #0xb
     a90:	91353c21 	add	x1, x1, #0xd4f
     a94:	913b0c00 	add	x0, x0, #0xec3
     a98:	52807a42 	mov	w2, #0x3d2                 	// #978
     a9c:	17ffffda 	b	a04 <brel+0x3c>
/home/jayanth/quemu-v8/source/optee_os/lib/libutils/isoc/bget.c:983 (discriminator 2)
     aa0:	f85f0004 	ldur	x4, [x0, #-16]
     aa4:	b4000424 	cbz	x4, b28 <brel+0x160>
/home/jayanth/quemu-v8/source/optee_os/lib/libutils/isoc/bget.c:994
     aa8:	cb040273 	sub	x19, x19, x4
     aac:	f9400660 	ldr	x0, [x19, #8]
     ab0:	eb00009f 	cmp	x4, x0
     ab4:	54000140 	b.eq	adc <brel+0x114>  // b.none
/home/jayanth/quemu-v8/source/optee_os/lib/libutils/isoc/bget.c:994 (discriminator 1)
     ab8:	90000063 	adrp	x3, c000 <__func__.4194+0x3e3>
     abc:	91005063 	add	x3, x3, #0x14
     ac0:	f0000041 	adrp	x1, b000 <__text_end+0x1788>
     ac4:	f0000040 	adrp	x0, b000 <__text_end+0x1788>
     ac8:	91002c63 	add	x3, x3, #0xb
     acc:	91353c21 	add	x1, x1, #0xd4f
     ad0:	913b6800 	add	x0, x0, #0xeda
     ad4:	52807c42 	mov	w2, #0x3e2                 	// #994
     ad8:	17ffffcb 	b	a04 <brel+0x3c>
/home/jayanth/quemu-v8/source/optee_os/lib/libutils/isoc/bget.c:996 (discriminator 2)
     adc:	cb030083 	sub	x3, x4, x3
     ae0:	f9000663 	str	x3, [x19, #8]
/home/jayanth/quemu-v8/source/optee_os/lib/libutils/isoc/bget.c:1016
     ae4:	f9400660 	ldr	x0, [x19, #8]
     ae8:	8b000274 	add	x20, x19, x0
/home/jayanth/quemu-v8/source/optee_os/lib/libutils/isoc/bget.c:1017
     aec:	f9400681 	ldr	x1, [x20, #8]
     af0:	f100003f 	cmp	x1, #0x0
     af4:	540009ad 	b.le	c28 <brel+0x260>
/home/jayanth/quemu-v8/source/optee_os/lib/libutils/isoc/bget.c:1022
     af8:	f8616a83 	ldr	x3, [x20, x1]
     afc:	eb03003f 	cmp	x1, x3
     b00:	54000560 	b.eq	bac <brel+0x1e4>  // b.none
/home/jayanth/quemu-v8/source/optee_os/lib/libutils/isoc/bget.c:1022 (discriminator 1)
     b04:	90000063 	adrp	x3, c000 <__func__.4194+0x3e3>
     b08:	91005063 	add	x3, x3, #0x14
     b0c:	f0000041 	adrp	x1, b000 <__text_end+0x1788>
     b10:	f0000040 	adrp	x0, b000 <__text_end+0x1788>
     b14:	91002c63 	add	x3, x3, #0xb
     b18:	91353c21 	add	x1, x1, #0xd4f
     b1c:	913c4c00 	add	x0, x0, #0xf13
     b20:	52807fc2 	mov	w2, #0x3fe                 	// #1022
     b24:	17ffffb8 	b	a04 <brel+0x3c>
/home/jayanth/quemu-v8/source/optee_os/lib/libutils/isoc/bget.c:1002
     b28:	f9400c25 	ldr	x5, [x1, #24]
     b2c:	f94008a4 	ldr	x4, [x5, #16]
     b30:	eb01009f 	cmp	x4, x1
     b34:	54000140 	b.eq	b5c <brel+0x194>  // b.none
/home/jayanth/quemu-v8/source/optee_os/lib/libutils/isoc/bget.c:1002 (discriminator 1)
     b38:	90000063 	adrp	x3, c000 <__func__.4194+0x3e3>
     b3c:	91005063 	add	x3, x3, #0x14
     b40:	f0000041 	adrp	x1, b000 <__text_end+0x1788>
     b44:	f0000040 	adrp	x0, b000 <__text_end+0x1788>
     b48:	91002c63 	add	x3, x3, #0xb
     b4c:	91353c21 	add	x1, x1, #0xd4f
     b50:	91374400 	add	x0, x0, #0xdd1
     b54:	52807d42 	mov	w2, #0x3ea                 	// #1002
     b58:	17ffffab 	b	a04 <brel+0x3c>
/home/jayanth/quemu-v8/source/optee_os/lib/libutils/isoc/bget.c:1003 (discriminator 2)
     b5c:	f9400881 	ldr	x1, [x4, #16]
     b60:	f9400c21 	ldr	x1, [x1, #24]
     b64:	eb01009f 	cmp	x4, x1
     b68:	54000140 	b.eq	b90 <brel+0x1c8>  // b.none
/home/jayanth/quemu-v8/source/optee_os/lib/libutils/isoc/bget.c:1003 (discriminator 1)
     b6c:	90000063 	adrp	x3, c000 <__func__.4194+0x3e3>
     b70:	91005063 	add	x3, x3, #0x14
     b74:	f0000041 	adrp	x1, b000 <__text_end+0x1788>
     b78:	f0000040 	adrp	x0, b000 <__text_end+0x1788>
     b7c:	91002c63 	add	x3, x3, #0xb
     b80:	91353c21 	add	x1, x1, #0xd4f
     b84:	91383000 	add	x0, x0, #0xe0c
     b88:	52807d62 	mov	w2, #0x3eb                 	// #1003
     b8c:	17ffff9e 	b	a04 <brel+0x3c>
/home/jayanth/quemu-v8/source/optee_os/lib/libutils/isoc/bget.c:1005 (discriminator 2)
     b90:	a9011664 	stp	x4, x5, [x19, #16]
/home/jayanth/quemu-v8/source/optee_os/lib/libutils/isoc/bget.c:969 (discriminator 2)
     b94:	cb0303e3 	neg	x3, x3
/home/jayanth/quemu-v8/source/optee_os/lib/libutils/isoc/bget.c:1006 (discriminator 2)
     b98:	f9000c93 	str	x19, [x4, #24]
/home/jayanth/quemu-v8/source/optee_os/lib/libutils/isoc/bget.c:1007 (discriminator 2)
     b9c:	f9400e61 	ldr	x1, [x19, #24]
     ba0:	f9000833 	str	x19, [x1, #16]
/home/jayanth/quemu-v8/source/optee_os/lib/libutils/isoc/bget.c:1008 (discriminator 2)
     ba4:	f81f8003 	stur	x3, [x0, #-8]
     ba8:	17ffffcf 	b	ae4 <brel+0x11c>
/home/jayanth/quemu-v8/source/optee_os/lib/libutils/isoc/bget.c:1023 (discriminator 2)
     bac:	f9400e84 	ldr	x4, [x20, #24]
     bb0:	f9400885 	ldr	x5, [x4, #16]
     bb4:	eb1400bf 	cmp	x5, x20
     bb8:	54000140 	b.eq	be0 <brel+0x218>  // b.none
/home/jayanth/quemu-v8/source/optee_os/lib/libutils/isoc/bget.c:1023 (discriminator 1)
     bbc:	90000063 	adrp	x3, c000 <__func__.4194+0x3e3>
     bc0:	91005063 	add	x3, x3, #0x14
     bc4:	f0000041 	adrp	x1, b000 <__text_end+0x1788>
     bc8:	f0000040 	adrp	x0, b000 <__text_end+0x1788>
     bcc:	91002c63 	add	x3, x3, #0xb
     bd0:	91353c21 	add	x1, x1, #0xd4f
     bd4:	913d3000 	add	x0, x0, #0xf4c
     bd8:	52807fe2 	mov	w2, #0x3ff                 	// #1023
     bdc:	17ffff8a 	b	a04 <brel+0x3c>
/home/jayanth/quemu-v8/source/optee_os/lib/libutils/isoc/bget.c:1024 (discriminator 2)
     be0:	f94008a3 	ldr	x3, [x5, #16]
     be4:	f9400c66 	ldr	x6, [x3, #24]
     be8:	eb0500df 	cmp	x6, x5
     bec:	54000140 	b.eq	c14 <brel+0x24c>  // b.none
/home/jayanth/quemu-v8/source/optee_os/lib/libutils/isoc/bget.c:1024 (discriminator 1)
     bf0:	90000063 	adrp	x3, c000 <__func__.4194+0x3e3>
     bf4:	91005063 	add	x3, x3, #0x14
     bf8:	f0000041 	adrp	x1, b000 <__text_end+0x1788>
     bfc:	f0000040 	adrp	x0, b000 <__text_end+0x1788>
     c00:	91002c63 	add	x3, x3, #0xb
     c04:	91353c21 	add	x1, x1, #0xd4f
     c08:	913da400 	add	x0, x0, #0xf69
     c0c:	52808002 	mov	w2, #0x400                 	// #1024
     c10:	17ffff7d 	b	a04 <brel+0x3c>
/home/jayanth/quemu-v8/source/optee_os/lib/libutils/isoc/bget.c:1025 (discriminator 2)
     c14:	f9000883 	str	x3, [x4, #16]
/home/jayanth/quemu-v8/source/optee_os/lib/libutils/isoc/bget.c:1027 (discriminator 2)
     c18:	8b010014 	add	x20, x0, x1
/home/jayanth/quemu-v8/source/optee_os/lib/libutils/isoc/bget.c:1026 (discriminator 2)
     c1c:	f9000c64 	str	x4, [x3, #24]
/home/jayanth/quemu-v8/source/optee_os/lib/libutils/isoc/bget.c:1027 (discriminator 2)
     c20:	f9000674 	str	x20, [x19, #8]
/home/jayanth/quemu-v8/source/optee_os/lib/libutils/isoc/bget.c:1036 (discriminator 2)
     c24:	8b140274 	add	x20, x19, x20
/home/jayanth/quemu-v8/source/optee_os/lib/libutils/isoc/bget.c:1038
     c28:	340000e2 	cbz	w2, c44 <brel+0x27c>
/home/jayanth/quemu-v8/source/optee_os/lib/libutils/isoc/bget.c:1040
     c2c:	f9400662 	ldr	x2, [x19, #8]
memset_unchecked():
/home/jayanth/quemu-v8/source/optee_os/lib/libutils/isoc/bget_malloc.c:131
     c30:	91008260 	add	x0, x19, #0x20
     c34:	52800aa1 	mov	w1, #0x55                  	// #85
brel():
/home/jayanth/quemu-v8/source/optee_os/lib/libutils/isoc/bget.c:1040
     c38:	51008042 	sub	w2, w2, #0x20
memset_unchecked():
/home/jayanth/quemu-v8/source/optee_os/lib/libutils/isoc/bget_malloc.c:131
     c3c:	93407c42 	sxtw	x2, w2
     c40:	940001e6 	bl	13d8 <memset>
brel():
/home/jayanth/quemu-v8/source/optee_os/lib/libutils/isoc/bget.c:1042
     c44:	f9400680 	ldr	x0, [x20, #8]
     c48:	b7f80140 	tbnz	x0, #63, c70 <brel+0x2a8>
/home/jayanth/quemu-v8/source/optee_os/lib/libutils/isoc/bget.c:1042 (discriminator 1)
     c4c:	90000063 	adrp	x3, c000 <__func__.4194+0x3e3>
     c50:	91005063 	add	x3, x3, #0x14
     c54:	f0000041 	adrp	x1, b000 <__text_end+0x1788>
     c58:	f0000040 	adrp	x0, b000 <__text_end+0x1788>
     c5c:	91002c63 	add	x3, x3, #0xb
     c60:	91353c21 	add	x1, x1, #0xd4f
     c64:	913e1800 	add	x0, x0, #0xf86
     c68:	52808242 	mov	w2, #0x412                 	// #1042
     c6c:	17ffff66 	b	a04 <brel+0x3c>
/home/jayanth/quemu-v8/source/optee_os/lib/libutils/isoc/bget.c:1047 (discriminator 2)
     c70:	f9400660 	ldr	x0, [x19, #8]
     c74:	f9000280 	str	x0, [x20]
/home/jayanth/quemu-v8/source/optee_os/lib/libutils/isoc/bget.c:1075 (discriminator 2)
     c78:	a94153f3 	ldp	x19, x20, [sp, #16]
     c7c:	a8c27bfd 	ldp	x29, x30, [sp], #32
     c80:	d65f03c0 	ret

0000000000000c84 <bgetr>:
bgetr():
/home/jayanth/quemu-v8/source/optee_os/lib/libutils/isoc/bget.c:884
     c84:	a9bc7bfd 	stp	x29, x30, [sp, #-64]!
     c88:	910003fd 	mov	x29, sp
     c8c:	a90153f3 	stp	x19, x20, [sp, #16]
     c90:	aa0303f4 	mov	x20, x3
/home/jayanth/quemu-v8/source/optee_os/lib/libutils/isoc/bget.c:889
     c94:	aa0403e3 	mov	x3, x4
/home/jayanth/quemu-v8/source/optee_os/lib/libutils/isoc/bget.c:884
     c98:	a9025bf5 	stp	x21, x22, [sp, #32]
     c9c:	aa0003f5 	mov	x21, x0
     ca0:	aa0103e0 	mov	x0, x1
     ca4:	aa0203e1 	mov	x1, x2
/home/jayanth/quemu-v8/source/optee_os/lib/libutils/isoc/bget.c:889
     ca8:	aa1403e2 	mov	x2, x20
/home/jayanth/quemu-v8/source/optee_os/lib/libutils/isoc/bget.c:884
     cac:	f9001bf7 	str	x23, [sp, #48]
     cb0:	aa0403f7 	mov	x23, x4
/home/jayanth/quemu-v8/source/optee_os/lib/libutils/isoc/bget.c:889
     cb4:	97fffe71 	bl	678 <bget>
     cb8:	aa0003f6 	mov	x22, x0
     cbc:	b4000420 	cbz	x0, d40 <bgetr+0xbc>
/home/jayanth/quemu-v8/source/optee_os/lib/libutils/isoc/bget.c:892
     cc0:	b4000415 	cbz	x21, d40 <bgetr+0xbc>
/home/jayanth/quemu-v8/source/optee_os/lib/libutils/isoc/bget.c:906
     cc4:	f85f82a1 	ldur	x1, [x21, #-8]
     cc8:	928001f3 	mov	x19, #0xfffffffffffffff0    	// #-16
     ccc:	cb010273 	sub	x19, x19, x1
/home/jayanth/quemu-v8/source/optee_os/lib/libutils/isoc/bget.c:907
     cd0:	f100027f 	cmp	x19, #0x0
     cd4:	5400016c 	b.gt	d00 <bgetr+0x7c>
     cd8:	90000063 	adrp	x3, c000 <__func__.4194+0x3e3>
     cdc:	91005063 	add	x3, x3, #0x14
     ce0:	91004063 	add	x3, x3, #0x10
     ce4:	f0000041 	adrp	x1, b000 <__text_end+0x1788>
     ce8:	f0000040 	adrp	x0, b000 <__text_end+0x1788>
     cec:	91353c21 	add	x1, x1, #0xd4f
     cf0:	913e5c00 	add	x0, x0, #0xf97
     cf4:	52807162 	mov	w2, #0x38b                 	// #907
     cf8:	940005c9 	bl	241c <_assert_log>
     cfc:	940005d9 	bl	2460 <_assert_break>
/home/jayanth/quemu-v8/source/optee_os/lib/libutils/isoc/bget.c:908 (discriminator 2)
     d00:	eb13029f 	cmp	x20, x19
     d04:	93407e81 	sxtw	x1, w20
     d08:	93407e62 	sxtw	x2, w19
     d0c:	9a81a042 	csel	x2, x2, x1, ge  // ge = tcont
     d10:	aa1503e1 	mov	x1, x21
     d14:	97fffcc3 	bl	20 <memcpy>
/home/jayanth/quemu-v8/source/optee_os/lib/libutils/isoc/bget.c:912 (discriminator 2)
     d18:	eb13029f 	cmp	x20, x19
     d1c:	540000ad 	b.le	d30 <bgetr+0xac>
/home/jayanth/quemu-v8/source/optee_os/lib/libutils/isoc/bget.c:913
     d20:	cb130282 	sub	x2, x20, x19
     d24:	8b1302c0 	add	x0, x22, x19
     d28:	52800001 	mov	w1, #0x0                   	// #0
     d2c:	940001ab 	bl	13d8 <memset>
/home/jayanth/quemu-v8/source/optee_os/lib/libutils/isoc/bget.c:915
     d30:	aa1703e1 	mov	x1, x23
     d34:	aa1503e0 	mov	x0, x21
     d38:	52800002 	mov	w2, #0x0                   	// #0
     d3c:	97ffff23 	bl	9c8 <brel>
/home/jayanth/quemu-v8/source/optee_os/lib/libutils/isoc/bget.c:917
     d40:	aa1603e0 	mov	x0, x22
     d44:	a94153f3 	ldp	x19, x20, [sp, #16]
     d48:	a9425bf5 	ldp	x21, x22, [sp, #32]
     d4c:	f9401bf7 	ldr	x23, [sp, #48]
     d50:	a8c47bfd 	ldp	x29, x30, [sp], #64
     d54:	d65f03c0 	ret

0000000000000d58 <bpool>:
bpool():
/home/jayanth/quemu-v8/source/optee_os/lib/libutils/isoc/bget.c:1101
     d58:	a9bf7bfd 	stp	x29, x30, [sp, #-16]!
/home/jayanth/quemu-v8/source/optee_os/lib/libutils/isoc/bget.c:1106
     d5c:	927cec21 	and	x1, x1, #0xfffffffffffffff0
/home/jayanth/quemu-v8/source/optee_os/lib/libutils/isoc/bget.c:1125
     d60:	f1004021 	subs	x1, x1, #0x10
/home/jayanth/quemu-v8/source/optee_os/lib/libutils/isoc/bget.c:1101
     d64:	910003fd 	mov	x29, sp
/home/jayanth/quemu-v8/source/optee_os/lib/libutils/isoc/bget.c:1125
     d68:	54000165 	b.pl	d94 <bpool+0x3c>  // b.nfrst
/home/jayanth/quemu-v8/source/optee_os/lib/libutils/isoc/bget.c:1125 (discriminator 1)
     d6c:	90000063 	adrp	x3, c000 <__func__.4194+0x3e3>
     d70:	91005063 	add	x3, x3, #0x14
     d74:	f0000041 	adrp	x1, b000 <__text_end+0x1788>
     d78:	f0000040 	adrp	x0, b000 <__text_end+0x1788>
     d7c:	91005863 	add	x3, x3, #0x16
     d80:	91353c21 	add	x1, x1, #0xd4f
     d84:	913e8400 	add	x0, x0, #0xfa1
     d88:	52808ca2 	mov	w2, #0x465                 	// #1125
/home/jayanth/quemu-v8/source/optee_os/lib/libutils/isoc/bget.c:1135 (discriminator 1)
     d8c:	940005a4 	bl	241c <_assert_log>
     d90:	940005b4 	bl	2460 <_assert_break>
/home/jayanth/quemu-v8/source/optee_os/lib/libutils/isoc/bget.c:1135 (discriminator 2)
     d94:	f9400c44 	ldr	x4, [x2, #24]
     d98:	f9400883 	ldr	x3, [x4, #16]
/home/jayanth/quemu-v8/source/optee_os/lib/libutils/isoc/bget.c:1131 (discriminator 2)
     d9c:	f900001f 	str	xzr, [x0]
/home/jayanth/quemu-v8/source/optee_os/lib/libutils/isoc/bget.c:1135 (discriminator 2)
     da0:	eb02007f 	cmp	x3, x2
     da4:	54000140 	b.eq	dcc <bpool+0x74>  // b.none
/home/jayanth/quemu-v8/source/optee_os/lib/libutils/isoc/bget.c:1135 (discriminator 1)
     da8:	90000063 	adrp	x3, c000 <__func__.4194+0x3e3>
     dac:	91005063 	add	x3, x3, #0x14
     db0:	f0000041 	adrp	x1, b000 <__text_end+0x1788>
     db4:	f0000040 	adrp	x0, b000 <__text_end+0x1788>
     db8:	91005863 	add	x3, x3, #0x16
     dbc:	91353c21 	add	x1, x1, #0xd4f
     dc0:	91374400 	add	x0, x0, #0xdd1
     dc4:	52808de2 	mov	w2, #0x46f                 	// #1135
     dc8:	17fffff1 	b	d8c <bpool+0x34>
/home/jayanth/quemu-v8/source/optee_os/lib/libutils/isoc/bget.c:1136 (discriminator 2)
     dcc:	f9400862 	ldr	x2, [x3, #16]
     dd0:	f9400c42 	ldr	x2, [x2, #24]
     dd4:	eb02007f 	cmp	x3, x2
     dd8:	54000140 	b.eq	e00 <bpool+0xa8>  // b.none
/home/jayanth/quemu-v8/source/optee_os/lib/libutils/isoc/bget.c:1136
     ddc:	90000063 	adrp	x3, c000 <__func__.4194+0x3e3>
     de0:	91005063 	add	x3, x3, #0x14
     de4:	f0000041 	adrp	x1, b000 <__text_end+0x1788>
     de8:	f0000040 	adrp	x0, b000 <__text_end+0x1788>
     dec:	91005863 	add	x3, x3, #0x16
     df0:	91353c21 	add	x1, x1, #0xd4f
     df4:	91383000 	add	x0, x0, #0xe0c
     df8:	52808e02 	mov	w2, #0x470                 	// #1136
     dfc:	17ffffe4 	b	d8c <bpool+0x34>
/home/jayanth/quemu-v8/source/optee_os/lib/libutils/isoc/bget.c:1138 (discriminator 2)
     e00:	a9011003 	stp	x3, x4, [x0, #16]
/home/jayanth/quemu-v8/source/optee_os/lib/libutils/isoc/bget.c:1139 (discriminator 2)
     e04:	f9000c60 	str	x0, [x3, #24]
/home/jayanth/quemu-v8/source/optee_os/lib/libutils/isoc/bget.c:1140 (discriminator 2)
     e08:	f9400c02 	ldr	x2, [x0, #24]
     e0c:	f9000840 	str	x0, [x2, #16]
/home/jayanth/quemu-v8/source/optee_os/lib/libutils/isoc/bget.c:1156 (discriminator 2)
     e10:	8b010002 	add	x2, x0, x1
/home/jayanth/quemu-v8/source/optee_os/lib/libutils/isoc/bget.c:1151 (discriminator 2)
     e14:	f9000401 	str	x1, [x0, #8]
/home/jayanth/quemu-v8/source/optee_os/lib/libutils/isoc/bget.c:1157 (discriminator 2)
     e18:	f8216801 	str	x1, [x0, x1]
/home/jayanth/quemu-v8/source/optee_os/lib/libutils/isoc/bget.c:1160 (discriminator 2)
     e1c:	d2f00000 	mov	x0, #0x8000000000000000    	// #-9223372036854775808
     e20:	f9000440 	str	x0, [x2, #8]
/home/jayanth/quemu-v8/source/optee_os/lib/libutils/isoc/bget.c:1161 (discriminator 2)
     e24:	a8c17bfd 	ldp	x29, x30, [sp], #16
     e28:	d65f03c0 	ret

0000000000000e2c <bstats>:
bstats():
/home/jayanth/quemu-v8/source/optee_os/lib/libutils/isoc/bget.c:1174
     e2c:	f94014a7 	ldr	x7, [x5, #40]
/home/jayanth/quemu-v8/source/optee_os/lib/libutils/isoc/bget.c:1172
     e30:	f94008a6 	ldr	x6, [x5, #16]
/home/jayanth/quemu-v8/source/optee_os/lib/libutils/isoc/bget.c:1174
     e34:	f9000067 	str	x7, [x3]
/home/jayanth/quemu-v8/source/optee_os/lib/libutils/isoc/bget.c:1175
     e38:	f94018a3 	ldr	x3, [x5, #48]
     e3c:	f9000083 	str	x3, [x4]
/home/jayanth/quemu-v8/source/optee_os/lib/libutils/isoc/bget.c:1176
     e40:	f94010a3 	ldr	x3, [x5, #32]
     e44:	f9000003 	str	x3, [x0]
/home/jayanth/quemu-v8/source/optee_os/lib/libutils/isoc/bget.c:1177
     e48:	f900003f 	str	xzr, [x1]
/home/jayanth/quemu-v8/source/optee_os/lib/libutils/isoc/bget.c:1178
     e4c:	92800000 	mov	x0, #0xffffffffffffffff    	// #-1
     e50:	f9000040 	str	x0, [x2]
/home/jayanth/quemu-v8/source/optee_os/lib/libutils/isoc/bget.c:1179
     e54:	eb0600bf 	cmp	x5, x6
     e58:	54000041 	b.ne	e60 <bstats+0x34>  // b.any
     e5c:	d65f03c0 	ret
/home/jayanth/quemu-v8/source/optee_os/lib/libutils/isoc/bget.c:1180
     e60:	f94004c3 	ldr	x3, [x6, #8]
     e64:	f100007f 	cmp	x3, #0x0
     e68:	540001ac 	b.gt	e9c <bstats+0x70>
/home/jayanth/quemu-v8/source/optee_os/lib/libutils/isoc/bget.c:1180 (discriminator 1)
     e6c:	90000063 	adrp	x3, c000 <__func__.4194+0x3e3>
     e70:	91005063 	add	x3, x3, #0x14
     e74:	91007063 	add	x3, x3, #0x1c
     e78:	f0000041 	adrp	x1, b000 <__text_end+0x1788>
     e7c:	f0000040 	adrp	x0, b000 <__text_end+0x1788>
     e80:	91353c21 	add	x1, x1, #0xd4f
     e84:	913f5800 	add	x0, x0, #0xfd6
/home/jayanth/quemu-v8/source/optee_os/lib/libutils/isoc/bget.c:1171 (discriminator 1)
     e88:	a9bf7bfd 	stp	x29, x30, [sp, #-16]!
/home/jayanth/quemu-v8/source/optee_os/lib/libutils/isoc/bget.c:1180 (discriminator 1)
     e8c:	52809382 	mov	w2, #0x49c                 	// #1180
/home/jayanth/quemu-v8/source/optee_os/lib/libutils/isoc/bget.c:1171 (discriminator 1)
     e90:	910003fd 	mov	x29, sp
/home/jayanth/quemu-v8/source/optee_os/lib/libutils/isoc/bget.c:1180 (discriminator 1)
     e94:	94000562 	bl	241c <_assert_log>
     e98:	94000572 	bl	2460 <_assert_break>
/home/jayanth/quemu-v8/source/optee_os/lib/libutils/isoc/bget.c:1181 (discriminator 2)
     e9c:	f9400020 	ldr	x0, [x1]
     ea0:	8b030000 	add	x0, x0, x3
     ea4:	f9000020 	str	x0, [x1]
/home/jayanth/quemu-v8/source/optee_os/lib/libutils/isoc/bget.c:1182 (discriminator 2)
     ea8:	f9400043 	ldr	x3, [x2]
     eac:	f94004c0 	ldr	x0, [x6, #8]
     eb0:	eb03001f 	cmp	x0, x3
     eb4:	5400004d 	b.le	ebc <bstats+0x90>
/home/jayanth/quemu-v8/source/optee_os/lib/libutils/isoc/bget.c:1183
     eb8:	f9000040 	str	x0, [x2]
/home/jayanth/quemu-v8/source/optee_os/lib/libutils/isoc/bget.c:1185
     ebc:	f94008c6 	ldr	x6, [x6, #16]
     ec0:	17ffffe5 	b	e54 <bstats+0x28>

0000000000000ec4 <malloc_reset_stats>:
gen_malloc_reset_stats():
/home/jayanth/quemu-v8/source/optee_os/lib/libutils/isoc/bget_malloc.c:229
     ec4:	b0000060 	adrp	x0, d000 <_DYNAMIC>
     ec8:	910ea000 	add	x0, x0, #0x3a8
     ecc:	b9006c1f 	str	wzr, [x0, #108]
/home/jayanth/quemu-v8/source/optee_os/lib/libutils/isoc/bget_malloc.c:230
     ed0:	b900741f 	str	wzr, [x0, #116]
/home/jayanth/quemu-v8/source/optee_os/lib/libutils/isoc/bget_malloc.c:231
     ed4:	f9003c1f 	str	xzr, [x0, #120]
malloc_reset_stats():
/home/jayanth/quemu-v8/source/optee_os/lib/libutils/isoc/bget_malloc.c:239
     ed8:	d65f03c0 	ret

0000000000000edc <malloc_get_stats>:
malloc_get_stats():
/home/jayanth/quemu-v8/source/optee_os/lib/libutils/isoc/bget_malloc.c:252
     edc:	a9be7bfd 	stp	x29, x30, [sp, #-32]!
memcpy_unchecked():
/home/jayanth/quemu-v8/source/optee_os/lib/libutils/isoc/bget_malloc.c:137
     ee0:	d2800702 	mov	x2, #0x38                  	// #56
malloc_get_stats():
/home/jayanth/quemu-v8/source/optee_os/lib/libutils/isoc/bget_malloc.c:252
     ee4:	910003fd 	mov	x29, sp
     ee8:	a90153f3 	stp	x19, x20, [sp, #16]
memcpy_unchecked():
/home/jayanth/quemu-v8/source/optee_os/lib/libutils/isoc/bget_malloc.c:137
     eec:	b0000073 	adrp	x19, d000 <_DYNAMIC>
     ef0:	910ea273 	add	x19, x19, #0x3a8
malloc_get_stats():
/home/jayanth/quemu-v8/source/optee_os/lib/libutils/isoc/bget_malloc.c:252
     ef4:	aa0003f4 	mov	x20, x0
memcpy_unchecked():
/home/jayanth/quemu-v8/source/optee_os/lib/libutils/isoc/bget_malloc.c:137
     ef8:	91012261 	add	x1, x19, #0x48
     efc:	97fffc49 	bl	20 <memcpy>
gen_malloc_get_stats():
/home/jayanth/quemu-v8/source/optee_os/lib/libutils/isoc/bget_malloc.c:247
     f00:	f9401260 	ldr	x0, [x19, #32]
     f04:	b9002280 	str	w0, [x20, #32]
malloc_get_stats():
/home/jayanth/quemu-v8/source/optee_os/lib/libutils/isoc/bget_malloc.c:254
     f08:	a94153f3 	ldp	x19, x20, [sp, #16]
     f0c:	a8c27bfd 	ldp	x29, x30, [sp], #32
     f10:	d65f03c0 	ret

0000000000000f14 <malloc>:
malloc():
/home/jayanth/quemu-v8/source/optee_os/lib/libutils/isoc/bget_malloc.c:690
     f14:	a9be7bfd 	stp	x29, x30, [sp, #-32]!
     f18:	910003fd 	mov	x29, sp
     f1c:	f9000bf3 	str	x19, [sp, #16]
     f20:	aa0003f3 	mov	x19, x0
raw_memalign():
/home/jayanth/quemu-v8/source/optee_os/lib/libutils/isoc/bget_malloc.c:361
     f24:	b7f80200 	tbnz	x0, #63, f64 <malloc+0x50>
/home/jayanth/quemu-v8/source/optee_os/lib/libutils/isoc/bget_malloc.c:366
     f28:	f100001f 	cmp	x0, #0x0
/home/jayanth/quemu-v8/source/optee_os/lib/libutils/isoc/bget_malloc.c:368
     f2c:	b0000063 	adrp	x3, d000 <_DYNAMIC>
     f30:	9a9f1402 	csinc	x2, x0, xzr, ne  // ne = any
     f34:	910ea063 	add	x3, x3, #0x3a8
     f38:	d2800001 	mov	x1, #0x0                   	// #0
     f3c:	d2800200 	mov	x0, #0x10                  	// #16
     f40:	97fffdce 	bl	678 <bget>
     f44:	aa0003e6 	mov	x6, x0
/home/jayanth/quemu-v8/source/optee_os/lib/libutils/isoc/bget_malloc.c:370
     f48:	aa1303e1 	mov	x1, x19
     f4c:	aa0603e0 	mov	x0, x6
     f50:	97fffdb9 	bl	634 <raw_malloc_return_hook.constprop.0>
malloc():
/home/jayanth/quemu-v8/source/optee_os/lib/libutils/isoc/bget_malloc.c:697
     f54:	aa0603e0 	mov	x0, x6
     f58:	f9400bf3 	ldr	x19, [sp, #16]
     f5c:	a8c27bfd 	ldp	x29, x30, [sp], #32
     f60:	d65f03c0 	ret
raw_memalign():
/home/jayanth/quemu-v8/source/optee_os/lib/libutils/isoc/bget_malloc.c:352
     f64:	d2800006 	mov	x6, #0x0                   	// #0
     f68:	17fffff8 	b	f48 <malloc+0x34>

0000000000000f6c <calloc>:
calloc():
/home/jayanth/quemu-v8/source/optee_os/lib/libutils/isoc/bget_malloc.c:708
     f6c:	a9be7bfd 	stp	x29, x30, [sp, #-32]!
raw_calloc():
/home/jayanth/quemu-v8/source/optee_os/lib/libutils/isoc/bget_malloc.c:402
     f70:	d2800022 	mov	x2, #0x1                   	// #1
calloc():
/home/jayanth/quemu-v8/source/optee_os/lib/libutils/isoc/bget_malloc.c:708
     f74:	910003fd 	mov	x29, sp
     f78:	f9000bf3 	str	x19, [sp, #16]
raw_calloc():
/home/jayanth/quemu-v8/source/optee_os/lib/libutils/isoc/bget_malloc.c:402
     f7c:	9b017c13 	mul	x19, x0, x1
     f80:	9bc17c00 	umulh	x0, x0, x1
     f84:	f100001f 	cmp	x0, #0x0
     f88:	9a9f07e0 	cset	x0, ne  // ne = any
     f8c:	f100027f 	cmp	x19, #0x0
     f90:	9a82a000 	csel	x0, x0, x2, ge  // ge = tcont
     f94:	b50001c0 	cbnz	x0, fcc <calloc+0x60>
/home/jayanth/quemu-v8/source/optee_os/lib/libutils/isoc/bget_malloc.c:411
     f98:	9a821262 	csel	x2, x19, x2, ne  // ne = any
     f9c:	b0000063 	adrp	x3, d000 <_DYNAMIC>
     fa0:	d2800001 	mov	x1, #0x0                   	// #0
     fa4:	910ea063 	add	x3, x3, #0x3a8
     fa8:	97fffe65 	bl	93c <bgetz>
     fac:	aa0003e6 	mov	x6, x0
/home/jayanth/quemu-v8/source/optee_os/lib/libutils/isoc/bget_malloc.c:413
     fb0:	aa1303e1 	mov	x1, x19
     fb4:	aa0603e0 	mov	x0, x6
     fb8:	97fffd9f 	bl	634 <raw_malloc_return_hook.constprop.0>
calloc():
/home/jayanth/quemu-v8/source/optee_os/lib/libutils/isoc/bget_malloc.c:715
     fbc:	aa0603e0 	mov	x0, x6
     fc0:	f9400bf3 	ldr	x19, [sp, #16]
     fc4:	a8c27bfd 	ldp	x29, x30, [sp], #32
     fc8:	d65f03c0 	ret
raw_calloc():
/home/jayanth/quemu-v8/source/optee_os/lib/libutils/isoc/bget_malloc.c:396
     fcc:	d2800006 	mov	x6, #0x0                   	// #0
     fd0:	17fffff8 	b	fb0 <calloc+0x44>

0000000000000fd4 <realloc>:
realloc():
/home/jayanth/quemu-v8/source/optee_os/lib/libutils/isoc/bget_malloc.c:724
     fd4:	a9be7bfd 	stp	x29, x30, [sp, #-32]!
     fd8:	910003fd 	mov	x29, sp
     fdc:	f9000bf3 	str	x19, [sp, #16]
     fe0:	aa0103f3 	mov	x19, x1
raw_realloc():
/home/jayanth/quemu-v8/source/optee_os/lib/libutils/isoc/bget_malloc.c:425
     fe4:	b7f80201 	tbnz	x1, #63, 1024 <realloc+0x50>
/home/jayanth/quemu-v8/source/optee_os/lib/libutils/isoc/bget_malloc.c:434
     fe8:	f100003f 	cmp	x1, #0x0
/home/jayanth/quemu-v8/source/optee_os/lib/libutils/isoc/bget_malloc.c:436
     fec:	b0000064 	adrp	x4, d000 <_DYNAMIC>
     ff0:	9a9f1423 	csinc	x3, x1, xzr, ne  // ne = any
     ff4:	910ea084 	add	x4, x4, #0x3a8
     ff8:	d2800002 	mov	x2, #0x0                   	// #0
     ffc:	d2800001 	mov	x1, #0x0                   	// #0
    1000:	97ffff21 	bl	c84 <bgetr>
    1004:	aa0003e6 	mov	x6, x0
/home/jayanth/quemu-v8/source/optee_os/lib/libutils/isoc/bget_malloc.c:438
    1008:	aa1303e1 	mov	x1, x19
    100c:	aa0603e0 	mov	x0, x6
    1010:	97fffd89 	bl	634 <raw_malloc_return_hook.constprop.0>
realloc():
/home/jayanth/quemu-v8/source/optee_os/lib/libutils/isoc/bget_malloc.c:731
    1014:	aa0603e0 	mov	x0, x6
    1018:	f9400bf3 	ldr	x19, [sp, #16]
    101c:	a8c27bfd 	ldp	x29, x30, [sp], #32
    1020:	d65f03c0 	ret
raw_realloc():
/home/jayanth/quemu-v8/source/optee_os/lib/libutils/isoc/bget_malloc.c:421
    1024:	d2800006 	mov	x6, #0x0                   	// #0
    1028:	17fffff8 	b	1008 <realloc+0x34>

000000000000102c <memalign>:
raw_memalign():
/home/jayanth/quemu-v8/source/optee_os/lib/libutils/isoc/bget_malloc.c:355
    102c:	b4000320 	cbz	x0, 1090 <memalign+0x64>
memalign():
/home/jayanth/quemu-v8/source/optee_os/lib/libutils/isoc/bget_malloc.c:734
    1030:	a9be7bfd 	stp	x29, x30, [sp, #-32]!
    1034:	910003fd 	mov	x29, sp
    1038:	f9000bf3 	str	x19, [sp, #16]
    103c:	aa0103f3 	mov	x19, x1
raw_memalign():
/home/jayanth/quemu-v8/source/optee_os/lib/libutils/isoc/bget_malloc.c:355
    1040:	cb0003e1 	neg	x1, x0
    1044:	ea21001f 	bics	xzr, x0, x1
    1048:	540002a1 	b.ne	109c <memalign+0x70>  // b.any
/home/jayanth/quemu-v8/source/optee_os/lib/libutils/isoc/bget_malloc.c:361
    104c:	b7f801f3 	tbnz	x19, #63, 1088 <memalign+0x5c>
/home/jayanth/quemu-v8/source/optee_os/lib/libutils/isoc/bget_malloc.c:366
    1050:	f100027f 	cmp	x19, #0x0
/home/jayanth/quemu-v8/source/optee_os/lib/libutils/isoc/bget_malloc.c:368
    1054:	90000063 	adrp	x3, d000 <_DYNAMIC>
    1058:	9a9f1662 	csinc	x2, x19, xzr, ne  // ne = any
    105c:	910ea063 	add	x3, x3, #0x3a8
    1060:	d2800001 	mov	x1, #0x0                   	// #0
    1064:	97fffd85 	bl	678 <bget>
    1068:	aa0003e6 	mov	x6, x0
/home/jayanth/quemu-v8/source/optee_os/lib/libutils/isoc/bget_malloc.c:370
    106c:	aa1303e1 	mov	x1, x19
    1070:	aa0603e0 	mov	x0, x6
    1074:	97fffd70 	bl	634 <raw_malloc_return_hook.constprop.0>
memalign():
/home/jayanth/quemu-v8/source/optee_os/lib/libutils/isoc/bget_malloc.c:741
    1078:	aa0603e0 	mov	x0, x6
    107c:	f9400bf3 	ldr	x19, [sp, #16]
    1080:	a8c27bfd 	ldp	x29, x30, [sp], #32
    1084:	d65f03c0 	ret
raw_memalign():
/home/jayanth/quemu-v8/source/optee_os/lib/libutils/isoc/bget_malloc.c:352
    1088:	d2800006 	mov	x6, #0x0                   	// #0
    108c:	17fffff8 	b	106c <memalign+0x40>
/home/jayanth/quemu-v8/source/optee_os/lib/libutils/isoc/bget_malloc.c:356
    1090:	d2800006 	mov	x6, #0x0                   	// #0
memalign():
/home/jayanth/quemu-v8/source/optee_os/lib/libutils/isoc/bget_malloc.c:741
    1094:	aa0603e0 	mov	x0, x6
    1098:	d65f03c0 	ret
raw_memalign():
/home/jayanth/quemu-v8/source/optee_os/lib/libutils/isoc/bget_malloc.c:356
    109c:	d2800006 	mov	x6, #0x0                   	// #0
memalign():
/home/jayanth/quemu-v8/source/optee_os/lib/libutils/isoc/bget_malloc.c:740
    10a0:	17fffff6 	b	1078 <memalign+0x4c>

00000000000010a4 <free>:
raw_free():
/home/jayanth/quemu-v8/source/optee_os/lib/libutils/isoc/bget_malloc.c:389
    10a4:	b40000a0 	cbz	x0, 10b8 <free+0x14>
/home/jayanth/quemu-v8/source/optee_os/lib/libutils/isoc/bget_malloc.c:390
    10a8:	52800002 	mov	w2, #0x0                   	// #0
    10ac:	90000061 	adrp	x1, d000 <_DYNAMIC>
    10b0:	910ea021 	add	x1, x1, #0x3a8
    10b4:	17fffe45 	b	9c8 <brel>
free():
/home/jayanth/quemu-v8/source/optee_os/lib/libutils/isoc/bget_malloc.c:754
    10b8:	d65f03c0 	ret

00000000000010bc <free_wipe>:
raw_free():
/home/jayanth/quemu-v8/source/optee_os/lib/libutils/isoc/bget_malloc.c:389
    10bc:	b40000a0 	cbz	x0, 10d0 <free_wipe+0x14>
/home/jayanth/quemu-v8/source/optee_os/lib/libutils/isoc/bget_malloc.c:390
    10c0:	52800022 	mov	w2, #0x1                   	// #1
    10c4:	90000061 	adrp	x1, d000 <_DYNAMIC>
    10c8:	910ea021 	add	x1, x1, #0x3a8
    10cc:	17fffe3f 	b	9c8 <brel>
free_wipe():
/home/jayanth/quemu-v8/source/optee_os/lib/libutils/isoc/bget_malloc.c:759
    10d0:	d65f03c0 	ret

00000000000010d4 <malloc_add_pool>:
malloc_add_pool():
/home/jayanth/quemu-v8/source/optee_os/lib/libutils/isoc/bget_malloc.c:867
    10d4:	a9bc7bfd 	stp	x29, x30, [sp, #-64]!
    10d8:	910003fd 	mov	x29, sp
    10dc:	a90153f3 	stp	x19, x20, [sp, #16]
gen_malloc_add_pool():
/home/jayanth/quemu-v8/source/optee_os/lib/libutils/isoc/bget_malloc.c:767
    10e0:	8b010013 	add	x19, x0, x1
/home/jayanth/quemu-v8/source/optee_os/lib/libutils/isoc/bget_malloc.c:773
    10e4:	91003c00 	add	x0, x0, #0xf
malloc_add_pool():
/home/jayanth/quemu-v8/source/optee_os/lib/libutils/isoc/bget_malloc.c:867
    10e8:	a9025bf5 	stp	x21, x22, [sp, #32]
gen_malloc_add_pool():
/home/jayanth/quemu-v8/source/optee_os/lib/libutils/isoc/bget_malloc.c:774
    10ec:	927cee73 	and	x19, x19, #0xfffffffffffffff0
/home/jayanth/quemu-v8/source/optee_os/lib/libutils/isoc/bget_malloc.c:773
    10f0:	927cec15 	and	x21, x0, #0xfffffffffffffff0
malloc_add_pool():
/home/jayanth/quemu-v8/source/optee_os/lib/libutils/isoc/bget_malloc.c:867
    10f4:	a90363f7 	stp	x23, x24, [sp, #48]
gen_malloc_add_pool():
/home/jayanth/quemu-v8/source/optee_os/lib/libutils/isoc/bget_malloc.c:775
    10f8:	eb1302bf 	cmp	x21, x19
    10fc:	54000163 	b.cc	1128 <malloc_add_pool+0x54>  // b.lo, b.ul, b.last
    1100:	f0000043 	adrp	x3, c000 <__func__.4194+0x3e3>
    1104:	91005063 	add	x3, x3, #0x14
    1108:	d0000041 	adrp	x1, b000 <__text_end+0x1788>
    110c:	f0000040 	adrp	x0, c000 <__func__.4194+0x3e3>
    1110:	91008c63 	add	x3, x3, #0x23
    1114:	913f9821 	add	x1, x1, #0xfe6
    1118:	91001800 	add	x0, x0, #0x6
    111c:	528060e2 	mov	w2, #0x307                 	// #775
/home/jayanth/quemu-v8/source/optee_os/lib/libutils/isoc/bget_malloc.c:788
    1120:	940004bf 	bl	241c <_assert_log>
    1124:	940004cf 	bl	2460 <_assert_break>
/home/jayanth/quemu-v8/source/optee_os/lib/libutils/isoc/bget_malloc.c:777
    1128:	cb150273 	sub	x19, x19, x21
    112c:	f100be7f 	cmp	x19, #0x2f
    1130:	540005a9 	b.ls	11e4 <malloc_add_pool+0x110>  // b.plast
/home/jayanth/quemu-v8/source/optee_os/lib/libutils/isoc/bget_malloc.c:785
    1134:	90000074 	adrp	x20, d000 <_DYNAMIC>
    1138:	910ea298 	add	x24, x20, #0x3a8
    113c:	aa1803e2 	mov	x2, x24
    1140:	aa1303e1 	mov	x1, x19
    1144:	aa1503e0 	mov	x0, x21
    1148:	97ffff04 	bl	d58 <bpool>
/home/jayanth/quemu-v8/source/optee_os/lib/libutils/isoc/bget_malloc.c:786
    114c:	f9402316 	ldr	x22, [x24, #64]
    1150:	910006d6 	add	x22, x22, #0x1
/home/jayanth/quemu-v8/source/optee_os/lib/libutils/isoc/bget_malloc.c:787
    1154:	d37ceed7 	lsl	x23, x22, #4
raw_realloc():
/home/jayanth/quemu-v8/source/optee_os/lib/libutils/isoc/bget_malloc.c:425
    1158:	b7d802d6 	tbnz	x22, #59, 11b0 <malloc_add_pool+0xdc>
/home/jayanth/quemu-v8/source/optee_os/lib/libutils/isoc/bget_malloc.c:436
    115c:	f9401f00 	ldr	x0, [x24, #56]
/home/jayanth/quemu-v8/source/optee_os/lib/libutils/isoc/bget_malloc.c:434
    1160:	f10002ff 	cmp	x23, #0x0
/home/jayanth/quemu-v8/source/optee_os/lib/libutils/isoc/bget_malloc.c:436
    1164:	aa1803e4 	mov	x4, x24
    1168:	9a9f16e3 	csinc	x3, x23, xzr, ne  // ne = any
    116c:	d2800002 	mov	x2, #0x0                   	// #0
    1170:	d2800001 	mov	x1, #0x0                   	// #0
    1174:	97fffec4 	bl	c84 <bgetr>
    1178:	aa0003e6 	mov	x6, x0
/home/jayanth/quemu-v8/source/optee_os/lib/libutils/isoc/bget_malloc.c:438
    117c:	aa1703e1 	mov	x1, x23
    1180:	aa0603e0 	mov	x0, x6
    1184:	97fffd2c 	bl	634 <raw_malloc_return_hook.constprop.0>
gen_malloc_add_pool():
/home/jayanth/quemu-v8/source/optee_os/lib/libutils/isoc/bget_malloc.c:788
    1188:	b5000186 	cbnz	x6, 11b8 <malloc_add_pool+0xe4>
    118c:	f0000043 	adrp	x3, c000 <__func__.4194+0x3e3>
    1190:	91005063 	add	x3, x3, #0x14
    1194:	d0000041 	adrp	x1, b000 <__text_end+0x1788>
    1198:	f0000040 	adrp	x0, c000 <__func__.4194+0x3e3>
    119c:	91008c63 	add	x3, x3, #0x23
    11a0:	913f9821 	add	x1, x1, #0xfe6
    11a4:	91004800 	add	x0, x0, #0x12
    11a8:	52806282 	mov	w2, #0x314                 	// #788
    11ac:	17ffffdd 	b	1120 <malloc_add_pool+0x4c>
raw_realloc():
/home/jayanth/quemu-v8/source/optee_os/lib/libutils/isoc/bget_malloc.c:421
    11b0:	d2800006 	mov	x6, #0x0                   	// #0
    11b4:	17fffff2 	b	117c <malloc_add_pool+0xa8>
gen_malloc_add_pool():
/home/jayanth/quemu-v8/source/optee_os/lib/libutils/isoc/bget_malloc.c:789
    11b8:	910ea281 	add	x1, x20, #0x3a8
/home/jayanth/quemu-v8/source/optee_os/lib/libutils/isoc/bget_malloc.c:790
    11bc:	f9402020 	ldr	x0, [x1, #64]
/home/jayanth/quemu-v8/source/optee_os/lib/libutils/isoc/bget_malloc.c:789
    11c0:	f9001c26 	str	x6, [x1, #56]
/home/jayanth/quemu-v8/source/optee_os/lib/libutils/isoc/bget_malloc.c:790
    11c4:	d37cec02 	lsl	x2, x0, #4
    11c8:	8b0010c0 	add	x0, x6, x0, lsl #4
    11cc:	f82268d5 	str	x21, [x6, x2]
/home/jayanth/quemu-v8/source/optee_os/lib/libutils/isoc/bget_malloc.c:791
    11d0:	f9000413 	str	x19, [x0, #8]
/home/jayanth/quemu-v8/source/optee_os/lib/libutils/isoc/bget_malloc.c:793
    11d4:	b9407020 	ldr	w0, [x1, #112]
/home/jayanth/quemu-v8/source/optee_os/lib/libutils/isoc/bget_malloc.c:795
    11d8:	f9002036 	str	x22, [x1, #64]
/home/jayanth/quemu-v8/source/optee_os/lib/libutils/isoc/bget_malloc.c:793
    11dc:	0b130013 	add	w19, w0, w19
    11e0:	b9007033 	str	w19, [x1, #112]
malloc_add_pool():
/home/jayanth/quemu-v8/source/optee_os/lib/libutils/isoc/bget_malloc.c:869
    11e4:	a94153f3 	ldp	x19, x20, [sp, #16]
    11e8:	a9425bf5 	ldp	x21, x22, [sp, #32]
    11ec:	a94363f7 	ldp	x23, x24, [sp, #48]
    11f0:	a8c47bfd 	ldp	x29, x30, [sp], #64
    11f4:	d65f03c0 	ret

00000000000011f8 <malloc_buffer_is_within_alloced>:
gen_malloc_buffer_is_within_alloced():
/home/jayanth/quemu-v8/source/optee_os/lib/libutils/isoc/bget_malloc.c:812
    11f8:	ab010001 	adds	x1, x0, x1
    11fc:	54000b82 	b.cs	136c <malloc_buffer_is_within_alloced+0x174>  // b.hs, b.nlast
    1200:	aa0003e4 	mov	x4, x0
/home/jayanth/quemu-v8/source/optee_os/lib/libutils/isoc/bget_malloc.c:815
    1204:	90000060 	adrp	x0, d000 <_DYNAMIC>
    1208:	910ea000 	add	x0, x0, #0x3a8
bpool_foreach_iterator_init():
/home/jayanth/quemu-v8/source/optee_os/lib/libutils/isoc/bget_malloc.c:289
    120c:	d2800006 	mov	x6, #0x0                   	// #0
bpool_foreach_pool():
/home/jayanth/quemu-v8/source/optee_os/lib/libutils/isoc/bget_malloc.c:299
    1210:	d2f0000a 	mov	x10, #0x8000000000000000    	// #-9223372036854775808
    1214:	928001eb 	mov	x11, #0xfffffffffffffff0    	// #-16
bpool_foreach():
/home/jayanth/quemu-v8/source/optee_os/lib/libutils/isoc/bget_malloc.c:336
    1218:	a943a407 	ldp	x7, x9, [x0, #56]
bpool_foreach_iterator_init():
/home/jayanth/quemu-v8/source/optee_os/lib/libutils/isoc/bget_malloc.c:290
    121c:	f94000e3 	ldr	x3, [x7]
/home/jayanth/quemu-v8/source/optee_os/lib/libutils/isoc/bget_malloc.c:289
    1220:	aa0303e0 	mov	x0, x3
bpool_foreach_pool():
/home/jayanth/quemu-v8/source/optee_os/lib/libutils/isoc/bget_malloc.c:297
    1224:	f9400462 	ldr	x2, [x3, #8]
/home/jayanth/quemu-v8/source/optee_os/lib/libutils/isoc/bget_malloc.c:299
    1228:	eb0a005f 	cmp	x2, x10
    122c:	540009a0 	b.eq	1360 <malloc_buffer_is_within_alloced+0x168>  // b.none
malloc_buffer_is_within_alloced():
/home/jayanth/quemu-v8/source/optee_os/lib/libutils/isoc/bget_malloc.c:872
    1230:	a9bf7bfd 	stp	x29, x30, [sp, #-16]!
    1234:	910003fd 	mov	x29, sp
    1238:	1400000d 	b	126c <malloc_buffer_is_within_alloced+0x74>
bpool_foreach_pool():
/home/jayanth/quemu-v8/source/optee_os/lib/libutils/isoc/bget_malloc.c:316
    123c:	91004005 	add	x5, x0, #0x10
gen_malloc_buffer_is_within_alloced():
/home/jayanth/quemu-v8/source/optee_os/lib/libutils/isoc/bget_malloc.c:821
    1240:	8b0200a2 	add	x2, x5, x2
/home/jayanth/quemu-v8/source/optee_os/lib/libutils/isoc/bget_malloc.c:823
    1244:	eb02003f 	cmp	x1, x2
    1248:	1a9f87e0 	cset	w0, ls  // ls = plast
    124c:	eb05009f 	cmp	x4, x5
    1250:	1a9f37e2 	cset	w2, cs  // cs = hs, nlast
    1254:	6a020000 	ands	w0, w0, w2
    1258:	540007a1 	b.ne	134c <malloc_buffer_is_within_alloced+0x154>  // b.any
bpool_foreach_pool():
/home/jayanth/quemu-v8/source/optee_os/lib/libutils/isoc/bget_malloc.c:297
    125c:	f9400462 	ldr	x2, [x3, #8]
bpool_foreach_iterator_init():
/home/jayanth/quemu-v8/source/optee_os/lib/libutils/isoc/bget_malloc.c:289
    1260:	aa0303e0 	mov	x0, x3
bpool_foreach_pool():
/home/jayanth/quemu-v8/source/optee_os/lib/libutils/isoc/bget_malloc.c:299
    1264:	eb0a005f 	cmp	x2, x10
    1268:	540006a0 	b.eq	133c <malloc_buffer_is_within_alloced+0x144>  // b.none
/home/jayanth/quemu-v8/source/optee_os/lib/libutils/isoc/bget_malloc.c:302
    126c:	b6f80242 	tbz	x2, #63, 12b4 <malloc_buffer_is_within_alloced+0xbc>
/home/jayanth/quemu-v8/source/optee_os/lib/libutils/isoc/bget_malloc.c:304
    1270:	cb0203e8 	neg	x8, x2
/home/jayanth/quemu-v8/source/optee_os/lib/libutils/isoc/bget_malloc.c:306
    1274:	52800005 	mov	w5, #0x0                   	// #0
/home/jayanth/quemu-v8/source/optee_os/lib/libutils/isoc/bget_malloc.c:319
    1278:	8b080063 	add	x3, x3, x8
bpool_foreach():
/home/jayanth/quemu-v8/source/optee_os/lib/libutils/isoc/bget_malloc.c:331
    127c:	35ffff05 	cbnz	w5, 125c <malloc_buffer_is_within_alloced+0x64>
bget_buf_size():
/home/jayanth/quemu-v8/source/optee_os/lib/libutils/isoc/bget_malloc.c:460
    1280:	cb020162 	sub	x2, x11, x2
/home/jayanth/quemu-v8/source/optee_os/lib/libutils/isoc/bget_malloc.c:461
    1284:	f100005f 	cmp	x2, #0x0
    1288:	54fffdac 	b.gt	123c <malloc_buffer_is_within_alloced+0x44>
    128c:	f0000043 	adrp	x3, c000 <__func__.4194+0x3e3>
    1290:	91005063 	add	x3, x3, #0x14
    1294:	9100dc63 	add	x3, x3, #0x37
    1298:	d0000041 	adrp	x1, b000 <__text_end+0x1788>
    129c:	d0000040 	adrp	x0, b000 <__text_end+0x1788>
    12a0:	913f9821 	add	x1, x1, #0xfe6
    12a4:	913e5c00 	add	x0, x0, #0xf97
    12a8:	528039a2 	mov	w2, #0x1cd                 	// #461
    12ac:	9400045c 	bl	241c <_assert_log>
    12b0:	9400046c 	bl	2460 <_assert_break>
bpool_foreach_pool():
/home/jayanth/quemu-v8/source/optee_os/lib/libutils/isoc/bget_malloc.c:312
    12b4:	f9400c65 	ldr	x5, [x3, #24]
    12b8:	f94008a5 	ldr	x5, [x5, #16]
    12bc:	eb0300bf 	cmp	x5, x3
    12c0:	54000160 	b.eq	12ec <malloc_buffer_is_within_alloced+0xf4>  // b.none
    12c4:	f0000043 	adrp	x3, c000 <__func__.4194+0x3e3>
    12c8:	91005063 	add	x3, x3, #0x14
    12cc:	91011463 	add	x3, x3, #0x45
    12d0:	d0000041 	adrp	x1, b000 <__text_end+0x1788>
    12d4:	d0000040 	adrp	x0, b000 <__text_end+0x1788>
    12d8:	913f9821 	add	x1, x1, #0xfe6
    12dc:	91362000 	add	x0, x0, #0xd88
    12e0:	52802702 	mov	w2, #0x138                 	// #312
    12e4:	9400044e 	bl	241c <_assert_log>
    12e8:	9400045e 	bl	2460 <_assert_break>
/home/jayanth/quemu-v8/source/optee_os/lib/libutils/isoc/bget_malloc.c:313
    12ec:	f9400865 	ldr	x5, [x3, #16]
    12f0:	f9400ca5 	ldr	x5, [x5, #24]
    12f4:	eb0300bf 	cmp	x5, x3
    12f8:	54000160 	b.eq	1324 <malloc_buffer_is_within_alloced+0x12c>  // b.none
    12fc:	f0000043 	adrp	x3, c000 <__func__.4194+0x3e3>
    1300:	91005063 	add	x3, x3, #0x14
    1304:	91011463 	add	x3, x3, #0x45
    1308:	d0000041 	adrp	x1, b000 <__text_end+0x1788>
    130c:	d0000040 	adrp	x0, b000 <__text_end+0x1788>
    1310:	913f9821 	add	x1, x1, #0xfe6
    1314:	91368c00 	add	x0, x0, #0xda3
    1318:	52802722 	mov	w2, #0x139                 	// #313
    131c:	94000440 	bl	241c <_assert_log>
    1320:	94000450 	bl	2460 <_assert_break>
    1324:	aa0203e8 	mov	x8, x2
/home/jayanth/quemu-v8/source/optee_os/lib/libutils/isoc/bget_malloc.c:309
    1328:	52800025 	mov	w5, #0x1                   	// #1
    132c:	17ffffd3 	b	1278 <malloc_buffer_is_within_alloced+0x80>
bpool_foreach():
/home/jayanth/quemu-v8/source/optee_os/lib/libutils/isoc/bget_malloc.c:340
    1330:	d37cecc0 	lsl	x0, x6, #4
    1334:	f86068e3 	ldr	x3, [x7, x0]
    1338:	17ffffc9 	b	125c <malloc_buffer_is_within_alloced+0x64>
/home/jayanth/quemu-v8/source/optee_os/lib/libutils/isoc/bget_malloc.c:336
    133c:	910004c6 	add	x6, x6, #0x1
    1340:	eb0900df 	cmp	x6, x9
    1344:	54ffff63 	b.cc	1330 <malloc_buffer_is_within_alloced+0x138>  // b.lo, b.ul, b.last
gen_malloc_buffer_is_within_alloced():
/home/jayanth/quemu-v8/source/optee_os/lib/libutils/isoc/bget_malloc.c:806
    1348:	52800000 	mov	w0, #0x0                   	// #0
malloc_buffer_is_within_alloced():
/home/jayanth/quemu-v8/source/optee_os/lib/libutils/isoc/bget_malloc.c:874
    134c:	a8c17bfd 	ldp	x29, x30, [sp], #16
    1350:	d65f03c0 	ret
bpool_foreach():
/home/jayanth/quemu-v8/source/optee_os/lib/libutils/isoc/bget_malloc.c:340
    1354:	d37cecc0 	lsl	x0, x6, #4
    1358:	f86068e3 	ldr	x3, [x7, x0]
    135c:	17ffffb1 	b	1220 <malloc_buffer_is_within_alloced+0x28>
/home/jayanth/quemu-v8/source/optee_os/lib/libutils/isoc/bget_malloc.c:336
    1360:	910004c6 	add	x6, x6, #0x1
    1364:	eb0900df 	cmp	x6, x9
    1368:	54ffff63 	b.cc	1354 <malloc_buffer_is_within_alloced+0x15c>  // b.lo, b.ul, b.last
gen_malloc_buffer_is_within_alloced():
/home/jayanth/quemu-v8/source/optee_os/lib/libutils/isoc/bget_malloc.c:806
    136c:	52800000 	mov	w0, #0x0                   	// #0
malloc_buffer_is_within_alloced():
/home/jayanth/quemu-v8/source/optee_os/lib/libutils/isoc/bget_malloc.c:874
    1370:	d65f03c0 	ret

0000000000001374 <malloc_buffer_overlaps_heap>:
malloc_buffer_overlaps_heap():
/home/jayanth/quemu-v8/source/optee_os/lib/libutils/isoc/bget_malloc.c:877
    1374:	ab010001 	adds	x1, x0, x1
    1378:	aa0003e3 	mov	x3, x0
gen_malloc_buffer_overlaps_heap():
/home/jayanth/quemu-v8/source/optee_os/lib/libutils/isoc/bget_malloc.c:846
    137c:	90000060 	adrp	x0, d000 <_DYNAMIC>
    1380:	910ea000 	add	x0, x0, #0x3a8
    1384:	9a9f37e9 	cset	x9, cs  // cs = hs, nlast
    1388:	d2800007 	mov	x7, #0x0                   	// #0
    138c:	a943a004 	ldp	x4, x8, [x0, #56]
    1390:	eb0800ff 	cmp	x7, x8
    1394:	54000061 	b.ne	13a0 <malloc_buffer_overlaps_heap+0x2c>  // b.any
/home/jayanth/quemu-v8/source/optee_os/lib/libutils/isoc/bget_malloc.c:841
    1398:	52800000 	mov	w0, #0x0                   	// #0
malloc_buffer_overlaps_heap():
/home/jayanth/quemu-v8/source/optee_os/lib/libutils/isoc/bget_malloc.c:879
    139c:	d65f03c0 	ret
gen_malloc_buffer_overlaps_heap():
/home/jayanth/quemu-v8/source/optee_os/lib/libutils/isoc/bget_malloc.c:847
    13a0:	a9400086 	ldp	x6, x0, [x4]
/home/jayanth/quemu-v8/source/optee_os/lib/libutils/isoc/bget_malloc.c:850
    13a4:	ab0000c5 	adds	x5, x6, x0
    13a8:	1a9f37e2 	cset	w2, cs  // cs = hs, nlast
    13ac:	2a090040 	orr	w0, w2, w9
    13b0:	35ffff60 	cbnz	w0, 139c <malloc_buffer_overlaps_heap+0x28>
/home/jayanth/quemu-v8/source/optee_os/lib/libutils/isoc/bget_malloc.c:855
    13b4:	eb06003f 	cmp	x1, x6
    13b8:	91004084 	add	x4, x4, #0x10
    13bc:	1a9f97e2 	cset	w2, hi  // hi = pmore
    13c0:	eb05007f 	cmp	x3, x5
    13c4:	1a9f27e0 	cset	w0, cc  // cc = lo, ul, last
    13c8:	2a000040 	orr	w0, w2, w0
    13cc:	35fffe80 	cbnz	w0, 139c <malloc_buffer_overlaps_heap+0x28>
/home/jayanth/quemu-v8/source/optee_os/lib/libutils/isoc/bget_malloc.c:846
    13d0:	910004e7 	add	x7, x7, #0x1
    13d4:	17ffffef 	b	1390 <malloc_buffer_overlaps_heap+0x1c>

00000000000013d8 <memset>:
memset():
/home/jayanth/quemu-v8/source/optee_os/lib/libutils/isoc/newlib/memset.c:125
    13d8:	d2800003 	mov	x3, #0x0                   	// #0
    13dc:	eb03005f 	cmp	x2, x3
    13e0:	54000041 	b.ne	13e8 <memset+0x10>  // b.any
/home/jayanth/quemu-v8/source/optee_os/lib/libutils/isoc/newlib/memset.c:129
    13e4:	d65f03c0 	ret
/home/jayanth/quemu-v8/source/optee_os/lib/libutils/isoc/newlib/memset.c:126
    13e8:	38236801 	strb	w1, [x0, x3]
    13ec:	91000463 	add	x3, x3, #0x1
    13f0:	17fffffb 	b	13dc <memset+0x4>

00000000000013f4 <strlen>:
strlen():
/home/jayanth/quemu-v8/source/optee_os/lib/libutils/isoc/newlib/strlen.c:117
    13f4:	aa0003e1 	mov	x1, x0
    13f8:	39400022 	ldrb	w2, [x1]
    13fc:	35000062 	cbnz	w2, 1408 <strlen+0x14>
/home/jayanth/quemu-v8/source/optee_os/lib/libutils/isoc/newlib/strlen.c:120
    1400:	cb000020 	sub	x0, x1, x0
    1404:	d65f03c0 	ret
/home/jayanth/quemu-v8/source/optee_os/lib/libutils/isoc/newlib/strlen.c:118
    1408:	91000421 	add	x1, x1, #0x1
    140c:	17fffffb 	b	13f8 <strlen+0x4>

0000000000001410 <trace_set_level>:
trace_set_level():
/home/jayanth/quemu-v8/source/optee_os/lib/libutils/ext/trace.c:29
    1410:	7100141f 	cmp	w0, #0x5
    1414:	52800081 	mov	w1, #0x4                   	// #4
    1418:	1a813000 	csel	w0, w0, w1, cc  // cc = lo, ul, last
    141c:	90000061 	adrp	x1, d000 <_DYNAMIC>
    1420:	f9409c21 	ldr	x1, [x1, #312]
    1424:	b9000020 	str	w0, [x1]
/home/jayanth/quemu-v8/source/optee_os/lib/libutils/ext/trace.c:30
    1428:	d65f03c0 	ret

000000000000142c <trace_get_level>:
trace_get_level():
/home/jayanth/quemu-v8/source/optee_os/lib/libutils/ext/trace.c:34
    142c:	90000060 	adrp	x0, d000 <_DYNAMIC>
/home/jayanth/quemu-v8/source/optee_os/lib/libutils/ext/trace.c:35
    1430:	f9409c00 	ldr	x0, [x0, #312]
    1434:	b9400000 	ldr	w0, [x0]
    1438:	d65f03c0 	ret

000000000000143c <trace_vprintf>:
trace_vprintf():
/home/jayanth/quemu-v8/source/optee_os/lib/libutils/ext/trace.c:106
    143c:	a9a87bfd 	stp	x29, x30, [sp, #-384]!
    1440:	910003fd 	mov	x29, sp
    1444:	a90153f3 	stp	x19, x20, [sp, #16]
    1448:	2a0203f3 	mov	w19, w2
    144c:	a9025bf5 	stp	x21, x22, [sp, #32]
    1450:	aa0003f6 	mov	x22, x0
    1454:	a90363f7 	stp	x23, x24, [sp, #48]
    1458:	aa0403f7 	mov	x23, x4
    145c:	aa0503f8 	mov	x24, x5
    1460:	a9046bf9 	stp	x25, x26, [sp, #64]
    1464:	2a0103f9 	mov	w25, w1
/home/jayanth/quemu-v8/source/optee_os/lib/libutils/ext/trace.c:111
    1468:	72001c7a 	ands	w26, w3, #0xff
/home/jayanth/quemu-v8/source/optee_os/lib/libutils/ext/trace.c:106
    146c:	f9002bfb 	str	x27, [sp, #80]
/home/jayanth/quemu-v8/source/optee_os/lib/libutils/ext/trace.c:111
    1470:	54000b60 	b.eq	15dc <trace_vprintf+0x1a0>  // b.none
/home/jayanth/quemu-v8/source/optee_os/lib/libutils/ext/trace.c:111 (discriminator 1)
    1474:	90000063 	adrp	x3, d000 <_DYNAMIC>
    1478:	f9409c63 	ldr	x3, [x3, #312]
    147c:	b9400060 	ldr	w0, [x3]
    1480:	6b02001f 	cmp	w0, w2
    1484:	540009eb 	b.lt	15c0 <trace_vprintf+0x184>  // b.tstop
trace_level_to_string():
/home/jayanth/quemu-v8/source/optee_os/lib/libutils/ext/trace.c:52
    1488:	7100105f 	cmp	w2, #0x4
/home/jayanth/quemu-v8/source/optee_os/lib/libutils/ext/trace.c:55
    148c:	f0000040 	adrp	x0, c000 <__func__.4194+0x3e3>
/home/jayanth/quemu-v8/source/optee_os/lib/libutils/ext/trace.c:52
    1490:	1a9f9041 	csel	w1, w2, wzr, ls  // ls = plast
/home/jayanth/quemu-v8/source/optee_os/lib/libutils/ext/trace.c:55
    1494:	91021800 	add	x0, x0, #0x86
    1498:	3861c803 	ldrb	w3, [x0, w1, sxtw]
trace_vprintf():
/home/jayanth/quemu-v8/source/optee_os/lib/libutils/ext/trace.c:115
    149c:	910203f5 	add	x21, sp, #0x80
    14a0:	f0000042 	adrp	x2, c000 <__func__.4194+0x3e3>
    14a4:	aa1503e0 	mov	x0, x21
    14a8:	9101b042 	add	x2, x2, #0x6c
    14ac:	d2802001 	mov	x1, #0x100                 	// #256
    14b0:	940000b5 	bl	1784 <snprintk>
/home/jayanth/quemu-v8/source/optee_os/lib/libutils/ext/trace.c:117
    14b4:	37f80860 	tbnz	w0, #31, 15c0 <trace_vprintf+0x184>
/home/jayanth/quemu-v8/source/optee_os/lib/libutils/ext/trace.c:122
    14b8:	90000063 	adrp	x3, d000 <_DYNAMIC>
    14bc:	d280201b 	mov	x27, #0x100                 	// #256
/home/jayanth/quemu-v8/source/optee_os/lib/libutils/ext/trace.c:119
    14c0:	93407c14 	sxtw	x20, w0
/home/jayanth/quemu-v8/source/optee_os/lib/libutils/ext/trace.c:122
    14c4:	cb20c361 	sub	x1, x27, w0, sxtw
    14c8:	f940a063 	ldr	x3, [x3, #320]
    14cc:	f0000042 	adrp	x2, c000 <__func__.4194+0x3e3>
    14d0:	8b20c2a0 	add	x0, x21, w0, sxtw
    14d4:	9101c042 	add	x2, x2, #0x70
    14d8:	940000ab 	bl	1784 <snprintk>
/home/jayanth/quemu-v8/source/optee_os/lib/libutils/ext/trace.c:124
    14dc:	37f80720 	tbnz	w0, #31, 15c0 <trace_vprintf+0x184>
/home/jayanth/quemu-v8/source/optee_os/lib/libutils/ext/trace.c:126
    14e0:	8b20c294 	add	x20, x20, w0, sxtw
/home/jayanth/quemu-v8/source/optee_os/lib/libutils/ext/trace.c:128
    14e4:	3400093a 	cbz	w26, 1608 <trace_vprintf+0x1cc>
/home/jayanth/quemu-v8/source/optee_os/lib/libutils/ext/trace.c:128 (discriminator 1)
    14e8:	52800342 	mov	w2, #0x1a                  	// #26
    14ec:	1ad32453 	lsr	w19, w2, w19
    14f0:	360008d3 	tbz	w19, #0, 1608 <trace_vprintf+0x1cc>
print_thread_id():
/home/jayanth/quemu-v8/source/optee_os/lib/libutils/ext/trace.c:65
    14f4:	94000461 	bl	2678 <trace_ext_get_thread_id>
trace_vprintf():
/home/jayanth/quemu-v8/source/optee_os/lib/libutils/ext/trace.c:130
    14f8:	8b1402ba 	add	x26, x21, x20
    14fc:	cb14037b 	sub	x27, x27, x20
print_thread_id():
/home/jayanth/quemu-v8/source/optee_os/lib/libutils/ext/trace.c:65
    1500:	2a0003e4 	mov	w4, w0
/home/jayanth/quemu-v8/source/optee_os/lib/libutils/ext/trace.c:67
    1504:	37f80700 	tbnz	w0, #31, 15e4 <trace_vprintf+0x1a8>
/home/jayanth/quemu-v8/source/optee_os/lib/libutils/ext/trace.c:68
    1508:	f0000042 	adrp	x2, c000 <__func__.4194+0x3e3>
    150c:	aa1b03e1 	mov	x1, x27
    1510:	9101d042 	add	x2, x2, #0x74
    1514:	aa1a03e0 	mov	x0, x26
    1518:	52800023 	mov	w3, #0x1                   	// #1
    151c:	9400009a 	bl	1784 <snprintk>
trace_vprintf():
/home/jayanth/quemu-v8/source/optee_os/lib/libutils/ext/trace.c:137
    1520:	37f80500 	tbnz	w0, #31, 15c0 <trace_vprintf+0x184>
/home/jayanth/quemu-v8/source/optee_os/lib/libutils/ext/trace.c:139
    1524:	8b20c293 	add	x19, x20, w0, sxtw
/home/jayanth/quemu-v8/source/optee_os/lib/libutils/ext/trace.c:141
    1528:	b4000176 	cbz	x22, 1554 <trace_vprintf+0x118>
/home/jayanth/quemu-v8/source/optee_os/lib/libutils/ext/trace.c:142
    152c:	f0000042 	adrp	x2, c000 <__func__.4194+0x3e3>
    1530:	d2802001 	mov	x1, #0x100                 	// #256
    1534:	2a1903e4 	mov	w4, w25
    1538:	aa1603e3 	mov	x3, x22
    153c:	9101fc42 	add	x2, x2, #0x7f
    1540:	cb130021 	sub	x1, x1, x19
    1544:	8b1302a0 	add	x0, x21, x19
    1548:	9400008f 	bl	1784 <snprintk>
/home/jayanth/quemu-v8/source/optee_os/lib/libutils/ext/trace.c:144
    154c:	37f803a0 	tbnz	w0, #31, 15c0 <trace_vprintf+0x184>
/home/jayanth/quemu-v8/source/optee_os/lib/libutils/ext/trace.c:146
    1550:	8b20c273 	add	x19, x19, w0, sxtw
/home/jayanth/quemu-v8/source/optee_os/lib/libutils/ext/trace.c:156
    1554:	910183e3 	add	x3, sp, #0x60
    1558:	aa1803e1 	mov	x1, x24
    155c:	aa0303e0 	mov	x0, x3
    1560:	d2800402 	mov	x2, #0x20                  	// #32
    1564:	97fffaaf 	bl	20 <memcpy>
    1568:	aa0003e3 	mov	x3, x0
    156c:	aa1703e2 	mov	x2, x23
    1570:	8b1302a0 	add	x0, x21, x19
    1574:	d2802001 	mov	x1, #0x100                 	// #256
    1578:	cb130021 	sub	x1, x1, x19
    157c:	9400006c 	bl	172c <vsnprintk>
/home/jayanth/quemu-v8/source/optee_os/lib/libutils/ext/trace.c:157
    1580:	7100001f 	cmp	w0, #0x0
    1584:	5400004d 	b.le	158c <trace_vprintf+0x150>
/home/jayanth/quemu-v8/source/optee_os/lib/libutils/ext/trace.c:158
    1588:	8b20c273 	add	x19, x19, w0, sxtw
/home/jayanth/quemu-v8/source/optee_os/lib/libutils/ext/trace.c:160
    158c:	f103fa7f 	cmp	x19, #0xfe
    1590:	d2801fc0 	mov	x0, #0xfe                  	// #254
    1594:	9a809273 	csel	x19, x19, x0, ls  // ls = plast
/home/jayanth/quemu-v8/source/optee_os/lib/libutils/ext/trace.c:163
    1598:	52800140 	mov	w0, #0xa                   	// #10
    159c:	38336aa0 	strb	w0, [x21, x19]
/home/jayanth/quemu-v8/source/optee_os/lib/libutils/ext/trace.c:164
    15a0:	b4000093 	cbz	x19, 15b0 <trace_vprintf+0x174>
/home/jayanth/quemu-v8/source/optee_os/lib/libutils/ext/trace.c:164 (discriminator 1)
    15a4:	38736aa0 	ldrb	w0, [x21, x19]
    15a8:	7100281f 	cmp	w0, #0xa
    15ac:	540003c0 	b.eq	1624 <trace_vprintf+0x1e8>  // b.none
/home/jayanth/quemu-v8/source/optee_os/lib/libutils/ext/trace.c:167
    15b0:	91020be0 	add	x0, sp, #0x82
    15b4:	3833681f 	strb	wzr, [x0, x19]
/home/jayanth/quemu-v8/source/optee_os/lib/libutils/ext/trace.c:169
    15b8:	aa1503e0 	mov	x0, x21
    15bc:	94000425 	bl	2650 <trace_ext_puts>
/home/jayanth/quemu-v8/source/optee_os/lib/libutils/ext/trace.c:170
    15c0:	a94153f3 	ldp	x19, x20, [sp, #16]
    15c4:	a9425bf5 	ldp	x21, x22, [sp, #32]
    15c8:	a94363f7 	ldp	x23, x24, [sp, #48]
    15cc:	a9446bf9 	ldp	x25, x26, [sp, #64]
    15d0:	f9402bfb 	ldr	x27, [sp, #80]
    15d4:	a8d87bfd 	ldp	x29, x30, [sp], #384
    15d8:	d65f03c0 	ret
trace_level_to_string():
/home/jayanth/quemu-v8/source/optee_os/lib/libutils/ext/trace.c:50
    15dc:	528009a3 	mov	w3, #0x4d                  	// #77
    15e0:	17ffffaf 	b	149c <trace_vprintf+0x60>
print_thread_id():
/home/jayanth/quemu-v8/source/optee_os/lib/libutils/ext/trace.c:70
    15e4:	aa1b03e1 	mov	x1, x27
    15e8:	aa1a03e0 	mov	x0, x26
    15ec:	d0000044 	adrp	x4, b000 <__text_end+0x1788>
    15f0:	52800023 	mov	w3, #0x1                   	// #1
    15f4:	912dd084 	add	x4, x4, #0xb74
    15f8:	f0000042 	adrp	x2, c000 <__func__.4194+0x3e3>
    15fc:	9101e842 	add	x2, x2, #0x7a
    1600:	94000061 	bl	1784 <snprintk>
    1604:	17ffffc7 	b	1520 <trace_vprintf+0xe4>
trace_vprintf():
/home/jayanth/quemu-v8/source/optee_os/lib/libutils/ext/trace.c:150
    1608:	f103fa9f 	cmp	x20, #0xfe
    160c:	54fffda8 	b.hi	15c0 <trace_vprintf+0x184>  // b.pmore
/home/jayanth/quemu-v8/source/optee_os/lib/libutils/ext/trace.c:152
    1610:	91000693 	add	x19, x20, #0x1
    1614:	52800400 	mov	w0, #0x20                  	// #32
    1618:	38346aa0 	strb	w0, [x21, x20]
/home/jayanth/quemu-v8/source/optee_os/lib/libutils/ext/trace.c:153
    161c:	38336abf 	strb	wzr, [x21, x19]
    1620:	17ffffcd 	b	1554 <trace_vprintf+0x118>
/home/jayanth/quemu-v8/source/optee_os/lib/libutils/ext/trace.c:165
    1624:	d1000673 	sub	x19, x19, #0x1
    1628:	17ffffde 	b	15a0 <trace_vprintf+0x164>

000000000000162c <trace_printf>:
trace_printf():
/home/jayanth/quemu-v8/source/optee_os/lib/libutils/ext/trace.c:97
    162c:	a9b17bfd 	stp	x29, x30, [sp, #-240]!
    1630:	910003fd 	mov	x29, sp
    1634:	a90d9be5 	stp	x5, x6, [sp, #216]
/home/jayanth/quemu-v8/source/optee_os/lib/libutils/ext/trace.c:100
    1638:	9103c3e5 	add	x5, sp, #0xf0
    163c:	a90317e5 	stp	x5, x5, [sp, #48]
    1640:	910343e5 	add	x5, sp, #0xd0
    1644:	f90023e5 	str	x5, [sp, #64]
    1648:	128002e5 	mov	w5, #0xffffffe8            	// #-24
    164c:	b9004be5 	str	w5, [sp, #72]
    1650:	12800fe5 	mov	w5, #0xffffff80            	// #-128
    1654:	b9004fe5 	str	w5, [sp, #76]
/home/jayanth/quemu-v8/source/optee_os/lib/libutils/ext/trace.c:101
    1658:	910043e5 	add	x5, sp, #0x10
/home/jayanth/quemu-v8/source/optee_os/lib/libutils/ext/trace.c:97
    165c:	f90077e7 	str	x7, [sp, #232]
/home/jayanth/quemu-v8/source/optee_os/lib/libutils/ext/trace.c:101
    1660:	a9431fe6 	ldp	x6, x7, [sp, #48]
    1664:	a9011fe6 	stp	x6, x7, [sp, #16]
    1668:	a9441fe6 	ldp	x6, x7, [sp, #64]
    166c:	a9021fe6 	stp	x6, x7, [sp, #32]
/home/jayanth/quemu-v8/source/optee_os/lib/libutils/ext/trace.c:97
    1670:	3d8017e0 	str	q0, [sp, #80]
    1674:	3d801be1 	str	q1, [sp, #96]
    1678:	3d801fe2 	str	q2, [sp, #112]
    167c:	3d8023e3 	str	q3, [sp, #128]
    1680:	3d8027e4 	str	q4, [sp, #144]
    1684:	3d802be5 	str	q5, [sp, #160]
    1688:	3d802fe6 	str	q6, [sp, #176]
    168c:	3d8033e7 	str	q7, [sp, #192]
/home/jayanth/quemu-v8/source/optee_os/lib/libutils/ext/trace.c:101
    1690:	97ffff6b 	bl	143c <trace_vprintf>
/home/jayanth/quemu-v8/source/optee_os/lib/libutils/ext/trace.c:103
    1694:	a8cf7bfd 	ldp	x29, x30, [sp], #240
    1698:	d65f03c0 	ret

000000000000169c <dhex_dump>:
dhex_dump():
/home/jayanth/quemu-v8/source/optee_os/lib/libutils/ext/trace.c:280
    169c:	d65f03c0 	ret

00000000000016a0 <__vsnprintf>:
__vsnprintf():
/home/jayanth/quemu-v8/source/optee_os/lib/libutils/ext/snprintk.c:138
    16a0:	a9b97bfd 	stp	x29, x30, [sp, #-112]!
    16a4:	910003fd 	mov	x29, sp
    16a8:	a90153f3 	stp	x19, x20, [sp, #16]
    16ac:	aa0103f4 	mov	x20, x1
    16b0:	aa0003f3 	mov	x19, x0
    16b4:	aa0303e1 	mov	x1, x3
    16b8:	a9025bf5 	stp	x21, x22, [sp, #32]
    16bc:	aa0203f5 	mov	x21, x2
/home/jayanth/quemu-v8/source/optee_os/lib/libutils/ext/snprintk.c:142
    16c0:	8b140016 	add	x22, x0, x20
/home/jayanth/quemu-v8/source/optee_os/lib/libutils/ext/snprintk.c:143
    16c4:	d2800402 	mov	x2, #0x20                  	// #32
    16c8:	910103e0 	add	x0, sp, #0x40
/home/jayanth/quemu-v8/source/optee_os/lib/libutils/ext/snprintk.c:138
    16cc:	f9001bf7 	str	x23, [sp, #48]
    16d0:	12001c97 	and	w23, w4, #0xff
/home/jayanth/quemu-v8/source/optee_os/lib/libutils/ext/snprintk.c:142
    16d4:	f90037f6 	str	x22, [sp, #104]
/home/jayanth/quemu-v8/source/optee_os/lib/libutils/ext/snprintk.c:143
    16d8:	97fffa52 	bl	20 <memcpy>
    16dc:	aa0003e3 	mov	x3, x0
    16e0:	2a1703e4 	mov	w4, w23
    16e4:	aa1303e2 	mov	x2, x19
    16e8:	9101a3e1 	add	x1, sp, #0x68
    16ec:	aa1503e0 	mov	x0, x21
    16f0:	94000042 	bl	17f8 <kprintf.constprop.0>
/home/jayanth/quemu-v8/source/optee_os/lib/libutils/ext/snprintk.c:144
    16f4:	f100027f 	cmp	x19, #0x0
    16f8:	fa401a84 	ccmp	x20, #0x0, #0x4, ne  // ne = any
    16fc:	540000a0 	b.eq	1710 <__vsnprintf+0x70>  // b.none
/home/jayanth/quemu-v8/source/optee_os/lib/libutils/ext/snprintk.c:146
    1700:	93407c01 	sxtw	x1, w0
    1704:	eb20c29f 	cmp	x20, w0, sxtw
    1708:	540000e8 	b.hi	1724 <__vsnprintf+0x84>  // b.pmore
/home/jayanth/quemu-v8/source/optee_os/lib/libutils/ext/snprintk.c:147
    170c:	381ff2df 	sturb	wzr, [x22, #-1]
/home/jayanth/quemu-v8/source/optee_os/lib/libutils/ext/snprintk.c:152
    1710:	a94153f3 	ldp	x19, x20, [sp, #16]
    1714:	a9425bf5 	ldp	x21, x22, [sp, #32]
    1718:	f9401bf7 	ldr	x23, [sp, #48]
    171c:	a8c77bfd 	ldp	x29, x30, [sp], #112
    1720:	d65f03c0 	ret
/home/jayanth/quemu-v8/source/optee_os/lib/libutils/ext/snprintk.c:149
    1724:	38216a7f 	strb	wzr, [x19, x1]
/home/jayanth/quemu-v8/source/optee_os/lib/libutils/ext/snprintk.c:151
    1728:	17fffffa 	b	1710 <__vsnprintf+0x70>

000000000000172c <vsnprintk>:
vsnprintk():
/home/jayanth/quemu-v8/source/optee_os/lib/libutils/ext/snprintk.c:130
    172c:	a9bb7bfd 	stp	x29, x30, [sp, #-80]!
/home/jayanth/quemu-v8/source/optee_os/lib/libutils/ext/snprintk.c:131
    1730:	9100c3e4 	add	x4, sp, #0x30
/home/jayanth/quemu-v8/source/optee_os/lib/libutils/ext/snprintk.c:130
    1734:	910003fd 	mov	x29, sp
    1738:	a90153f3 	stp	x19, x20, [sp, #16]
    173c:	aa0003f3 	mov	x19, x0
    1740:	aa0103f4 	mov	x20, x1
/home/jayanth/quemu-v8/source/optee_os/lib/libutils/ext/snprintk.c:131
    1744:	aa0403e0 	mov	x0, x4
/home/jayanth/quemu-v8/source/optee_os/lib/libutils/ext/snprintk.c:130
    1748:	aa0303e1 	mov	x1, x3
    174c:	f90013f5 	str	x21, [sp, #32]
    1750:	aa0203f5 	mov	x21, x2
/home/jayanth/quemu-v8/source/optee_os/lib/libutils/ext/snprintk.c:131
    1754:	d2800402 	mov	x2, #0x20                  	// #32
    1758:	97fffa32 	bl	20 <memcpy>
    175c:	aa1503e2 	mov	x2, x21
    1760:	aa0003e3 	mov	x3, x0
    1764:	aa1403e1 	mov	x1, x20
    1768:	aa1303e0 	mov	x0, x19
    176c:	52800024 	mov	w4, #0x1                   	// #1
    1770:	97ffffcc 	bl	16a0 <__vsnprintf>
/home/jayanth/quemu-v8/source/optee_os/lib/libutils/ext/snprintk.c:132
    1774:	a94153f3 	ldp	x19, x20, [sp, #16]
    1778:	f94013f5 	ldr	x21, [sp, #32]
    177c:	a8c57bfd 	ldp	x29, x30, [sp], #80
    1780:	d65f03c0 	ret

0000000000001784 <snprintk>:
snprintk():
/home/jayanth/quemu-v8/source/optee_os/lib/libutils/ext/snprintk.c:113
    1784:	a9b07bfd 	stp	x29, x30, [sp, #-256]!
    1788:	910003fd 	mov	x29, sp
    178c:	a90d93e3 	stp	x3, x4, [sp, #216]
/home/jayanth/quemu-v8/source/optee_os/lib/libutils/ext/snprintk.c:117
    1790:	910403e3 	add	x3, sp, #0x100
    1794:	a9030fe3 	stp	x3, x3, [sp, #48]
    1798:	910343e3 	add	x3, sp, #0xd0
    179c:	f90023e3 	str	x3, [sp, #64]
    17a0:	128004e3 	mov	w3, #0xffffffd8            	// #-40
    17a4:	b9004be3 	str	w3, [sp, #72]
    17a8:	12800fe3 	mov	w3, #0xffffff80            	// #-128
    17ac:	b9004fe3 	str	w3, [sp, #76]
/home/jayanth/quemu-v8/source/optee_os/lib/libutils/ext/snprintk.c:118
    17b0:	910043e3 	add	x3, sp, #0x10
/home/jayanth/quemu-v8/source/optee_os/lib/libutils/ext/snprintk.c:113
    17b4:	a90e9be5 	stp	x5, x6, [sp, #232]
/home/jayanth/quemu-v8/source/optee_os/lib/libutils/ext/snprintk.c:118
    17b8:	a94317e4 	ldp	x4, x5, [sp, #48]
    17bc:	a90117e4 	stp	x4, x5, [sp, #16]
    17c0:	a94417e4 	ldp	x4, x5, [sp, #64]
    17c4:	a90217e4 	stp	x4, x5, [sp, #32]
/home/jayanth/quemu-v8/source/optee_os/lib/libutils/ext/snprintk.c:113
    17c8:	3d8017e0 	str	q0, [sp, #80]
    17cc:	3d801be1 	str	q1, [sp, #96]
    17d0:	3d801fe2 	str	q2, [sp, #112]
    17d4:	3d8023e3 	str	q3, [sp, #128]
    17d8:	3d8027e4 	str	q4, [sp, #144]
    17dc:	3d802be5 	str	q5, [sp, #160]
    17e0:	3d802fe6 	str	q6, [sp, #176]
    17e4:	3d8033e7 	str	q7, [sp, #192]
    17e8:	f9007fe7 	str	x7, [sp, #248]
/home/jayanth/quemu-v8/source/optee_os/lib/libutils/ext/snprintk.c:118
    17ec:	97ffffd0 	bl	172c <vsnprintk>
/home/jayanth/quemu-v8/source/optee_os/lib/libutils/ext/snprintk.c:122
    17f0:	a8d07bfd 	ldp	x29, x30, [sp], #256
    17f4:	d65f03c0 	ret

00000000000017f8 <kprintf.constprop.0>:
kprintf():
/home/jayanth/quemu-v8/source/optee_os/lib/libutils/ext/snprintk.c:242
    17f8:	d103c3ff 	sub	sp, sp, #0xf0
    17fc:	aa0103e8 	mov	x8, x1
    1800:	a9037bfd 	stp	x29, x30, [sp, #48]
    1804:	9100c3fd 	add	x29, sp, #0x30
    1808:	a90453f3 	stp	x19, x20, [sp, #64]
    180c:	b9401874 	ldr	w20, [x3, #24]
    1810:	a9055bf5 	stp	x21, x22, [sp, #80]
    1814:	aa0203f6 	mov	x22, x2
    1818:	a90663f7 	stp	x23, x24, [sp, #96]
    181c:	a9076bf9 	stp	x25, x26, [sp, #112]
    1820:	a90873fb 	stp	x27, x28, [sp, #128]
    1824:	aa0003fb 	mov	x27, x0
    1828:	12001c80 	and	w0, w4, #0xff
    182c:	b900a3e0 	str	w0, [sp, #160]
    1830:	a9406873 	ldp	x19, x26, [x3]
/home/jayanth/quemu-v8/source/optee_os/lib/libutils/ext/snprintk.c:264
    1834:	b40004c1 	cbz	x1, 18cc <kprintf.constprop.0+0xd4>
/home/jayanth/quemu-v8/source/optee_os/lib/libutils/ext/snprintk.c:265
    1838:	f9400038 	ldr	x24, [x1]
/home/jayanth/quemu-v8/source/optee_os/lib/libutils/ext/snprintk.c:543
    183c:	910323ec 	add	x12, sp, #0xc8
    1840:	d0000040 	adrp	x0, b000 <__text_end+0x1788>
/home/jayanth/quemu-v8/source/optee_os/lib/libutils/ext/snprintk.c:275
    1844:	d2800017 	mov	x23, #0x0                   	// #0
    1848:	911d1000 	add	x0, x0, #0x744
/home/jayanth/quemu-v8/source/optee_os/lib/libutils/ext/snprintk.c:273
    184c:	52800019 	mov	w25, #0x0                   	// #0
    1850:	f9004be0 	str	x0, [sp, #144]
/home/jayanth/quemu-v8/source/optee_os/lib/libutils/ext/snprintk.c:281
    1854:	39400360 	ldrb	w0, [x27]
    1858:	7100941f 	cmp	w0, #0x25
    185c:	7a401804 	ccmp	w0, #0x0, #0x4, ne  // ne = any
    1860:	540003a1 	b.ne	18d4 <kprintf.constprop.0+0xdc>  // b.any
/home/jayanth/quemu-v8/source/optee_os/lib/libutils/ext/snprintk.c:285
    1864:	34005260 	cbz	w0, 22b0 <kprintf.constprop.0+0xab8>
/home/jayanth/quemu-v8/source/optee_os/lib/libutils/ext/snprintk.c:293
    1868:	12800005 	mov	w5, #0xffffffff            	// #-1
    186c:	d0000046 	adrp	x6, b000 <__text_end+0x1788>
/home/jayanth/quemu-v8/source/optee_os/lib/libutils/ext/snprintk.c:288
    1870:	9100077b 	add	x27, x27, #0x1
    1874:	2a1403e4 	mov	w4, w20
    1878:	aa1303e3 	mov	x3, x19
    187c:	911d80c6 	add	x6, x6, #0x760
/home/jayanth/quemu-v8/source/optee_os/lib/libutils/ext/snprintk.c:330
    1880:	2a0503ee 	mov	w14, w5
/home/jayanth/quemu-v8/source/optee_os/lib/libutils/ext/snprintk.c:294
    1884:	52800001 	mov	w1, #0x0                   	// #0
/home/jayanth/quemu-v8/source/optee_os/lib/libutils/ext/snprintk.c:292
    1888:	5280000a 	mov	w10, #0x0                   	// #0
/home/jayanth/quemu-v8/source/optee_os/lib/libutils/ext/snprintk.c:290
    188c:	52800015 	mov	w21, #0x0                   	// #0
/home/jayanth/quemu-v8/source/optee_os/lib/libutils/ext/snprintk.c:352
    1890:	5280014d 	mov	w13, #0xa                   	// #10
/home/jayanth/quemu-v8/source/optee_os/lib/libutils/ext/snprintk.c:305
    1894:	5280040f 	mov	w15, #0x20                  	// #32
/home/jayanth/quemu-v8/source/optee_os/lib/libutils/ext/snprintk.c:296
    1898:	3840177c 	ldrb	w28, [x27], #1
/home/jayanth/quemu-v8/source/optee_os/lib/libutils/ext/snprintk.c:297
    189c:	7100e79f 	cmp	w28, #0x39
    18a0:	5400054c 	b.gt	1948 <kprintf.constprop.0+0x150>
    18a4:	71007f9f 	cmp	w28, #0x1f
    18a8:	5400502d 	b.le	22ac <kprintf.constprop.0+0xab4>
    18ac:	51008380 	sub	w0, w28, #0x20
    18b0:	7100641f 	cmp	w0, #0x19
    18b4:	54000508 	b.hi	1954 <kprintf.constprop.0+0x15c>  // b.pmore
    18b8:	f9404be2 	ldr	x2, [sp, #144]
    18bc:	38604840 	ldrb	w0, [x2, w0, uxtw]
    18c0:	10000062 	adr	x2, 18cc <kprintf.constprop.0+0xd4>
    18c4:	8b208840 	add	x0, x2, w0, sxtb #2
    18c8:	d61f0000 	br	x0
/home/jayanth/quemu-v8/source/optee_os/lib/libutils/ext/snprintk.c:267
    18cc:	d2800018 	mov	x24, #0x0                   	// #0
    18d0:	17ffffdb 	b	183c <kprintf.constprop.0+0x44>
/home/jayanth/quemu-v8/source/optee_os/lib/libutils/ext/snprintk.c:282
    18d4:	11000739 	add	w25, w25, #0x1
/home/jayanth/quemu-v8/source/optee_os/lib/libutils/ext/snprintk.c:283
    18d8:	b40000b6 	cbz	x22, 18ec <kprintf.constprop.0+0xf4>
    18dc:	f100011f 	cmp	x8, #0x0
    18e0:	fa5812c0 	ccmp	x22, x24, #0x0, ne  // ne = any
    18e4:	54000042 	b.cs	18ec <kprintf.constprop.0+0xf4>  // b.hs, b.nlast
    18e8:	380016c0 	strb	w0, [x22], #1
/home/jayanth/quemu-v8/source/optee_os/lib/libutils/ext/snprintk.c:281
    18ec:	9100077b 	add	x27, x27, #0x1
    18f0:	17ffffd9 	b	1854 <kprintf.constprop.0+0x5c>
/home/jayanth/quemu-v8/source/optee_os/lib/libutils/ext/snprintk.c:325
    18f4:	52800561 	mov	w1, #0x2b                  	// #43
    18f8:	17ffffe8 	b	1898 <kprintf.constprop.0+0xa0>
    18fc:	786058c0 	ldrh	w0, [x6, w0, uxtw #1]
    1900:	10000062 	adr	x2, 190c <kprintf.constprop.0+0x114>
    1904:	8b20a840 	add	x0, x2, w0, sxth #2
    1908:	d61f0000 	br	x0
/home/jayanth/quemu-v8/source/optee_os/lib/libutils/ext/snprintk.c:480
    190c:	d0000057 	adrp	x23, b000 <__text_end+0x1788>
    1910:	911f3af7 	add	x23, x23, #0x7ce
    1914:	910046f7 	add	x23, x23, #0x11
/home/jayanth/quemu-v8/source/optee_os/lib/libutils/ext/snprintk.c:481
    1918:	36384515 	tbz	w21, #7, 21b8 <kprintf.constprop.0+0x9c0>
    191c:	37f84644 	tbnz	w4, #31, 21e4 <kprintf.constprop.0+0x9ec>
    1920:	91003c73 	add	x19, x3, #0xf
    1924:	2a0403f4 	mov	w20, w4
    1928:	927df273 	and	x19, x19, #0xfffffffffffffff8
    192c:	f9400062 	ldr	x2, [x3]
/home/jayanth/quemu-v8/source/optee_os/lib/libutils/ext/snprintk.c:484
    1930:	36003475 	tbz	w21, #0, 1fbc <kprintf.constprop.0+0x7c4>
    1934:	b4003442 	cbz	x2, 1fbc <kprintf.constprop.0+0x7c4>
/home/jayanth/quemu-v8/source/optee_os/lib/libutils/ext/snprintk.c:485
    1938:	321f02b5 	orr	w21, w21, #0x2
/home/jayanth/quemu-v8/source/optee_os/lib/libutils/ext/snprintk.c:482
    193c:	52800040 	mov	w0, #0x2                   	// #2
/home/jayanth/quemu-v8/source/optee_os/lib/libutils/ext/snprintk.c:488
    1940:	52800001 	mov	w1, #0x0                   	// #0
    1944:	14000078 	b	1b24 <kprintf.constprop.0+0x32c>
/home/jayanth/quemu-v8/source/optee_os/lib/libutils/ext/snprintk.c:297
    1948:	51011380 	sub	w0, w28, #0x44
    194c:	7100d81f 	cmp	w0, #0x36
    1950:	54fffd69 	b.ls	18fc <kprintf.constprop.0+0x104>  // b.plast
/home/jayanth/quemu-v8/source/optee_os/lib/libutils/ext/snprintk.c:554
    1954:	2a0403f4 	mov	w20, w4
    1958:	aa0303f3 	mov	x19, x3
/home/jayanth/quemu-v8/source/optee_os/lib/libutils/ext/snprintk.c:551
    195c:	390323fc 	strb	w28, [sp, #200]
/home/jayanth/quemu-v8/source/optee_os/lib/libutils/ext/snprintk.c:554
    1960:	14000058 	b	1ac0 <kprintf.constprop.0+0x2c8>
/home/jayanth/quemu-v8/source/optee_os/lib/libutils/ext/snprintk.c:305
    1964:	7100003f 	cmp	w1, #0x0
    1968:	1a8f1021 	csel	w1, w1, w15, ne  // ne = any
    196c:	17ffffcb 	b	1898 <kprintf.constprop.0+0xa0>
/home/jayanth/quemu-v8/source/optee_os/lib/libutils/ext/snprintk.c:308
    1970:	320002b5 	orr	w21, w21, #0x1
/home/jayanth/quemu-v8/source/optee_os/lib/libutils/ext/snprintk.c:309
    1974:	17ffffc9 	b	1898 <kprintf.constprop.0+0xa0>
/home/jayanth/quemu-v8/source/optee_os/lib/libutils/ext/snprintk.c:317
    1978:	37f80124 	tbnz	w4, #31, 199c <kprintf.constprop.0+0x1a4>
    197c:	91002c62 	add	x2, x3, #0xb
    1980:	aa0303e0 	mov	x0, x3
    1984:	927df043 	and	x3, x2, #0xfffffffffffffff8
    1988:	b940000a 	ldr	w10, [x0]
    198c:	36fff86a 	tbz	w10, #31, 1898 <kprintf.constprop.0+0xa0>
/home/jayanth/quemu-v8/source/optee_os/lib/libutils/ext/snprintk.c:319
    1990:	4b0a03ea 	neg	w10, w10
/home/jayanth/quemu-v8/source/optee_os/lib/libutils/ext/snprintk.c:322
    1994:	321e02b5 	orr	w21, w21, #0x4
/home/jayanth/quemu-v8/source/optee_os/lib/libutils/ext/snprintk.c:323
    1998:	17ffffc0 	b	1898 <kprintf.constprop.0+0xa0>
/home/jayanth/quemu-v8/source/optee_os/lib/libutils/ext/snprintk.c:317
    199c:	11002082 	add	w2, w4, #0x8
    19a0:	7100005f 	cmp	w2, #0x0
    19a4:	540000cd 	b.le	19bc <kprintf.constprop.0+0x1c4>
    19a8:	91002c67 	add	x7, x3, #0xb
    19ac:	aa0303e0 	mov	x0, x3
    19b0:	2a0203e4 	mov	w4, w2
    19b4:	927df0e3 	and	x3, x7, #0xfffffffffffffff8
    19b8:	17fffff4 	b	1988 <kprintf.constprop.0+0x190>
    19bc:	8b24c340 	add	x0, x26, w4, sxtw
    19c0:	2a0203e4 	mov	w4, w2
    19c4:	17fffff1 	b	1988 <kprintf.constprop.0+0x190>
/home/jayanth/quemu-v8/source/optee_os/lib/libutils/ext/snprintk.c:328
    19c8:	3840177c 	ldrb	w28, [x27], #1
    19cc:	7100ab9f 	cmp	w28, #0x2a
    19d0:	54000341 	b.ne	1a38 <kprintf.constprop.0+0x240>  // b.any
/home/jayanth/quemu-v8/source/optee_os/lib/libutils/ext/snprintk.c:329
    19d4:	37f80144 	tbnz	w4, #31, 19fc <kprintf.constprop.0+0x204>
    19d8:	91002c62 	add	x2, x3, #0xb
    19dc:	2a0403e7 	mov	w7, w4
    19e0:	927df042 	and	x2, x2, #0xfffffffffffffff8
/home/jayanth/quemu-v8/source/optee_os/lib/libutils/ext/snprintk.c:330
    19e4:	b9400065 	ldr	w5, [x3]
/home/jayanth/quemu-v8/source/optee_os/lib/libutils/ext/snprintk.c:331
    19e8:	2a0703e4 	mov	w4, w7
    19ec:	aa0203e3 	mov	x3, x2
/home/jayanth/quemu-v8/source/optee_os/lib/libutils/ext/snprintk.c:330
    19f0:	710000bf 	cmp	w5, #0x0
    19f4:	1a8ea0a5 	csel	w5, w5, w14, ge  // ge = tcont
/home/jayanth/quemu-v8/source/optee_os/lib/libutils/ext/snprintk.c:331
    19f8:	17ffffa8 	b	1898 <kprintf.constprop.0+0xa0>
/home/jayanth/quemu-v8/source/optee_os/lib/libutils/ext/snprintk.c:329
    19fc:	11002087 	add	w7, w4, #0x8
    1a00:	710000ff 	cmp	w7, #0x0
    1a04:	5400008d 	b.le	1a14 <kprintf.constprop.0+0x21c>
    1a08:	91002c62 	add	x2, x3, #0xb
    1a0c:	927df042 	and	x2, x2, #0xfffffffffffffff8
    1a10:	17fffff5 	b	19e4 <kprintf.constprop.0+0x1ec>
    1a14:	aa0303e2 	mov	x2, x3
    1a18:	8b24c343 	add	x3, x26, w4, sxtw
    1a1c:	17fffff2 	b	19e4 <kprintf.constprop.0+0x1ec>
/home/jayanth/quemu-v8/source/optee_os/lib/libutils/ext/snprintk.c:335
    1a20:	1b0d00a5 	madd	w5, w5, w13, w0
/home/jayanth/quemu-v8/source/optee_os/lib/libutils/ext/snprintk.c:336
    1a24:	3840177c 	ldrb	w28, [x27], #1
/home/jayanth/quemu-v8/source/optee_os/lib/libutils/ext/snprintk.c:334
    1a28:	5100c380 	sub	w0, w28, #0x30
    1a2c:	7100241f 	cmp	w0, #0x9
    1a30:	54ffff89 	b.ls	1a20 <kprintf.constprop.0+0x228>  // b.plast
    1a34:	17ffff9a 	b	189c <kprintf.constprop.0+0xa4>
/home/jayanth/quemu-v8/source/optee_os/lib/libutils/ext/snprintk.c:333
    1a38:	52800005 	mov	w5, #0x0                   	// #0
    1a3c:	17fffffb 	b	1a28 <kprintf.constprop.0+0x230>
/home/jayanth/quemu-v8/source/optee_os/lib/libutils/ext/snprintk.c:346
    1a40:	321602b5 	orr	w21, w21, #0x400
/home/jayanth/quemu-v8/source/optee_os/lib/libutils/ext/snprintk.c:347
    1a44:	17ffff95 	b	1898 <kprintf.constprop.0+0xa0>
/home/jayanth/quemu-v8/source/optee_os/lib/libutils/ext/snprintk.c:297
    1a48:	5280000a 	mov	w10, #0x0                   	// #0
/home/jayanth/quemu-v8/source/optee_os/lib/libutils/ext/snprintk.c:352
    1a4c:	5100c39c 	sub	w28, w28, #0x30
    1a50:	1b0d714a 	madd	w10, w10, w13, w28
/home/jayanth/quemu-v8/source/optee_os/lib/libutils/ext/snprintk.c:353
    1a54:	3840177c 	ldrb	w28, [x27], #1
/home/jayanth/quemu-v8/source/optee_os/lib/libutils/ext/snprintk.c:354
    1a58:	5100c380 	sub	w0, w28, #0x30
    1a5c:	7100241f 	cmp	w0, #0x9
    1a60:	54ffff69 	b.ls	1a4c <kprintf.constprop.0+0x254>  // b.plast
    1a64:	17ffff8e 	b	189c <kprintf.constprop.0+0xa4>
/home/jayanth/quemu-v8/source/optee_os/lib/libutils/ext/snprintk.c:358
    1a68:	321a02b5 	orr	w21, w21, #0x40
/home/jayanth/quemu-v8/source/optee_os/lib/libutils/ext/snprintk.c:359
    1a6c:	17ffff8b 	b	1898 <kprintf.constprop.0+0xa0>
/home/jayanth/quemu-v8/source/optee_os/lib/libutils/ext/snprintk.c:361
    1a70:	321902b5 	orr	w21, w21, #0x80
/home/jayanth/quemu-v8/source/optee_os/lib/libutils/ext/snprintk.c:362
    1a74:	17ffff89 	b	1898 <kprintf.constprop.0+0xa0>
/home/jayanth/quemu-v8/source/optee_os/lib/libutils/ext/snprintk.c:364
    1a78:	39400360 	ldrb	w0, [x27]
    1a7c:	7101b01f 	cmp	w0, #0x6c
    1a80:	54000081 	b.ne	1a90 <kprintf.constprop.0+0x298>  // b.any
    1a84:	9100077b 	add	x27, x27, #0x1
/home/jayanth/quemu-v8/source/optee_os/lib/libutils/ext/snprintk.c:372
    1a88:	321b02b5 	orr	w21, w21, #0x20
/home/jayanth/quemu-v8/source/optee_os/lib/libutils/ext/snprintk.c:373
    1a8c:	17ffff83 	b	1898 <kprintf.constprop.0+0xa0>
/home/jayanth/quemu-v8/source/optee_os/lib/libutils/ext/snprintk.c:368
    1a90:	321c02b5 	orr	w21, w21, #0x10
    1a94:	17ffff81 	b	1898 <kprintf.constprop.0+0xa0>
/home/jayanth/quemu-v8/source/optee_os/lib/libutils/ext/snprintk.c:375
    1a98:	321802b5 	orr	w21, w21, #0x100
/home/jayanth/quemu-v8/source/optee_os/lib/libutils/ext/snprintk.c:376
    1a9c:	17ffff7f 	b	1898 <kprintf.constprop.0+0xa0>
/home/jayanth/quemu-v8/source/optee_os/lib/libutils/ext/snprintk.c:378
    1aa0:	321702b5 	orr	w21, w21, #0x200
/home/jayanth/quemu-v8/source/optee_os/lib/libutils/ext/snprintk.c:379
    1aa4:	17ffff7d 	b	1898 <kprintf.constprop.0+0xa0>
/home/jayanth/quemu-v8/source/optee_os/lib/libutils/ext/snprintk.c:381
    1aa8:	37f80164 	tbnz	w4, #31, 1ad4 <kprintf.constprop.0+0x2dc>
    1aac:	91002c73 	add	x19, x3, #0xb
    1ab0:	2a0403f4 	mov	w20, w4
    1ab4:	927df273 	and	x19, x19, #0xfffffffffffffff8
    1ab8:	b9400060 	ldr	w0, [x3]
    1abc:	390323e0 	strb	w0, [sp, #200]
/home/jayanth/quemu-v8/source/optee_os/lib/libutils/ext/snprintk.c:550
    1ac0:	910323e3 	add	x3, sp, #0xc8
/home/jayanth/quemu-v8/source/optee_os/lib/libutils/ext/snprintk.c:552
    1ac4:	52800025 	mov	w5, #0x1                   	// #1
/home/jayanth/quemu-v8/source/optee_os/lib/libutils/ext/snprintk.c:291
    1ac8:	52800006 	mov	w6, #0x0                   	// #0
/home/jayanth/quemu-v8/source/optee_os/lib/libutils/ext/snprintk.c:553
    1acc:	52800001 	mov	w1, #0x0                   	// #0
/home/jayanth/quemu-v8/source/optee_os/lib/libutils/ext/snprintk.c:554
    1ad0:	140000fa 	b	1eb8 <kprintf.constprop.0+0x6c0>
/home/jayanth/quemu-v8/source/optee_os/lib/libutils/ext/snprintk.c:381
    1ad4:	11002094 	add	w20, w4, #0x8
    1ad8:	7100029f 	cmp	w20, #0x0
    1adc:	5400008d 	b.le	1aec <kprintf.constprop.0+0x2f4>
    1ae0:	91002c73 	add	x19, x3, #0xb
    1ae4:	927df273 	and	x19, x19, #0xfffffffffffffff8
    1ae8:	17fffff4 	b	1ab8 <kprintf.constprop.0+0x2c0>
    1aec:	aa0303f3 	mov	x19, x3
    1af0:	8b24c343 	add	x3, x26, w4, sxtw
    1af4:	17fffff1 	b	1ab8 <kprintf.constprop.0+0x2c0>
/home/jayanth/quemu-v8/source/optee_os/lib/libutils/ext/snprintk.c:386
    1af8:	321c02b5 	orr	w21, w21, #0x10
/home/jayanth/quemu-v8/source/optee_os/lib/libutils/ext/snprintk.c:390
    1afc:	363802f5 	tbz	w21, #7, 1b58 <kprintf.constprop.0+0x360>
    1b00:	37f80424 	tbnz	w4, #31, 1b84 <kprintf.constprop.0+0x38c>
    1b04:	91003c73 	add	x19, x3, #0xf
    1b08:	2a0403f4 	mov	w20, w4
    1b0c:	927df273 	and	x19, x19, #0xfffffffffffffff8
    1b10:	f9400062 	ldr	x2, [x3]
/home/jayanth/quemu-v8/source/optee_os/lib/libutils/ext/snprintk.c:391
    1b14:	b6f82e02 	tbz	x2, #63, 20d4 <kprintf.constprop.0+0x8dc>
/home/jayanth/quemu-v8/source/optee_os/lib/libutils/ext/snprintk.c:392
    1b18:	cb0203e2 	neg	x2, x2
/home/jayanth/quemu-v8/source/optee_os/lib/libutils/ext/snprintk.c:395
    1b1c:	52800020 	mov	w0, #0x1                   	// #1
/home/jayanth/quemu-v8/source/optee_os/lib/libutils/ext/snprintk.c:393
    1b20:	528005a1 	mov	w1, #0x2d                  	// #45
/home/jayanth/quemu-v8/source/optee_os/lib/libutils/ext/snprintk.c:494
    1b24:	310004bf 	cmn	w5, #0x1
    1b28:	54003a21 	b.ne	226c <kprintf.constprop.0+0xa74>  // b.any
/home/jayanth/quemu-v8/source/optee_os/lib/libutils/ext/snprintk.c:509
    1b2c:	7100041f 	cmp	w0, #0x1
    1b30:	54002d60 	b.eq	20dc <kprintf.constprop.0+0x8e4>  // b.none
    1b34:	7100081f 	cmp	w0, #0x2
    1b38:	54000ea1 	b.ne	1d0c <kprintf.constprop.0+0x514>  // b.any
/home/jayanth/quemu-v8/source/optee_os/lib/libutils/ext/snprintk.c:502
    1b3c:	91009583 	add	x3, x12, #0x25
/home/jayanth/quemu-v8/source/optee_os/lib/libutils/ext/snprintk.c:531
    1b40:	92400c40 	and	x0, x2, #0xf
/home/jayanth/quemu-v8/source/optee_os/lib/libutils/ext/snprintk.c:532
    1b44:	d344fc42 	lsr	x2, x2, #4
/home/jayanth/quemu-v8/source/optee_os/lib/libutils/ext/snprintk.c:531
    1b48:	38606ae0 	ldrb	w0, [x23, x0]
    1b4c:	381ffc60 	strb	w0, [x3, #-1]!
/home/jayanth/quemu-v8/source/optee_os/lib/libutils/ext/snprintk.c:533
    1b50:	b5ffff82 	cbnz	x2, 1b40 <kprintf.constprop.0+0x348>
    1b54:	1400007b 	b	1d40 <kprintf.constprop.0+0x548>
/home/jayanth/quemu-v8/source/optee_os/lib/libutils/ext/snprintk.c:390
    1b58:	3747fd55 	tbnz	w21, #8, 1b00 <kprintf.constprop.0+0x308>
    1b5c:	374ffd35 	tbnz	w21, #9, 1b00 <kprintf.constprop.0+0x308>
    1b60:	372ffd15 	tbnz	w21, #5, 1b00 <kprintf.constprop.0+0x308>
    1b64:	3727fcf5 	tbnz	w21, #4, 1b00 <kprintf.constprop.0+0x308>
    1b68:	36300335 	tbz	w21, #6, 1bcc <kprintf.constprop.0+0x3d4>
    1b6c:	37f801e4 	tbnz	w4, #31, 1ba8 <kprintf.constprop.0+0x3b0>
    1b70:	91002c73 	add	x19, x3, #0xb
    1b74:	2a0403f4 	mov	w20, w4
    1b78:	927df273 	and	x19, x19, #0xfffffffffffffff8
    1b7c:	79800062 	ldrsh	x2, [x3]
    1b80:	17ffffe5 	b	1b14 <kprintf.constprop.0+0x31c>
    1b84:	11002094 	add	w20, w4, #0x8
    1b88:	7100029f 	cmp	w20, #0x0
    1b8c:	5400008d 	b.le	1b9c <kprintf.constprop.0+0x3a4>
    1b90:	91003c73 	add	x19, x3, #0xf
    1b94:	927df273 	and	x19, x19, #0xfffffffffffffff8
    1b98:	17ffffde 	b	1b10 <kprintf.constprop.0+0x318>
    1b9c:	aa0303f3 	mov	x19, x3
    1ba0:	8b24c343 	add	x3, x26, w4, sxtw
    1ba4:	17ffffdb 	b	1b10 <kprintf.constprop.0+0x318>
    1ba8:	11002094 	add	w20, w4, #0x8
    1bac:	7100029f 	cmp	w20, #0x0
    1bb0:	5400008d 	b.le	1bc0 <kprintf.constprop.0+0x3c8>
    1bb4:	91002c73 	add	x19, x3, #0xb
    1bb8:	927df273 	and	x19, x19, #0xfffffffffffffff8
    1bbc:	17fffff0 	b	1b7c <kprintf.constprop.0+0x384>
    1bc0:	aa0303f3 	mov	x19, x3
    1bc4:	8b24c343 	add	x3, x26, w4, sxtw
    1bc8:	17ffffed 	b	1b7c <kprintf.constprop.0+0x384>
    1bcc:	37f800c4 	tbnz	w4, #31, 1be4 <kprintf.constprop.0+0x3ec>
    1bd0:	91002c73 	add	x19, x3, #0xb
    1bd4:	2a0403f4 	mov	w20, w4
    1bd8:	927df273 	and	x19, x19, #0xfffffffffffffff8
    1bdc:	b9800062 	ldrsw	x2, [x3]
    1be0:	17ffffcd 	b	1b14 <kprintf.constprop.0+0x31c>
    1be4:	11002094 	add	w20, w4, #0x8
    1be8:	7100029f 	cmp	w20, #0x0
    1bec:	5400008d 	b.le	1bfc <kprintf.constprop.0+0x404>
    1bf0:	91002c73 	add	x19, x3, #0xb
    1bf4:	927df273 	and	x19, x19, #0xfffffffffffffff8
    1bf8:	17fffff9 	b	1bdc <kprintf.constprop.0+0x3e4>
    1bfc:	aa0303f3 	mov	x19, x3
    1c00:	8b24c343 	add	x3, x26, w4, sxtw
    1c04:	17fffff6 	b	1bdc <kprintf.constprop.0+0x3e4>
/home/jayanth/quemu-v8/source/optee_os/lib/libutils/ext/snprintk.c:398
    1c08:	36380135 	tbz	w21, #7, 1c2c <kprintf.constprop.0+0x434>
/home/jayanth/quemu-v8/source/optee_os/lib/libutils/ext/snprintk.c:407
    1c0c:	37f80284 	tbnz	w4, #31, 1c5c <kprintf.constprop.0+0x464>
    1c10:	91003c73 	add	x19, x3, #0xf
    1c14:	2a0403f4 	mov	w20, w4
    1c18:	927df273 	and	x19, x19, #0xfffffffffffffff8
    1c1c:	f9400060 	ldr	x0, [x3]
    1c20:	93407f21 	sxtw	x1, w25
    1c24:	f9000001 	str	x1, [x0]
    1c28:	17ffff0b 	b	1854 <kprintf.constprop.0+0x5c>
/home/jayanth/quemu-v8/source/optee_os/lib/libutils/ext/snprintk.c:400
    1c2c:	3747ff15 	tbnz	w21, #8, 1c0c <kprintf.constprop.0+0x414>
/home/jayanth/quemu-v8/source/optee_os/lib/libutils/ext/snprintk.c:402
    1c30:	374ffef5 	tbnz	w21, #9, 1c0c <kprintf.constprop.0+0x414>
/home/jayanth/quemu-v8/source/optee_os/lib/libutils/ext/snprintk.c:404
    1c34:	372ffed5 	tbnz	w21, #5, 1c0c <kprintf.constprop.0+0x414>
/home/jayanth/quemu-v8/source/optee_os/lib/libutils/ext/snprintk.c:406
    1c38:	3727feb5 	tbnz	w21, #4, 1c0c <kprintf.constprop.0+0x414>
/home/jayanth/quemu-v8/source/optee_os/lib/libutils/ext/snprintk.c:408
    1c3c:	36300355 	tbz	w21, #6, 1ca4 <kprintf.constprop.0+0x4ac>
/home/jayanth/quemu-v8/source/optee_os/lib/libutils/ext/snprintk.c:409
    1c40:	37f80204 	tbnz	w4, #31, 1c80 <kprintf.constprop.0+0x488>
    1c44:	91003c73 	add	x19, x3, #0xf
    1c48:	2a0403f4 	mov	w20, w4
    1c4c:	927df273 	and	x19, x19, #0xfffffffffffffff8
    1c50:	f9400060 	ldr	x0, [x3]
    1c54:	79000019 	strh	w25, [x0]
    1c58:	17fffeff 	b	1854 <kprintf.constprop.0+0x5c>
/home/jayanth/quemu-v8/source/optee_os/lib/libutils/ext/snprintk.c:407
    1c5c:	11002094 	add	w20, w4, #0x8
    1c60:	7100029f 	cmp	w20, #0x0
    1c64:	5400008d 	b.le	1c74 <kprintf.constprop.0+0x47c>
    1c68:	91003c73 	add	x19, x3, #0xf
    1c6c:	927df273 	and	x19, x19, #0xfffffffffffffff8
    1c70:	17ffffeb 	b	1c1c <kprintf.constprop.0+0x424>
    1c74:	aa0303f3 	mov	x19, x3
    1c78:	8b24c343 	add	x3, x26, w4, sxtw
    1c7c:	17ffffe8 	b	1c1c <kprintf.constprop.0+0x424>
/home/jayanth/quemu-v8/source/optee_os/lib/libutils/ext/snprintk.c:409
    1c80:	11002094 	add	w20, w4, #0x8
    1c84:	7100029f 	cmp	w20, #0x0
    1c88:	5400008d 	b.le	1c98 <kprintf.constprop.0+0x4a0>
    1c8c:	91003c73 	add	x19, x3, #0xf
    1c90:	927df273 	and	x19, x19, #0xfffffffffffffff8
    1c94:	17ffffef 	b	1c50 <kprintf.constprop.0+0x458>
    1c98:	aa0303f3 	mov	x19, x3
    1c9c:	8b24c343 	add	x3, x26, w4, sxtw
    1ca0:	17ffffec 	b	1c50 <kprintf.constprop.0+0x458>
/home/jayanth/quemu-v8/source/optee_os/lib/libutils/ext/snprintk.c:411
    1ca4:	37f800e4 	tbnz	w4, #31, 1cc0 <kprintf.constprop.0+0x4c8>
    1ca8:	91003c73 	add	x19, x3, #0xf
    1cac:	2a0403f4 	mov	w20, w4
    1cb0:	927df273 	and	x19, x19, #0xfffffffffffffff8
    1cb4:	f9400060 	ldr	x0, [x3]
    1cb8:	b9000019 	str	w25, [x0]
    1cbc:	17fffee6 	b	1854 <kprintf.constprop.0+0x5c>
    1cc0:	11002094 	add	w20, w4, #0x8
    1cc4:	7100029f 	cmp	w20, #0x0
    1cc8:	5400008d 	b.le	1cd8 <kprintf.constprop.0+0x4e0>
    1ccc:	91003c73 	add	x19, x3, #0xf
    1cd0:	927df273 	and	x19, x19, #0xfffffffffffffff8
    1cd4:	17fffff8 	b	1cb4 <kprintf.constprop.0+0x4bc>
    1cd8:	aa0303f3 	mov	x19, x3
    1cdc:	8b24c343 	add	x3, x26, w4, sxtw
    1ce0:	17fffff5 	b	1cb4 <kprintf.constprop.0+0x4bc>
/home/jayanth/quemu-v8/source/optee_os/lib/libutils/ext/snprintk.c:414
    1ce4:	321c02b5 	orr	w21, w21, #0x10
/home/jayanth/quemu-v8/source/optee_os/lib/libutils/ext/snprintk.c:417
    1ce8:	36380355 	tbz	w21, #7, 1d50 <kprintf.constprop.0+0x558>
    1cec:	37f80484 	tbnz	w4, #31, 1d7c <kprintf.constprop.0+0x584>
    1cf0:	91003c73 	add	x19, x3, #0xf
    1cf4:	2a0403f4 	mov	w20, w4
    1cf8:	927df273 	and	x19, x19, #0xfffffffffffffff8
    1cfc:	f9400062 	ldr	x2, [x3]
/home/jayanth/quemu-v8/source/optee_os/lib/libutils/ext/snprintk.c:494
    1d00:	310004bf 	cmn	w5, #0x1
    1d04:	52800001 	mov	w1, #0x0                   	// #0
    1d08:	54002b01 	b.ne	2268 <kprintf.constprop.0+0xa70>  // b.any
/home/jayanth/quemu-v8/source/optee_os/lib/libutils/ext/snprintk.c:502
    1d0c:	91009583 	add	x3, x12, #0x25
/home/jayanth/quemu-v8/source/optee_os/lib/libutils/ext/snprintk.c:512
    1d10:	12000840 	and	w0, w2, #0x7
    1d14:	aa0303e4 	mov	x4, x3
    1d18:	1100c000 	add	w0, w0, #0x30
    1d1c:	381ffc60 	strb	w0, [x3, #-1]!
/home/jayanth/quemu-v8/source/optee_os/lib/libutils/ext/snprintk.c:513
    1d20:	d343fc42 	lsr	x2, x2, #3
/home/jayanth/quemu-v8/source/optee_os/lib/libutils/ext/snprintk.c:514
    1d24:	b5ffff62 	cbnz	x2, 1d10 <kprintf.constprop.0+0x518>
/home/jayanth/quemu-v8/source/optee_os/lib/libutils/ext/snprintk.c:516
    1d28:	360000d5 	tbz	w21, #0, 1d40 <kprintf.constprop.0+0x548>
    1d2c:	7100c01f 	cmp	w0, #0x30
    1d30:	54000080 	b.eq	1d40 <kprintf.constprop.0+0x548>  // b.none
/home/jayanth/quemu-v8/source/optee_os/lib/libutils/ext/snprintk.c:517
    1d34:	52800600 	mov	w0, #0x30                  	// #48
    1d38:	381ff060 	sturb	w0, [x3, #-1]
    1d3c:	d1000883 	sub	x3, x4, #0x2
/home/jayanth/quemu-v8/source/optee_os/lib/libutils/ext/snprintk.c:543
    1d40:	91009580 	add	x0, x12, #0x25
    1d44:	2a0503e6 	mov	w6, w5
    1d48:	4b030005 	sub	w5, w0, w3
    1d4c:	1400005b 	b	1eb8 <kprintf.constprop.0+0x6c0>
/home/jayanth/quemu-v8/source/optee_os/lib/libutils/ext/snprintk.c:417
    1d50:	3747fcf5 	tbnz	w21, #8, 1cec <kprintf.constprop.0+0x4f4>
    1d54:	374ffcd5 	tbnz	w21, #9, 1cec <kprintf.constprop.0+0x4f4>
    1d58:	372ffcb5 	tbnz	w21, #5, 1cec <kprintf.constprop.0+0x4f4>
    1d5c:	3727fc95 	tbnz	w21, #4, 1cec <kprintf.constprop.0+0x4f4>
    1d60:	36300335 	tbz	w21, #6, 1dc4 <kprintf.constprop.0+0x5cc>
    1d64:	37f801e4 	tbnz	w4, #31, 1da0 <kprintf.constprop.0+0x5a8>
    1d68:	91002c73 	add	x19, x3, #0xb
    1d6c:	2a0403f4 	mov	w20, w4
    1d70:	927df273 	and	x19, x19, #0xfffffffffffffff8
    1d74:	79400062 	ldrh	w2, [x3]
    1d78:	17ffffe2 	b	1d00 <kprintf.constprop.0+0x508>
    1d7c:	11002094 	add	w20, w4, #0x8
    1d80:	7100029f 	cmp	w20, #0x0
    1d84:	5400008d 	b.le	1d94 <kprintf.constprop.0+0x59c>
    1d88:	91003c73 	add	x19, x3, #0xf
    1d8c:	927df273 	and	x19, x19, #0xfffffffffffffff8
    1d90:	17ffffdb 	b	1cfc <kprintf.constprop.0+0x504>
    1d94:	aa0303f3 	mov	x19, x3
    1d98:	8b24c343 	add	x3, x26, w4, sxtw
    1d9c:	17ffffd8 	b	1cfc <kprintf.constprop.0+0x504>
    1da0:	11002094 	add	w20, w4, #0x8
    1da4:	7100029f 	cmp	w20, #0x0
    1da8:	5400008d 	b.le	1db8 <kprintf.constprop.0+0x5c0>
    1dac:	91002c73 	add	x19, x3, #0xb
    1db0:	927df273 	and	x19, x19, #0xfffffffffffffff8
    1db4:	17fffff0 	b	1d74 <kprintf.constprop.0+0x57c>
    1db8:	aa0303f3 	mov	x19, x3
    1dbc:	8b24c343 	add	x3, x26, w4, sxtw
    1dc0:	17ffffed 	b	1d74 <kprintf.constprop.0+0x57c>
    1dc4:	37f800c4 	tbnz	w4, #31, 1ddc <kprintf.constprop.0+0x5e4>
    1dc8:	91002c73 	add	x19, x3, #0xb
    1dcc:	2a0403f4 	mov	w20, w4
    1dd0:	927df273 	and	x19, x19, #0xfffffffffffffff8
    1dd4:	b9400062 	ldr	w2, [x3]
    1dd8:	17ffffca 	b	1d00 <kprintf.constprop.0+0x508>
    1ddc:	11002094 	add	w20, w4, #0x8
    1de0:	7100029f 	cmp	w20, #0x0
    1de4:	5400008d 	b.le	1df4 <kprintf.constprop.0+0x5fc>
    1de8:	91002c73 	add	x19, x3, #0xb
    1dec:	927df273 	and	x19, x19, #0xfffffffffffffff8
    1df0:	17fffff9 	b	1dd4 <kprintf.constprop.0+0x5dc>
    1df4:	aa0303f3 	mov	x19, x3
    1df8:	8b24c343 	add	x3, x26, w4, sxtw
    1dfc:	17fffff6 	b	1dd4 <kprintf.constprop.0+0x5dc>
/home/jayanth/quemu-v8/source/optee_os/lib/libutils/ext/snprintk.c:421
    1e00:	b940a3e0 	ldr	w0, [sp, #160]
    1e04:	34000c80 	cbz	w0, 1f94 <kprintf.constprop.0+0x79c>
    1e08:	39400360 	ldrb	w0, [x27]
    1e0c:	7101541f 	cmp	w0, #0x55
    1e10:	54000c21 	b.ne	1f94 <kprintf.constprop.0+0x79c>  // b.any
    1e14:	39400760 	ldrb	w0, [x27, #1]
    1e18:	7101b01f 	cmp	w0, #0x6c
    1e1c:	54000bc1 	b.ne	1f94 <kprintf.constprop.0+0x79c>  // b.any
/home/jayanth/quemu-v8/source/optee_os/lib/libutils/ext/snprintk.c:426
    1e20:	91000b7b 	add	x27, x27, #0x2
/home/jayanth/quemu-v8/source/optee_os/lib/libutils/ext/snprintk.c:427
    1e24:	37f80a64 	tbnz	w4, #31, 1f70 <kprintf.constprop.0+0x778>
    1e28:	91003c73 	add	x19, x3, #0xf
    1e2c:	2a0403f4 	mov	w20, w4
    1e30:	927df273 	and	x19, x19, #0xfffffffffffffff8
    1e34:	f9400060 	ldr	x0, [x3]
uuid2str():
/home/jayanth/quemu-v8/source/optee_os/lib/libutils/ext/snprintk.c:229
    1e38:	f0000042 	adrp	x2, c000 <__func__.4194+0x3e3>
    1e3c:	91024842 	add	x2, x2, #0x92
    1e40:	f9004fec 	str	x12, [sp, #152]
    1e44:	b900a7ea 	str	w10, [sp, #164]
    1e48:	39403c01 	ldrb	w1, [x0, #15]
    1e4c:	39402006 	ldrb	w6, [x0, #8]
    1e50:	79400c05 	ldrh	w5, [x0, #6]
    1e54:	39402407 	ldrb	w7, [x0, #9]
    1e58:	79400804 	ldrh	w4, [x0, #4]
    1e5c:	b9002be1 	str	w1, [sp, #40]
    1e60:	f90057e8 	str	x8, [sp, #168]
    1e64:	39403801 	ldrb	w1, [x0, #14]
    1e68:	b90023e1 	str	w1, [sp, #32]
    1e6c:	39403401 	ldrb	w1, [x0, #13]
    1e70:	b9001be1 	str	w1, [sp, #24]
    1e74:	39403001 	ldrb	w1, [x0, #12]
    1e78:	b90013e1 	str	w1, [sp, #16]
    1e7c:	39402c01 	ldrb	w1, [x0, #11]
    1e80:	b9000be1 	str	w1, [sp, #8]
    1e84:	39402801 	ldrb	w1, [x0, #10]
    1e88:	b90003e1 	str	w1, [sp]
    1e8c:	d28004a1 	mov	x1, #0x25                  	// #37
    1e90:	b9400003 	ldr	w3, [x0]
    1e94:	aa0c03e0 	mov	x0, x12
    1e98:	97fffe3b 	bl	1784 <snprintk>
    1e9c:	2a0003e5 	mov	w5, w0
kprintf():
/home/jayanth/quemu-v8/source/optee_os/lib/libutils/ext/snprintk.c:429
    1ea0:	f9404fec 	ldr	x12, [sp, #152]
/home/jayanth/quemu-v8/source/optee_os/lib/libutils/ext/snprintk.c:291
    1ea4:	52800006 	mov	w6, #0x0                   	// #0
/home/jayanth/quemu-v8/source/optee_os/lib/libutils/ext/snprintk.c:431
    1ea8:	b940a7ea 	ldr	w10, [sp, #164]
/home/jayanth/quemu-v8/source/optee_os/lib/libutils/ext/snprintk.c:430
    1eac:	52800001 	mov	w1, #0x0                   	// #0
/home/jayanth/quemu-v8/source/optee_os/lib/libutils/ext/snprintk.c:431
    1eb0:	f94057e8 	ldr	x8, [sp, #168]
/home/jayanth/quemu-v8/source/optee_os/lib/libutils/ext/snprintk.c:429
    1eb4:	aa0c03e3 	mov	x3, x12
/home/jayanth/quemu-v8/source/optee_os/lib/libutils/ext/snprintk.c:571
    1eb8:	6b0500df 	cmp	w6, w5
    1ebc:	1a85a0c4 	csel	w4, w6, w5, ge  // ge = tcont
/home/jayanth/quemu-v8/source/optee_os/lib/libutils/ext/snprintk.c:572
    1ec0:	340020e1 	cbz	w1, 22dc <kprintf.constprop.0+0xae4>
/home/jayanth/quemu-v8/source/optee_os/lib/libutils/ext/snprintk.c:573
    1ec4:	11000484 	add	w4, w4, #0x1
/home/jayanth/quemu-v8/source/optee_os/lib/libutils/ext/snprintk.c:578
    1ec8:	6b0a009f 	cmp	w4, w10
    1ecc:	1a8aa080 	csel	w0, w4, w10, ge  // ge = tcont
    1ed0:	0b000339 	add	w25, w25, w0
/home/jayanth/quemu-v8/source/optee_os/lib/libutils/ext/snprintk.c:581
    1ed4:	52808080 	mov	w0, #0x404                 	// #1028
    1ed8:	6a0002a0 	ands	w0, w21, w0
    1edc:	540000a1 	b.ne	1ef0 <kprintf.constprop.0+0x6f8>  // b.any
/home/jayanth/quemu-v8/source/optee_os/lib/libutils/ext/snprintk.c:582
    1ee0:	4b040147 	sub	w7, w10, w4
/home/jayanth/quemu-v8/source/optee_os/lib/libutils/ext/snprintk.c:584
    1ee4:	52800402 	mov	w2, #0x20                  	// #32
/home/jayanth/quemu-v8/source/optee_os/lib/libutils/ext/snprintk.c:583
    1ee8:	710000ff 	cmp	w7, #0x0
    1eec:	54001fec 	b.gt	22e8 <kprintf.constprop.0+0xaf0>
/home/jayanth/quemu-v8/source/optee_os/lib/libutils/ext/snprintk.c:588
    1ef0:	340020a1 	cbz	w1, 2304 <kprintf.constprop.0+0xb0c>
/home/jayanth/quemu-v8/source/optee_os/lib/libutils/ext/snprintk.c:589
    1ef4:	b40000b6 	cbz	x22, 1f08 <kprintf.constprop.0+0x710>
    1ef8:	f100011f 	cmp	x8, #0x0
    1efc:	fa561302 	ccmp	x24, x22, #0x2, ne  // ne = any
    1f00:	54000049 	b.ls	1f08 <kprintf.constprop.0+0x710>  // b.plast
    1f04:	380016c1 	strb	w1, [x22], #1
/home/jayanth/quemu-v8/source/optee_os/lib/libutils/ext/snprintk.c:596
    1f08:	7110001f 	cmp	w0, #0x400
    1f0c:	540000a1 	b.ne	1f20 <kprintf.constprop.0+0x728>  // b.any
/home/jayanth/quemu-v8/source/optee_os/lib/libutils/ext/snprintk.c:597
    1f10:	4b040140 	sub	w0, w10, w4
/home/jayanth/quemu-v8/source/optee_os/lib/libutils/ext/snprintk.c:599
    1f14:	52800601 	mov	w1, #0x30                  	// #48
/home/jayanth/quemu-v8/source/optee_os/lib/libutils/ext/snprintk.c:598
    1f18:	7100001f 	cmp	w0, #0x0
    1f1c:	5400218c 	b.gt	234c <kprintf.constprop.0+0xb54>
/home/jayanth/quemu-v8/source/optee_os/lib/libutils/ext/snprintk.c:603
    1f20:	4b0500c6 	sub	w6, w6, w5
/home/jayanth/quemu-v8/source/optee_os/lib/libutils/ext/snprintk.c:605
    1f24:	52800600 	mov	w0, #0x30                  	// #48
/home/jayanth/quemu-v8/source/optee_os/lib/libutils/ext/snprintk.c:604
    1f28:	710000df 	cmp	w6, #0x0
    1f2c:	540021ec 	b.gt	2368 <kprintf.constprop.0+0xb70>
    1f30:	2a0503e5 	mov	w5, w5
    1f34:	d2800001 	mov	x1, #0x0                   	// #0
/home/jayanth/quemu-v8/source/optee_os/lib/libutils/ext/snprintk.c:608
    1f38:	eb05003f 	cmp	x1, x5
    1f3c:	54002241 	b.ne	2384 <kprintf.constprop.0+0xb8c>  // b.any
/home/jayanth/quemu-v8/source/optee_os/lib/libutils/ext/snprintk.c:611
    1f40:	3617c8b5 	tbz	w21, #2, 1854 <kprintf.constprop.0+0x5c>
/home/jayanth/quemu-v8/source/optee_os/lib/libutils/ext/snprintk.c:612
    1f44:	4b04014a 	sub	w10, w10, w4
/home/jayanth/quemu-v8/source/optee_os/lib/libutils/ext/snprintk.c:614
    1f48:	52800400 	mov	w0, #0x20                  	// #32
/home/jayanth/quemu-v8/source/optee_os/lib/libutils/ext/snprintk.c:613
    1f4c:	7100015f 	cmp	w10, #0x0
    1f50:	54ffc82d 	b.le	1854 <kprintf.constprop.0+0x5c>
/home/jayanth/quemu-v8/source/optee_os/lib/libutils/ext/snprintk.c:614
    1f54:	b40000b6 	cbz	x22, 1f68 <kprintf.constprop.0+0x770>
    1f58:	f100011f 	cmp	x8, #0x0
    1f5c:	fa561302 	ccmp	x24, x22, #0x2, ne  // ne = any
    1f60:	54000049 	b.ls	1f68 <kprintf.constprop.0+0x770>  // b.plast
    1f64:	380016c0 	strb	w0, [x22], #1
    1f68:	5100054a 	sub	w10, w10, #0x1
    1f6c:	17fffff8 	b	1f4c <kprintf.constprop.0+0x754>
/home/jayanth/quemu-v8/source/optee_os/lib/libutils/ext/snprintk.c:427
    1f70:	11002094 	add	w20, w4, #0x8
    1f74:	7100029f 	cmp	w20, #0x0
    1f78:	5400008d 	b.le	1f88 <kprintf.constprop.0+0x790>
    1f7c:	91003c73 	add	x19, x3, #0xf
    1f80:	927df273 	and	x19, x19, #0xfffffffffffffff8
    1f84:	17ffffac 	b	1e34 <kprintf.constprop.0+0x63c>
    1f88:	aa0303f3 	mov	x19, x3
    1f8c:	8b24c343 	add	x3, x26, w4, sxtw
    1f90:	17ffffa9 	b	1e34 <kprintf.constprop.0+0x63c>
/home/jayanth/quemu-v8/source/optee_os/lib/libutils/ext/snprintk.c:441
    1f94:	37f801e4 	tbnz	w4, #31, 1fd0 <kprintf.constprop.0+0x7d8>
    1f98:	91003c73 	add	x19, x3, #0xf
    1f9c:	2a0403f4 	mov	w20, w4
    1fa0:	927df273 	and	x19, x19, #0xfffffffffffffff8
/home/jayanth/quemu-v8/source/optee_os/lib/libutils/ext/snprintk.c:443
    1fa4:	d0000057 	adrp	x23, b000 <__text_end+0x1788>
    1fa8:	911f3af7 	add	x23, x23, #0x7ce
/home/jayanth/quemu-v8/source/optee_os/lib/libutils/ext/snprintk.c:441
    1fac:	f9400062 	ldr	x2, [x3]
/home/jayanth/quemu-v8/source/optee_os/lib/libutils/ext/snprintk.c:444
    1fb0:	321f02b5 	orr	w21, w21, #0x2
/home/jayanth/quemu-v8/source/optee_os/lib/libutils/ext/snprintk.c:443
    1fb4:	910046f7 	add	x23, x23, #0x11
/home/jayanth/quemu-v8/source/optee_os/lib/libutils/ext/snprintk.c:445
    1fb8:	52800f1c 	mov	w28, #0x78                  	// #120
/home/jayanth/quemu-v8/source/optee_os/lib/libutils/ext/snprintk.c:494
    1fbc:	310004bf 	cmn	w5, #0x1
    1fc0:	52800001 	mov	w1, #0x0                   	// #0
    1fc4:	54ffdbc0 	b.eq	1b3c <kprintf.constprop.0+0x344>  // b.none
    1fc8:	52800040 	mov	w0, #0x2                   	// #2
    1fcc:	140000a8 	b	226c <kprintf.constprop.0+0xa74>
/home/jayanth/quemu-v8/source/optee_os/lib/libutils/ext/snprintk.c:441
    1fd0:	11002094 	add	w20, w4, #0x8
    1fd4:	7100029f 	cmp	w20, #0x0
    1fd8:	5400008d 	b.le	1fe8 <kprintf.constprop.0+0x7f0>
    1fdc:	91003c73 	add	x19, x3, #0xf
    1fe0:	927df273 	and	x19, x19, #0xfffffffffffffff8
    1fe4:	17fffff0 	b	1fa4 <kprintf.constprop.0+0x7ac>
    1fe8:	aa0303f3 	mov	x19, x3
    1fec:	8b24c343 	add	x3, x26, w4, sxtw
    1ff0:	17ffffed 	b	1fa4 <kprintf.constprop.0+0x7ac>
/home/jayanth/quemu-v8/source/optee_os/lib/libutils/ext/snprintk.c:448
    1ff4:	37f80364 	tbnz	w4, #31, 2060 <kprintf.constprop.0+0x868>
    1ff8:	91003c73 	add	x19, x3, #0xf
    1ffc:	2a0403f4 	mov	w20, w4
    2000:	927df273 	and	x19, x19, #0xfffffffffffffff8
    2004:	f9400063 	ldr	x3, [x3]
    2008:	b5000063 	cbnz	x3, 2014 <kprintf.constprop.0+0x81c>
/home/jayanth/quemu-v8/source/optee_os/lib/libutils/ext/snprintk.c:450
    200c:	d0000043 	adrp	x3, c000 <__func__.4194+0x3e3>
    2010:	91022c63 	add	x3, x3, #0x8b
/home/jayanth/quemu-v8/source/optee_os/lib/libutils/ext/snprintk.c:451
    2014:	310004bf 	cmn	w5, #0x1
    2018:	54000360 	b.eq	2084 <kprintf.constprop.0+0x88c>  // b.none
/home/jayanth/quemu-v8/source/optee_os/lib/libutils/ext/snprintk.c:457
    201c:	93407ca2 	sxtw	x2, w5
    2020:	aa0303e0 	mov	x0, x3
    2024:	52800001 	mov	w1, #0x0                   	// #0
    2028:	f9004fe3 	str	x3, [sp, #152]
    202c:	2914abe5 	stp	w5, w10, [sp, #164]
    2030:	a90b33e8 	stp	x8, x12, [sp, #176]
    2034:	940000ef 	bl	23f0 <memchr>
/home/jayanth/quemu-v8/source/optee_os/lib/libutils/ext/snprintk.c:459
    2038:	2954abe5 	ldp	w5, w10, [sp, #164]
    203c:	f9404fe3 	ldr	x3, [sp, #152]
    2040:	a94b33e8 	ldp	x8, x12, [sp, #176]
    2044:	b4000080 	cbz	x0, 2054 <kprintf.constprop.0+0x85c>
/home/jayanth/quemu-v8/source/optee_os/lib/libutils/ext/snprintk.c:460
    2048:	cb030000 	sub	x0, x0, x3
    204c:	6b0000bf 	cmp	w5, w0
    2050:	1a80d0a5 	csel	w5, w5, w0, le
/home/jayanth/quemu-v8/source/optee_os/lib/libutils/ext/snprintk.c:291
    2054:	52800006 	mov	w6, #0x0                   	// #0
/home/jayanth/quemu-v8/source/optee_os/lib/libutils/ext/snprintk.c:467
    2058:	52800001 	mov	w1, #0x0                   	// #0
    205c:	17ffff97 	b	1eb8 <kprintf.constprop.0+0x6c0>
/home/jayanth/quemu-v8/source/optee_os/lib/libutils/ext/snprintk.c:448
    2060:	11002094 	add	w20, w4, #0x8
    2064:	7100029f 	cmp	w20, #0x0
    2068:	5400008d 	b.le	2078 <kprintf.constprop.0+0x880>
    206c:	91003c73 	add	x19, x3, #0xf
    2070:	927df273 	and	x19, x19, #0xfffffffffffffff8
    2074:	17ffffe4 	b	2004 <kprintf.constprop.0+0x80c>
    2078:	aa0303f3 	mov	x19, x3
    207c:	8b24c343 	add	x3, x26, w4, sxtw
    2080:	17ffffe1 	b	2004 <kprintf.constprop.0+0x80c>
/home/jayanth/quemu-v8/source/optee_os/lib/libutils/ext/snprintk.c:466
    2084:	aa0303e0 	mov	x0, x3
    2088:	f9004fe3 	str	x3, [sp, #152]
    208c:	b900a7ea 	str	w10, [sp, #164]
    2090:	a90ab3e8 	stp	x8, x12, [sp, #168]
    2094:	97fffcd8 	bl	13f4 <strlen>
    2098:	b940a7ea 	ldr	w10, [sp, #164]
    209c:	2a0003e5 	mov	w5, w0
/home/jayanth/quemu-v8/source/optee_os/lib/libutils/ext/snprintk.c:291
    20a0:	52800006 	mov	w6, #0x0                   	// #0
/home/jayanth/quemu-v8/source/optee_os/lib/libutils/ext/snprintk.c:467
    20a4:	52800001 	mov	w1, #0x0                   	// #0
    20a8:	f9404fe3 	ldr	x3, [sp, #152]
    20ac:	a94ab3e8 	ldp	x8, x12, [sp, #168]
    20b0:	17ffff82 	b	1eb8 <kprintf.constprop.0+0x6c0>
/home/jayanth/quemu-v8/source/optee_os/lib/libutils/ext/snprintk.c:470
    20b4:	321c02b5 	orr	w21, w21, #0x10
/home/jayanth/quemu-v8/source/optee_os/lib/libutils/ext/snprintk.c:473
    20b8:	36380235 	tbz	w21, #7, 20fc <kprintf.constprop.0+0x904>
    20bc:	37f80364 	tbnz	w4, #31, 2128 <kprintf.constprop.0+0x930>
    20c0:	91003c73 	add	x19, x3, #0xf
    20c4:	2a0403f4 	mov	w20, w4
    20c8:	927df273 	and	x19, x19, #0xfffffffffffffff8
    20cc:	f9400062 	ldr	x2, [x3]
/home/jayanth/quemu-v8/source/optee_os/lib/libutils/ext/snprintk.c:488
    20d0:	52800001 	mov	w1, #0x0                   	// #0
/home/jayanth/quemu-v8/source/optee_os/lib/libutils/ext/snprintk.c:494
    20d4:	310004bf 	cmn	w5, #0x1
    20d8:	54000d81 	b.ne	2288 <kprintf.constprop.0+0xa90>  // b.any
/home/jayanth/quemu-v8/source/optee_os/lib/libutils/ext/snprintk.c:502
    20dc:	91009580 	add	x0, x12, #0x25
/home/jayanth/quemu-v8/source/optee_os/lib/libutils/ext/snprintk.c:523
    20e0:	d2800144 	mov	x4, #0xa                   	// #10
/home/jayanth/quemu-v8/source/optee_os/lib/libutils/ext/snprintk.c:522
    20e4:	d1000403 	sub	x3, x0, #0x1
    20e8:	f100245f 	cmp	x2, #0x9
    20ec:	54000d28 	b.hi	2290 <kprintf.constprop.0+0xa98>  // b.pmore
/home/jayanth/quemu-v8/source/optee_os/lib/libutils/ext/snprintk.c:526
    20f0:	1100c042 	add	w2, w2, #0x30
    20f4:	381ff002 	sturb	w2, [x0, #-1]
/home/jayanth/quemu-v8/source/optee_os/lib/libutils/ext/snprintk.c:527
    20f8:	17ffff12 	b	1d40 <kprintf.constprop.0+0x548>
/home/jayanth/quemu-v8/source/optee_os/lib/libutils/ext/snprintk.c:473
    20fc:	3747fe15 	tbnz	w21, #8, 20bc <kprintf.constprop.0+0x8c4>
    2100:	374ffdf5 	tbnz	w21, #9, 20bc <kprintf.constprop.0+0x8c4>
    2104:	372ffdd5 	tbnz	w21, #5, 20bc <kprintf.constprop.0+0x8c4>
    2108:	3727fdb5 	tbnz	w21, #4, 20bc <kprintf.constprop.0+0x8c4>
    210c:	36300335 	tbz	w21, #6, 2170 <kprintf.constprop.0+0x978>
    2110:	37f801e4 	tbnz	w4, #31, 214c <kprintf.constprop.0+0x954>
    2114:	91002c73 	add	x19, x3, #0xb
    2118:	2a0403f4 	mov	w20, w4
    211c:	927df273 	and	x19, x19, #0xfffffffffffffff8
    2120:	79400062 	ldrh	w2, [x3]
    2124:	17ffffeb 	b	20d0 <kprintf.constprop.0+0x8d8>
    2128:	11002094 	add	w20, w4, #0x8
    212c:	7100029f 	cmp	w20, #0x0
    2130:	5400008d 	b.le	2140 <kprintf.constprop.0+0x948>
    2134:	91003c73 	add	x19, x3, #0xf
    2138:	927df273 	and	x19, x19, #0xfffffffffffffff8
    213c:	17ffffe4 	b	20cc <kprintf.constprop.0+0x8d4>
    2140:	aa0303f3 	mov	x19, x3
    2144:	8b24c343 	add	x3, x26, w4, sxtw
    2148:	17ffffe1 	b	20cc <kprintf.constprop.0+0x8d4>
    214c:	11002094 	add	w20, w4, #0x8
    2150:	7100029f 	cmp	w20, #0x0
    2154:	5400008d 	b.le	2164 <kprintf.constprop.0+0x96c>
    2158:	91002c73 	add	x19, x3, #0xb
    215c:	927df273 	and	x19, x19, #0xfffffffffffffff8
    2160:	17fffff0 	b	2120 <kprintf.constprop.0+0x928>
    2164:	aa0303f3 	mov	x19, x3
    2168:	8b24c343 	add	x3, x26, w4, sxtw
    216c:	17ffffed 	b	2120 <kprintf.constprop.0+0x928>
    2170:	37f800c4 	tbnz	w4, #31, 2188 <kprintf.constprop.0+0x990>
    2174:	91002c73 	add	x19, x3, #0xb
    2178:	2a0403f4 	mov	w20, w4
    217c:	927df273 	and	x19, x19, #0xfffffffffffffff8
    2180:	b9400062 	ldr	w2, [x3]
    2184:	17ffffd3 	b	20d0 <kprintf.constprop.0+0x8d8>
    2188:	11002094 	add	w20, w4, #0x8
    218c:	7100029f 	cmp	w20, #0x0
    2190:	5400008d 	b.le	21a0 <kprintf.constprop.0+0x9a8>
    2194:	91002c73 	add	x19, x3, #0xb
    2198:	927df273 	and	x19, x19, #0xfffffffffffffff8
    219c:	17fffff9 	b	2180 <kprintf.constprop.0+0x988>
    21a0:	aa0303f3 	mov	x19, x3
    21a4:	8b24c343 	add	x3, x26, w4, sxtw
    21a8:	17fffff6 	b	2180 <kprintf.constprop.0+0x988>
/home/jayanth/quemu-v8/source/optee_os/lib/libutils/ext/snprintk.c:477
    21ac:	b0000057 	adrp	x23, b000 <__text_end+0x1788>
    21b0:	911f3af7 	add	x23, x23, #0x7ce
    21b4:	17fffdd9 	b	1918 <kprintf.constprop.0+0x120>
/home/jayanth/quemu-v8/source/optee_os/lib/libutils/ext/snprintk.c:481
    21b8:	3747bb35 	tbnz	w21, #8, 191c <kprintf.constprop.0+0x124>
    21bc:	374fbb15 	tbnz	w21, #9, 191c <kprintf.constprop.0+0x124>
    21c0:	372fbaf5 	tbnz	w21, #5, 191c <kprintf.constprop.0+0x124>
    21c4:	3727bad5 	tbnz	w21, #4, 191c <kprintf.constprop.0+0x124>
    21c8:	36300335 	tbz	w21, #6, 222c <kprintf.constprop.0+0xa34>
    21cc:	37f801e4 	tbnz	w4, #31, 2208 <kprintf.constprop.0+0xa10>
    21d0:	91002c73 	add	x19, x3, #0xb
    21d4:	2a0403f4 	mov	w20, w4
    21d8:	927df273 	and	x19, x19, #0xfffffffffffffff8
    21dc:	79400062 	ldrh	w2, [x3]
    21e0:	17fffdd4 	b	1930 <kprintf.constprop.0+0x138>
    21e4:	11002094 	add	w20, w4, #0x8
    21e8:	7100029f 	cmp	w20, #0x0
    21ec:	5400008d 	b.le	21fc <kprintf.constprop.0+0xa04>
    21f0:	91003c73 	add	x19, x3, #0xf
    21f4:	927df273 	and	x19, x19, #0xfffffffffffffff8
    21f8:	17fffdcd 	b	192c <kprintf.constprop.0+0x134>
    21fc:	aa0303f3 	mov	x19, x3
    2200:	8b24c343 	add	x3, x26, w4, sxtw
    2204:	17fffdca 	b	192c <kprintf.constprop.0+0x134>
    2208:	11002094 	add	w20, w4, #0x8
    220c:	7100029f 	cmp	w20, #0x0
    2210:	5400008d 	b.le	2220 <kprintf.constprop.0+0xa28>
    2214:	91002c73 	add	x19, x3, #0xb
    2218:	927df273 	and	x19, x19, #0xfffffffffffffff8
    221c:	17fffff0 	b	21dc <kprintf.constprop.0+0x9e4>
    2220:	aa0303f3 	mov	x19, x3
    2224:	8b24c343 	add	x3, x26, w4, sxtw
    2228:	17ffffed 	b	21dc <kprintf.constprop.0+0x9e4>
    222c:	37f800c4 	tbnz	w4, #31, 2244 <kprintf.constprop.0+0xa4c>
    2230:	91002c73 	add	x19, x3, #0xb
    2234:	2a0403f4 	mov	w20, w4
    2238:	927df273 	and	x19, x19, #0xfffffffffffffff8
    223c:	b9400062 	ldr	w2, [x3]
    2240:	17fffdbc 	b	1930 <kprintf.constprop.0+0x138>
    2244:	11002094 	add	w20, w4, #0x8
    2248:	7100029f 	cmp	w20, #0x0
    224c:	5400008d 	b.le	225c <kprintf.constprop.0+0xa64>
    2250:	91002c73 	add	x19, x3, #0xb
    2254:	927df273 	and	x19, x19, #0xfffffffffffffff8
    2258:	17fffff9 	b	223c <kprintf.constprop.0+0xa44>
    225c:	aa0303f3 	mov	x19, x3
    2260:	8b24c343 	add	x3, x26, w4, sxtw
    2264:	17fffff6 	b	223c <kprintf.constprop.0+0xa44>
/home/jayanth/quemu-v8/source/optee_os/lib/libutils/ext/snprintk.c:494
    2268:	52800000 	mov	w0, #0x0                   	// #0
/home/jayanth/quemu-v8/source/optee_os/lib/libutils/ext/snprintk.c:503
    226c:	f100005f 	cmp	x2, #0x0
/home/jayanth/quemu-v8/source/optee_os/lib/libutils/ext/snprintk.c:495
    2270:	12157ab5 	and	w21, w21, #0xfffffbff
/home/jayanth/quemu-v8/source/optee_os/lib/libutils/ext/snprintk.c:503
    2274:	7a4008a0 	ccmp	w5, #0x0, #0x0, eq  // eq = none
    2278:	54ffc5a1 	b.ne	1b2c <kprintf.constprop.0+0x334>  // b.any
/home/jayanth/quemu-v8/source/optee_os/lib/libutils/ext/snprintk.c:502
    227c:	91009583 	add	x3, x12, #0x25
/home/jayanth/quemu-v8/source/optee_os/lib/libutils/ext/snprintk.c:542
    2280:	52800005 	mov	w5, #0x0                   	// #0
    2284:	17fffeaf 	b	1d40 <kprintf.constprop.0+0x548>
/home/jayanth/quemu-v8/source/optee_os/lib/libutils/ext/snprintk.c:494
    2288:	52800020 	mov	w0, #0x1                   	// #1
    228c:	17fffff8 	b	226c <kprintf.constprop.0+0xa74>
/home/jayanth/quemu-v8/source/optee_os/lib/libutils/ext/snprintk.c:523
    2290:	9ac40846 	udiv	x6, x2, x4
    2294:	9b0488c2 	msub	x2, x6, x4, x2
    2298:	1100c042 	add	w2, w2, #0x30
    229c:	381ff002 	sturb	w2, [x0, #-1]
/home/jayanth/quemu-v8/source/optee_os/lib/libutils/ext/snprintk.c:524
    22a0:	aa0603e2 	mov	x2, x6
    22a4:	aa0303e0 	mov	x0, x3
    22a8:	17ffff8f 	b	20e4 <kprintf.constprop.0+0x8ec>
/home/jayanth/quemu-v8/source/optee_os/lib/libutils/ext/snprintk.c:547
    22ac:	35ffb55c 	cbnz	w28, 1954 <kprintf.constprop.0+0x15c>
/home/jayanth/quemu-v8/source/optee_os/lib/libutils/ext/snprintk.c:619
    22b0:	b4000048 	cbz	x8, 22b8 <kprintf.constprop.0+0xac0>
/home/jayanth/quemu-v8/source/optee_os/lib/libutils/ext/snprintk.c:620
    22b4:	f9000116 	str	x22, [x8]
/home/jayanth/quemu-v8/source/optee_os/lib/libutils/ext/snprintk.c:622
    22b8:	2a1903e0 	mov	w0, w25
    22bc:	a9437bfd 	ldp	x29, x30, [sp, #48]
    22c0:	a94453f3 	ldp	x19, x20, [sp, #64]
    22c4:	a9455bf5 	ldp	x21, x22, [sp, #80]
    22c8:	a94663f7 	ldp	x23, x24, [sp, #96]
    22cc:	a9476bf9 	ldp	x25, x26, [sp, #112]
    22d0:	a94873fb 	ldp	x27, x28, [sp, #128]
    22d4:	9103c3ff 	add	sp, sp, #0xf0
    22d8:	d65f03c0 	ret
/home/jayanth/quemu-v8/source/optee_os/lib/libutils/ext/snprintk.c:574
    22dc:	360fdf75 	tbz	w21, #1, 1ec8 <kprintf.constprop.0+0x6d0>
/home/jayanth/quemu-v8/source/optee_os/lib/libutils/ext/snprintk.c:575
    22e0:	11000884 	add	w4, w4, #0x2
    22e4:	17fffef9 	b	1ec8 <kprintf.constprop.0+0x6d0>
/home/jayanth/quemu-v8/source/optee_os/lib/libutils/ext/snprintk.c:584
    22e8:	b40000b6 	cbz	x22, 22fc <kprintf.constprop.0+0xb04>
    22ec:	f100011f 	cmp	x8, #0x0
    22f0:	fa561302 	ccmp	x24, x22, #0x2, ne  // ne = any
    22f4:	54000049 	b.ls	22fc <kprintf.constprop.0+0xb04>  // b.plast
    22f8:	380016c2 	strb	w2, [x22], #1
    22fc:	510004e7 	sub	w7, w7, #0x1
    2300:	17fffefa 	b	1ee8 <kprintf.constprop.0+0x6f0>
/home/jayanth/quemu-v8/source/optee_os/lib/libutils/ext/snprintk.c:590
    2304:	360fe035 	tbz	w21, #1, 1f08 <kprintf.constprop.0+0x710>
/home/jayanth/quemu-v8/source/optee_os/lib/libutils/ext/snprintk.c:591
    2308:	b4ffe016 	cbz	x22, 1f08 <kprintf.constprop.0+0x710>
    230c:	f100011f 	cmp	x8, #0x0
    2310:	1a9f17e2 	cset	w2, eq  // eq = none
    2314:	7100005f 	cmp	w2, #0x0
    2318:	fa560302 	ccmp	x24, x22, #0x2, eq  // eq = none
    231c:	54ffdf69 	b.ls	1f08 <kprintf.constprop.0+0x710>  // b.plast
    2320:	aa1603e1 	mov	x1, x22
    2324:	52800607 	mov	w7, #0x30                  	// #48
/home/jayanth/quemu-v8/source/optee_os/lib/libutils/ext/snprintk.c:592
    2328:	7100005f 	cmp	w2, #0x0
/home/jayanth/quemu-v8/source/optee_os/lib/libutils/ext/snprintk.c:591
    232c:	38001427 	strb	w7, [x1], #1
/home/jayanth/quemu-v8/source/optee_os/lib/libutils/ext/snprintk.c:592
    2330:	fa410302 	ccmp	x24, x1, #0x2, eq  // eq = none
    2334:	54000089 	b.ls	2344 <kprintf.constprop.0+0xb4c>  // b.plast
    2338:	91000ad6 	add	x22, x22, #0x2
    233c:	381ff2dc 	sturb	w28, [x22, #-1]
    2340:	17fffef2 	b	1f08 <kprintf.constprop.0+0x710>
    2344:	aa0103f6 	mov	x22, x1
    2348:	17fffef0 	b	1f08 <kprintf.constprop.0+0x710>
/home/jayanth/quemu-v8/source/optee_os/lib/libutils/ext/snprintk.c:599
    234c:	b40000b6 	cbz	x22, 2360 <kprintf.constprop.0+0xb68>
    2350:	f100011f 	cmp	x8, #0x0
    2354:	fa561302 	ccmp	x24, x22, #0x2, ne  // ne = any
    2358:	54000049 	b.ls	2360 <kprintf.constprop.0+0xb68>  // b.plast
    235c:	380016c1 	strb	w1, [x22], #1
    2360:	51000400 	sub	w0, w0, #0x1
    2364:	17fffeed 	b	1f18 <kprintf.constprop.0+0x720>
/home/jayanth/quemu-v8/source/optee_os/lib/libutils/ext/snprintk.c:605
    2368:	b40000b6 	cbz	x22, 237c <kprintf.constprop.0+0xb84>
    236c:	f100011f 	cmp	x8, #0x0
    2370:	fa561302 	ccmp	x24, x22, #0x2, ne  // ne = any
    2374:	54000049 	b.ls	237c <kprintf.constprop.0+0xb84>  // b.plast
    2378:	380016c0 	strb	w0, [x22], #1
    237c:	510004c6 	sub	w6, w6, #0x1
    2380:	17fffeea 	b	1f28 <kprintf.constprop.0+0x730>
/home/jayanth/quemu-v8/source/optee_os/lib/libutils/ext/snprintk.c:609
    2384:	b40000d6 	cbz	x22, 239c <kprintf.constprop.0+0xba4>
    2388:	f100011f 	cmp	x8, #0x0
    238c:	fa561302 	ccmp	x24, x22, #0x2, ne  // ne = any
    2390:	54000069 	b.ls	239c <kprintf.constprop.0+0xba4>  // b.plast
    2394:	38616860 	ldrb	w0, [x3, x1]
    2398:	380016c0 	strb	w0, [x22], #1
/home/jayanth/quemu-v8/source/optee_os/lib/libutils/ext/snprintk.c:608
    239c:	91000421 	add	x1, x1, #0x1
    23a0:	17fffee6 	b	1f38 <kprintf.constprop.0+0x740>

00000000000023a4 <__vsprintf>:
__vsprintf():
/home/jayanth/quemu-v8/source/optee_os/lib/libutils/ext/snprintk.c:155
    23a4:	a9bc7bfd 	stp	x29, x30, [sp, #-64]!
/home/jayanth/quemu-v8/source/optee_os/lib/libutils/ext/snprintk.c:156
    23a8:	910083e3 	add	x3, sp, #0x20
/home/jayanth/quemu-v8/source/optee_os/lib/libutils/ext/snprintk.c:155
    23ac:	910003fd 	mov	x29, sp
    23b0:	a90153f3 	stp	x19, x20, [sp, #16]
    23b4:	aa0003f4 	mov	x20, x0
    23b8:	aa0103f3 	mov	x19, x1
/home/jayanth/quemu-v8/source/optee_os/lib/libutils/ext/snprintk.c:156
    23bc:	aa0303e0 	mov	x0, x3
/home/jayanth/quemu-v8/source/optee_os/lib/libutils/ext/snprintk.c:155
    23c0:	aa0203e1 	mov	x1, x2
/home/jayanth/quemu-v8/source/optee_os/lib/libutils/ext/snprintk.c:156
    23c4:	d2800402 	mov	x2, #0x20                  	// #32
    23c8:	97fff716 	bl	20 <memcpy>
    23cc:	aa1403e2 	mov	x2, x20
    23d0:	aa0003e3 	mov	x3, x0
    23d4:	52800004 	mov	w4, #0x0                   	// #0
    23d8:	aa1303e0 	mov	x0, x19
    23dc:	d2800001 	mov	x1, #0x0                   	// #0
    23e0:	97fffd06 	bl	17f8 <kprintf.constprop.0>
/home/jayanth/quemu-v8/source/optee_os/lib/libutils/ext/snprintk.c:157
    23e4:	a94153f3 	ldp	x19, x20, [sp, #16]
    23e8:	a8c47bfd 	ldp	x29, x30, [sp], #64
    23ec:	d65f03c0 	ret

00000000000023f0 <memchr>:
memchr():
/home/jayanth/quemu-v8/source/optee_os/lib/libutils/isoc/newlib/memchr.c:109
    23f0:	12001c21 	and	w1, w1, #0xff
/home/jayanth/quemu-v8/source/optee_os/lib/libutils/isoc/newlib/memchr.c:153
    23f4:	8b020002 	add	x2, x0, x2
    23f8:	eb02001f 	cmp	x0, x2
    23fc:	54000061 	b.ne	2408 <memchr+0x18>  // b.any
/home/jayanth/quemu-v8/source/optee_os/lib/libutils/isoc/newlib/memchr.c:159
    2400:	d2800000 	mov	x0, #0x0                   	// #0
/home/jayanth/quemu-v8/source/optee_os/lib/libutils/isoc/newlib/memchr.c:160
    2404:	d65f03c0 	ret
/home/jayanth/quemu-v8/source/optee_os/lib/libutils/isoc/newlib/memchr.c:154
    2408:	39400003 	ldrb	w3, [x0]
    240c:	6b01007f 	cmp	w3, w1
    2410:	54ffffa0 	b.eq	2404 <memchr+0x14>  // b.none
/home/jayanth/quemu-v8/source/optee_os/lib/libutils/isoc/newlib/memchr.c:156
    2414:	91000400 	add	x0, x0, #0x1
    2418:	17fffff8 	b	23f8 <memchr+0x8>

000000000000241c <_assert_log>:
_assert_log():
/home/jayanth/quemu-v8/source/optee_os/lib/libutee/assert.c:17
    241c:	d10083ff 	sub	sp, sp, #0x20
/home/jayanth/quemu-v8/source/optee_os/lib/libutee/assert.c:18
    2420:	2a0203e7 	mov	w7, w2
    2424:	aa0103e6 	mov	x6, x1
    2428:	aa0003e5 	mov	x5, x0
    242c:	52800022 	mov	w2, #0x1                   	// #1
    2430:	52800001 	mov	w1, #0x0                   	// #0
/home/jayanth/quemu-v8/source/optee_os/lib/libutee/assert.c:17
    2434:	a9017bfd 	stp	x29, x30, [sp, #16]
    2438:	910043fd 	add	x29, sp, #0x10
/home/jayanth/quemu-v8/source/optee_os/lib/libutee/assert.c:18
    243c:	d2800000 	mov	x0, #0x0                   	// #0
    2440:	d0000044 	adrp	x4, c000 <__func__.4194+0x3e3>
    2444:	f90003e3 	str	x3, [sp]
    2448:	91030c84 	add	x4, x4, #0xc3
    244c:	52800023 	mov	w3, #0x1                   	// #1
    2450:	97fffc77 	bl	162c <trace_printf>
/home/jayanth/quemu-v8/source/optee_os/lib/libutee/assert.c:20
    2454:	a9417bfd 	ldp	x29, x30, [sp, #16]
    2458:	910083ff 	add	sp, sp, #0x20
    245c:	d65f03c0 	ret

0000000000002460 <_assert_break>:
_assert_break():
/home/jayanth/quemu-v8/source/optee_os/lib/libutee/assert.c:23
    2460:	a9bf7bfd 	stp	x29, x30, [sp, #-16]!
/home/jayanth/quemu-v8/source/optee_os/lib/libutee/assert.c:24
    2464:	d2bfffe0 	mov	x0, #0xffff0000            	// #4294901760
/home/jayanth/quemu-v8/source/optee_os/lib/libutee/assert.c:23
    2468:	910003fd 	mov	x29, sp
/home/jayanth/quemu-v8/source/optee_os/lib/libutee/assert.c:24
    246c:	94000360 	bl	31ec <_utee_panic>
/home/jayanth/quemu-v8/source/optee_os/lib/libutee/assert.c:26 (discriminator 1)
    2470:	14000000 	b	2470 <_assert_break+0x10>

0000000000002474 <parse_hex>:
parse_hex():
/home/jayanth/quemu-v8/source/optee_os/lib/libutee/tee_uuid_from_str.c:24
    2474:	a9bc7bfd 	stp	x29, x30, [sp, #-64]!
    2478:	910003fd 	mov	x29, sp
    247c:	a90153f3 	stp	x19, x20, [sp, #16]
    2480:	aa0003f3 	mov	x19, x0
    2484:	a9025bf5 	stp	x21, x22, [sp, #32]
    2488:	aa0203f5 	mov	x21, x2
/home/jayanth/quemu-v8/source/optee_os/lib/libutee/tee_uuid_from_str.c:25
    248c:	52800016 	mov	w22, #0x0                   	// #0
/home/jayanth/quemu-v8/source/optee_os/lib/libutee/tee_uuid_from_str.c:24
    2490:	f9001bf7 	str	x23, [sp, #48]
    2494:	8b010017 	add	x23, x0, x1
hex():
/home/jayanth/quemu-v8/source/optee_os/lib/libutee/tee_uuid_from_str.c:14
    2498:	39400260 	ldrb	w0, [x19]
    249c:	94001c4b 	bl	95c8 <tolower>
/home/jayanth/quemu-v8/source/optee_os/lib/libutee/tee_uuid_from_str.c:16
    24a0:	12001c14 	and	w20, w0, #0xff
    24a4:	5100c280 	sub	w0, w20, #0x30
    24a8:	7100241f 	cmp	w0, #0x9
    24ac:	540001e9 	b.ls	24e8 <parse_hex+0x74>  // b.plast
/home/jayanth/quemu-v8/source/optee_os/lib/libutee/tee_uuid_from_str.c:18
    24b0:	2a1403e0 	mov	w0, w20
    24b4:	94001c07 	bl	94d0 <isxdigit>
    24b8:	35000120 	cbnz	w0, 24dc <parse_hex+0x68>
parse_hex():
/home/jayanth/quemu-v8/source/optee_os/lib/libutee/tee_uuid_from_str.c:32
    24bc:	129fff40 	mov	w0, #0xffff0005            	// #-65531
    24c0:	b90002a0 	str	w0, [x21]
/home/jayanth/quemu-v8/source/optee_os/lib/libutee/tee_uuid_from_str.c:40
    24c4:	2a1603e0 	mov	w0, w22
    24c8:	a94153f3 	ldp	x19, x20, [sp, #16]
    24cc:	a9425bf5 	ldp	x21, x22, [sp, #32]
    24d0:	f9401bf7 	ldr	x23, [sp, #48]
    24d4:	a8c47bfd 	ldp	x29, x30, [sp], #64
    24d8:	d65f03c0 	ret
hex():
/home/jayanth/quemu-v8/source/optee_os/lib/libutee/tee_uuid_from_str.c:19
    24dc:	51015e80 	sub	w0, w20, #0x57
parse_hex():
/home/jayanth/quemu-v8/source/optee_os/lib/libutee/tee_uuid_from_str.c:31
    24e0:	71015a9f 	cmp	w20, #0x56
    24e4:	54fffec0 	b.eq	24bc <parse_hex+0x48>  // b.none
/home/jayanth/quemu-v8/source/optee_os/lib/libutee/tee_uuid_from_str.c:35 (discriminator 2)
    24e8:	91000673 	add	x19, x19, #0x1
    24ec:	0b161016 	add	w22, w0, w22, lsl #4
/home/jayanth/quemu-v8/source/optee_os/lib/libutee/tee_uuid_from_str.c:29 (discriminator 2)
    24f0:	eb1302ff 	cmp	x23, x19
    24f4:	54fffd21 	b.ne	2498 <parse_hex+0x24>  // b.any
/home/jayanth/quemu-v8/source/optee_os/lib/libutee/tee_uuid_from_str.c:37
    24f8:	b90002bf 	str	wzr, [x21]
/home/jayanth/quemu-v8/source/optee_os/lib/libutee/tee_uuid_from_str.c:39
    24fc:	17fffff2 	b	24c4 <parse_hex+0x50>

0000000000002500 <tee_uuid_from_str>:
tee_uuid_from_str():
/home/jayanth/quemu-v8/source/optee_os/lib/libutee/tee_uuid_from_str.c:43
    2500:	a9b97bfd 	stp	x29, x30, [sp, #-112]!
    2504:	910003fd 	mov	x29, sp
    2508:	a90153f3 	stp	x19, x20, [sp, #16]
    250c:	a9025bf5 	stp	x21, x22, [sp, #32]
    2510:	a90363f7 	stp	x23, x24, [sp, #48]
    2514:	a9046bf9 	stp	x25, x26, [sp, #64]
/home/jayanth/quemu-v8/source/optee_os/lib/libutee/tee_uuid_from_str.c:44
    2518:	b9005fff 	str	wzr, [sp, #92]
/home/jayanth/quemu-v8/source/optee_os/lib/libutee/tee_uuid_from_str.c:45
    251c:	a9067fff 	stp	xzr, xzr, [sp, #96]
/home/jayanth/quemu-v8/source/optee_os/lib/libutee/tee_uuid_from_str.c:49
    2520:	b4000941 	cbz	x1, 2648 <tee_uuid_from_str+0x148>
    2524:	aa0103f3 	mov	x19, x1
    2528:	aa0003f6 	mov	x22, x0
/home/jayanth/quemu-v8/source/optee_os/lib/libutee/tee_uuid_from_str.c:49 (discriminator 1)
    252c:	d28004a1 	mov	x1, #0x25                  	// #37
    2530:	aa1303e0 	mov	x0, x19
    2534:	94001c41 	bl	9638 <strnlen>
    2538:	f100901f 	cmp	x0, #0x24
    253c:	54000861 	b.ne	2648 <tee_uuid_from_str+0x148>  // b.any
/home/jayanth/quemu-v8/source/optee_os/lib/libutee/tee_uuid_from_str.c:51
    2540:	39402260 	ldrb	w0, [x19, #8]
    2544:	7100b41f 	cmp	w0, #0x2d
    2548:	54000801 	b.ne	2648 <tee_uuid_from_str+0x148>  // b.any
/home/jayanth/quemu-v8/source/optee_os/lib/libutee/tee_uuid_from_str.c:51 (discriminator 1)
    254c:	39403660 	ldrb	w0, [x19, #13]
    2550:	7100b41f 	cmp	w0, #0x2d
    2554:	540007a1 	b.ne	2648 <tee_uuid_from_str+0x148>  // b.any
/home/jayanth/quemu-v8/source/optee_os/lib/libutee/tee_uuid_from_str.c:51 (discriminator 2)
    2558:	39404a60 	ldrb	w0, [x19, #18]
    255c:	7100b41f 	cmp	w0, #0x2d
    2560:	54000741 	b.ne	2648 <tee_uuid_from_str+0x148>  // b.any
/home/jayanth/quemu-v8/source/optee_os/lib/libutee/tee_uuid_from_str.c:51 (discriminator 3)
    2564:	39405e60 	ldrb	w0, [x19, #23]
    2568:	7100b41f 	cmp	w0, #0x2d
    256c:	540006e1 	b.ne	2648 <tee_uuid_from_str+0x148>  // b.any
/home/jayanth/quemu-v8/source/optee_os/lib/libutee/tee_uuid_from_str.c:54
    2570:	910173f5 	add	x21, sp, #0x5c
    2574:	aa1303e0 	mov	x0, x19
    2578:	aa1503e2 	mov	x2, x21
    257c:	d2800101 	mov	x1, #0x8                   	// #8
    2580:	97ffffbd 	bl	2474 <parse_hex>
    2584:	2a0003f9 	mov	w25, w0
/home/jayanth/quemu-v8/source/optee_os/lib/libutee/tee_uuid_from_str.c:55
    2588:	b9405fe0 	ldr	w0, [sp, #92]
    258c:	35000500 	cbnz	w0, 262c <tee_uuid_from_str+0x12c>
/home/jayanth/quemu-v8/source/optee_os/lib/libutee/tee_uuid_from_str.c:58
    2590:	aa1503e2 	mov	x2, x21
    2594:	91002660 	add	x0, x19, #0x9
    2598:	d2800081 	mov	x1, #0x4                   	// #4
    259c:	97ffffb6 	bl	2474 <parse_hex>
    25a0:	2a0003f8 	mov	w24, w0
/home/jayanth/quemu-v8/source/optee_os/lib/libutee/tee_uuid_from_str.c:59
    25a4:	b9405fe0 	ldr	w0, [sp, #92]
    25a8:	35000420 	cbnz	w0, 262c <tee_uuid_from_str+0x12c>
/home/jayanth/quemu-v8/source/optee_os/lib/libutee/tee_uuid_from_str.c:62
    25ac:	aa1503e2 	mov	x2, x21
    25b0:	91003a60 	add	x0, x19, #0xe
    25b4:	d2800081 	mov	x1, #0x4                   	// #4
    25b8:	97ffffaf 	bl	2474 <parse_hex>
    25bc:	2a0003f7 	mov	w23, w0
/home/jayanth/quemu-v8/source/optee_os/lib/libutee/tee_uuid_from_str.c:63
    25c0:	b9405fe0 	ldr	w0, [sp, #92]
    25c4:	35000340 	cbnz	w0, 262c <tee_uuid_from_str+0x12c>
/home/jayanth/quemu-v8/source/optee_os/lib/libutee/tee_uuid_from_str.c:65
    25c8:	91004e73 	add	x19, x19, #0x13
/home/jayanth/quemu-v8/source/optee_os/lib/libutee/tee_uuid_from_str.c:67
    25cc:	910183fa 	add	x26, sp, #0x60
/home/jayanth/quemu-v8/source/optee_os/lib/libutee/tee_uuid_from_str.c:66
    25d0:	d2800014 	mov	x20, #0x0                   	// #0
/home/jayanth/quemu-v8/source/optee_os/lib/libutee/tee_uuid_from_str.c:67
    25d4:	d2800041 	mov	x1, #0x2                   	// #2
    25d8:	aa1503e2 	mov	x2, x21
    25dc:	aa1303e0 	mov	x0, x19
    25e0:	97ffffa5 	bl	2474 <parse_hex>
    25e4:	8b1a0281 	add	x1, x20, x26
    25e8:	39002020 	strb	w0, [x1, #8]
/home/jayanth/quemu-v8/source/optee_os/lib/libutee/tee_uuid_from_str.c:68
    25ec:	b9405fe0 	ldr	w0, [sp, #92]
    25f0:	350001e0 	cbnz	w0, 262c <tee_uuid_from_str+0x12c>
/home/jayanth/quemu-v8/source/optee_os/lib/libutee/tee_uuid_from_str.c:71
    25f4:	f100069f 	cmp	x20, #0x1
    25f8:	91000e60 	add	x0, x19, #0x3
/home/jayanth/quemu-v8/source/optee_os/lib/libutee/tee_uuid_from_str.c:66
    25fc:	91000694 	add	x20, x20, #0x1
/home/jayanth/quemu-v8/source/optee_os/lib/libutee/tee_uuid_from_str.c:71
    2600:	91000a73 	add	x19, x19, #0x2
    2604:	9a801273 	csel	x19, x19, x0, ne  // ne = any
/home/jayanth/quemu-v8/source/optee_os/lib/libutee/tee_uuid_from_str.c:66
    2608:	f100229f 	cmp	x20, #0x8
    260c:	54fffe41 	b.ne	25d4 <tee_uuid_from_str+0xd4>  // b.any
/home/jayanth/quemu-v8/source/optee_os/lib/libutee/tee_uuid_from_str.c:75
    2610:	aa1a03e1 	mov	x1, x26
    2614:	aa1603e0 	mov	x0, x22
    2618:	d2800202 	mov	x2, #0x10                  	// #16
    261c:	b90063f9 	str	w25, [sp, #96]
/home/jayanth/quemu-v8/source/optee_os/lib/libutee/tee_uuid_from_str.c:58
    2620:	7900cbf8 	strh	w24, [sp, #100]
/home/jayanth/quemu-v8/source/optee_os/lib/libutee/tee_uuid_from_str.c:62
    2624:	7900cff7 	strh	w23, [sp, #102]
/home/jayanth/quemu-v8/source/optee_os/lib/libutee/tee_uuid_from_str.c:75
    2628:	97fff67e 	bl	20 <memcpy>
/home/jayanth/quemu-v8/source/optee_os/lib/libutee/tee_uuid_from_str.c:77
    262c:	b9405fe0 	ldr	w0, [sp, #92]
/home/jayanth/quemu-v8/source/optee_os/lib/libutee/tee_uuid_from_str.c:78
    2630:	a94153f3 	ldp	x19, x20, [sp, #16]
    2634:	a9425bf5 	ldp	x21, x22, [sp, #32]
    2638:	a94363f7 	ldp	x23, x24, [sp, #48]
    263c:	a9446bf9 	ldp	x25, x26, [sp, #64]
    2640:	a8c77bfd 	ldp	x29, x30, [sp], #112
    2644:	d65f03c0 	ret
/home/jayanth/quemu-v8/source/optee_os/lib/libutee/tee_uuid_from_str.c:50
    2648:	129fff40 	mov	w0, #0xffff0005            	// #-65531
    264c:	17fffff9 	b	2630 <tee_uuid_from_str+0x130>

0000000000002650 <trace_ext_puts>:
trace_ext_puts():
/home/jayanth/quemu-v8/source/optee_os/lib/libutee/trace_ext.c:22
    2650:	a9be7bfd 	stp	x29, x30, [sp, #-32]!
    2654:	910003fd 	mov	x29, sp
    2658:	f9000bf3 	str	x19, [sp, #16]
    265c:	aa0003f3 	mov	x19, x0
/home/jayanth/quemu-v8/source/optee_os/lib/libutee/trace_ext.c:26
    2660:	97fffb65 	bl	13f4 <strlen>
    2664:	aa0003e1 	mov	x1, x0
    2668:	aa1303e0 	mov	x0, x19
/home/jayanth/quemu-v8/source/optee_os/lib/libutee/trace_ext.c:28
    266c:	f9400bf3 	ldr	x19, [sp, #16]
    2670:	a8c27bfd 	ldp	x29, x30, [sp], #32
/home/jayanth/quemu-v8/source/optee_os/lib/libutee/trace_ext.c:26
    2674:	140002e4 	b	3204 <_utee_log>

0000000000002678 <trace_ext_get_thread_id>:
trace_ext_get_thread_id():
/home/jayanth/quemu-v8/source/optee_os/lib/libutee/trace_ext.c:33
    2678:	12800000 	mov	w0, #0xffffffff            	// #-1
    267c:	d65f03c0 	ret

0000000000002680 <printf>:
printf():
/home/jayanth/quemu-v8/source/optee_os/lib/libutee/trace_ext.c:41
    2680:	d10883ff 	sub	sp, sp, #0x220
    2684:	a9007bfd 	stp	x29, x30, [sp]
    2688:	910003fd 	mov	x29, sp
    268c:	a90153f3 	stp	x19, x20, [sp, #16]
    2690:	aa0003f3 	mov	x19, x0
    2694:	3d805be0 	str	q0, [sp, #352]
    2698:	3d805fe1 	str	q1, [sp, #368]
    269c:	3d8063e2 	str	q2, [sp, #384]
    26a0:	3d8067e3 	str	q3, [sp, #400]
    26a4:	3d806be4 	str	q4, [sp, #416]
    26a8:	3d806fe5 	str	q5, [sp, #432]
    26ac:	3d8073e6 	str	q6, [sp, #448]
    26b0:	3d8077e7 	str	q7, [sp, #464]
    26b4:	a91e8be1 	stp	x1, x2, [sp, #488]
    26b8:	a91f93e3 	stp	x3, x4, [sp, #504]
    26bc:	f90107e5 	str	x5, [sp, #520]
    26c0:	f9010be6 	str	x6, [sp, #528]
    26c4:	f9010fe7 	str	x7, [sp, #536]
/home/jayanth/quemu-v8/source/optee_os/lib/libutee/trace_ext.c:46
    26c8:	97fffb59 	bl	142c <trace_get_level>
    26cc:	7100001f 	cmp	w0, #0x0
    26d0:	5400038d 	b.le	2740 <printf+0xc0>
/home/jayanth/quemu-v8/source/optee_os/lib/libutee/trace_ext.c:49
    26d4:	910883e0 	add	x0, sp, #0x220
    26d8:	a90403e0 	stp	x0, x0, [sp, #64]
    26dc:	910783e0 	add	x0, sp, #0x1e0
    26e0:	f9002be0 	str	x0, [sp, #80]
    26e4:	128006e0 	mov	w0, #0xffffffc8            	// #-56
    26e8:	b9005be0 	str	w0, [sp, #88]
    26ec:	12800fe0 	mov	w0, #0xffffff80            	// #-128
    26f0:	b9005fe0 	str	w0, [sp, #92]
/home/jayanth/quemu-v8/source/optee_os/lib/libutee/trace_ext.c:50
    26f4:	910183f4 	add	x20, sp, #0x60
    26f8:	a94407e0 	ldp	x0, x1, [sp, #64]
    26fc:	a90207e0 	stp	x0, x1, [sp, #32]
    2700:	aa1303e2 	mov	x2, x19
    2704:	a94507e0 	ldp	x0, x1, [sp, #80]
    2708:	910083e3 	add	x3, sp, #0x20
    270c:	a90307e0 	stp	x0, x1, [sp, #48]
    2710:	aa1403e0 	mov	x0, x20
    2714:	d2802001 	mov	x1, #0x100                 	// #256
    2718:	94001b96 	bl	9570 <vsnprintf>
    271c:	2a0003f3 	mov	w19, w0
/home/jayanth/quemu-v8/source/optee_os/lib/libutee/trace_ext.c:53
    2720:	37f80060 	tbnz	w0, #31, 272c <printf+0xac>
/home/jayanth/quemu-v8/source/optee_os/lib/libutee/trace_ext.c:56
    2724:	aa1403e0 	mov	x0, x20
    2728:	97ffffca 	bl	2650 <trace_ext_puts>
/home/jayanth/quemu-v8/source/optee_os/lib/libutee/trace_ext.c:59
    272c:	2a1303e0 	mov	w0, w19
    2730:	a9407bfd 	ldp	x29, x30, [sp]
    2734:	a94153f3 	ldp	x19, x20, [sp, #16]
    2738:	910883ff 	add	sp, sp, #0x220
    273c:	d65f03c0 	ret
/home/jayanth/quemu-v8/source/optee_os/lib/libutee/trace_ext.c:47
    2740:	52800013 	mov	w19, #0x0                   	// #0
    2744:	17fffffa 	b	272c <printf+0xac>

0000000000002748 <puts>:
puts():
/home/jayanth/quemu-v8/source/optee_os/lib/libutee/trace_ext.c:62
    2748:	a9be7bfd 	stp	x29, x30, [sp, #-32]!
    274c:	910003fd 	mov	x29, sp
    2750:	f9000bf3 	str	x19, [sp, #16]
    2754:	aa0003f3 	mov	x19, x0
/home/jayanth/quemu-v8/source/optee_os/lib/libutee/trace_ext.c:63
    2758:	97fffb35 	bl	142c <trace_get_level>
    275c:	7100001f 	cmp	w0, #0x0
    2760:	540000cd 	b.le	2778 <puts+0x30>
/home/jayanth/quemu-v8/source/optee_os/lib/libutee/trace_ext.c:64
    2764:	aa1303e0 	mov	x0, x19
    2768:	97ffffba 	bl	2650 <trace_ext_puts>
/home/jayanth/quemu-v8/source/optee_os/lib/libutee/trace_ext.c:65
    276c:	b0000040 	adrp	x0, b000 <__text_end+0x1788>
    2770:	912dcc00 	add	x0, x0, #0xb73
    2774:	97ffffb7 	bl	2650 <trace_ext_puts>
/home/jayanth/quemu-v8/source/optee_os/lib/libutee/trace_ext.c:68
    2778:	52800020 	mov	w0, #0x1                   	// #1
    277c:	f9400bf3 	ldr	x19, [sp, #16]
    2780:	a8c27bfd 	ldp	x29, x30, [sp], #32
    2784:	d65f03c0 	ret

0000000000002788 <putchar>:
putchar():
/home/jayanth/quemu-v8/source/optee_os/lib/libutee/trace_ext.c:71
    2788:	a9bd7bfd 	stp	x29, x30, [sp, #-48]!
    278c:	910003fd 	mov	x29, sp
    2790:	f9000bf3 	str	x19, [sp, #16]
    2794:	2a0003f3 	mov	w19, w0
/home/jayanth/quemu-v8/source/optee_os/lib/libutee/trace_ext.c:72
    2798:	3900a3e0 	strb	w0, [sp, #40]
    279c:	3900a7ff 	strb	wzr, [sp, #41]
/home/jayanth/quemu-v8/source/optee_os/lib/libutee/trace_ext.c:74
    27a0:	97fffb23 	bl	142c <trace_get_level>
    27a4:	7100001f 	cmp	w0, #0x0
    27a8:	5400006d 	b.le	27b4 <putchar+0x2c>
/home/jayanth/quemu-v8/source/optee_os/lib/libutee/trace_ext.c:75
    27ac:	9100a3e0 	add	x0, sp, #0x28
    27b0:	97ffffa8 	bl	2650 <trace_ext_puts>
/home/jayanth/quemu-v8/source/optee_os/lib/libutee/trace_ext.c:82
    27b4:	12001e60 	and	w0, w19, #0xff
    27b8:	f9400bf3 	ldr	x19, [sp, #16]
    27bc:	a8c37bfd 	ldp	x29, x30, [sp], #48
    27c0:	d65f03c0 	ret

00000000000027c4 <update_out_param>:
update_out_param():
/home/jayanth/quemu-v8/source/optee_os/lib/libutee/tee_api.c:115
    27c4:	a9bc7bfd 	stp	x29, x30, [sp, #-64]!
    27c8:	910003fd 	mov	x29, sp
    27cc:	a90153f3 	stp	x19, x20, [sp, #16]
/home/jayanth/quemu-v8/source/optee_os/lib/libutee/tee_api.c:117
    27d0:	aa0203f4 	mov	x20, x2
    27d4:	aa0003f3 	mov	x19, x0
/home/jayanth/quemu-v8/source/optee_os/lib/libutee/tee_api.c:115
    27d8:	a90363f7 	stp	x23, x24, [sp, #48]
    27dc:	aa0103f8 	mov	x24, x1
/home/jayanth/quemu-v8/source/optee_os/lib/libutee/tee_api.c:117
    27e0:	f8408697 	ldr	x23, [x20], #8
/home/jayanth/quemu-v8/source/optee_os/lib/libutee/tee_api.c:115
    27e4:	a9025bf5 	stp	x21, x22, [sp, #32]
/home/jayanth/quemu-v8/source/optee_os/lib/libutee/tee_api.c:119
    27e8:	d2800015 	mov	x21, #0x0                   	// #0
/home/jayanth/quemu-v8/source/optee_os/lib/libutee/tee_api.c:123
    27ec:	531e76a0 	lsl	w0, w21, #2
/home/jayanth/quemu-v8/source/optee_os/lib/libutee/tee_api.c:121
    27f0:	f9400696 	ldr	x22, [x20, #8]
/home/jayanth/quemu-v8/source/optee_os/lib/libutee/tee_api.c:123
    27f4:	1ac026e0 	lsr	w0, w23, w0
    27f8:	12000c01 	and	w1, w0, #0xf
    27fc:	721e041f 	tst	w0, #0xc
    2800:	540000c1 	b.ne	2818 <update_out_param+0x54>  // b.any
    2804:	721f081f 	tst	w0, #0xe
    2808:	540000e0 	b.eq	2824 <update_out_param+0x60>  // b.none
/home/jayanth/quemu-v8/source/optee_os/lib/libutee/tee_api.c:126
    280c:	f9400280 	ldr	x0, [x20]
/home/jayanth/quemu-v8/source/optee_os/lib/libutee/tee_api.c:127
    2810:	29005a60 	stp	w0, w22, [x19]
/home/jayanth/quemu-v8/source/optee_os/lib/libutee/tee_api.c:128
    2814:	14000004 	b	2824 <update_out_param+0x60>
/home/jayanth/quemu-v8/source/optee_os/lib/libutee/tee_api.c:123
    2818:	51001820 	sub	w0, w1, #0x6
    281c:	7100041f 	cmp	w0, #0x1
    2820:	54000169 	b.ls	284c <update_out_param+0x88>  // b.plast
/home/jayanth/quemu-v8/source/optee_os/lib/libutee/tee_api.c:119 (discriminator 2)
    2824:	910006b5 	add	x21, x21, #0x1
    2828:	91004294 	add	x20, x20, #0x10
    282c:	91004273 	add	x19, x19, #0x10
    2830:	f10012bf 	cmp	x21, #0x4
    2834:	54fffdc1 	b.ne	27ec <update_out_param+0x28>  // b.any
/home/jayanth/quemu-v8/source/optee_os/lib/libutee/tee_api.c:140
    2838:	a94153f3 	ldp	x19, x20, [sp, #16]
    283c:	a9425bf5 	ldp	x21, x22, [sp, #32]
    2840:	a94363f7 	ldp	x23, x24, [sp, #48]
    2844:	a8c47bfd 	ldp	x29, x30, [sp], #64
    2848:	d65f03c0 	ret
/home/jayanth/quemu-v8/source/optee_os/lib/libutee/tee_api.c:131
    284c:	f8757b01 	ldr	x1, [x24, x21, lsl #3]
    2850:	b40000c1 	cbz	x1, 2868 <update_out_param+0xa4>
/home/jayanth/quemu-v8/source/optee_os/lib/libutee/tee_api.c:133
    2854:	b9400a62 	ldr	w2, [x19, #8]
/home/jayanth/quemu-v8/source/optee_os/lib/libutee/tee_api.c:132
    2858:	f9400260 	ldr	x0, [x19]
/home/jayanth/quemu-v8/source/optee_os/lib/libutee/tee_api.c:133
    285c:	eb16005f 	cmp	x2, x22
/home/jayanth/quemu-v8/source/optee_os/lib/libutee/tee_api.c:132
    2860:	9a969042 	csel	x2, x2, x22, ls  // ls = plast
    2864:	97fff5ef 	bl	20 <memcpy>
/home/jayanth/quemu-v8/source/optee_os/lib/libutee/tee_api.c:134
    2868:	b9000a76 	str	w22, [x19, #8]
/home/jayanth/quemu-v8/source/optee_os/lib/libutee/tee_api.c:135
    286c:	17ffffee 	b	2824 <update_out_param+0x60>

0000000000002870 <TEE_CloseTASession>:
TEE_CloseTASession():
/home/jayanth/quemu-v8/source/optee_os/lib/libutee/tee_api.c:190
    2870:	b4000120 	cbz	x0, 2894 <TEE_CloseTASession+0x24>
/home/jayanth/quemu-v8/source/optee_os/lib/libutee/tee_api.c:189
    2874:	a9bf7bfd 	stp	x29, x30, [sp, #-16]!
    2878:	910003fd 	mov	x29, sp
/home/jayanth/quemu-v8/source/optee_os/lib/libutee/tee_api.c:191
    287c:	94000271 	bl	3240 <_utee_close_ta_session>
/home/jayanth/quemu-v8/source/optee_os/lib/libutee/tee_api.c:193
    2880:	34000060 	cbz	w0, 288c <TEE_CloseTASession+0x1c>
/home/jayanth/quemu-v8/source/optee_os/lib/libutee/tee_api.c:196
    2884:	a8c17bfd 	ldp	x29, x30, [sp], #16
/home/jayanth/quemu-v8/source/optee_os/lib/libutee/tee_api.c:194
    2888:	140001aa 	b	2f30 <TEE_Panic>
/home/jayanth/quemu-v8/source/optee_os/lib/libutee/tee_api.c:196
    288c:	a8c17bfd 	ldp	x29, x30, [sp], #16
    2890:	d65f03c0 	ret
    2894:	d65f03c0 	ret

0000000000002898 <TEE_GetCancellationFlag>:
TEE_GetCancellationFlag():
/home/jayanth/quemu-v8/source/optee_os/lib/libutee/tee_api.c:251
    2898:	a9be7bfd 	stp	x29, x30, [sp, #-32]!
    289c:	910003fd 	mov	x29, sp
/home/jayanth/quemu-v8/source/optee_os/lib/libutee/tee_api.c:253
    28a0:	910073e0 	add	x0, sp, #0x1c
    28a4:	9400026d 	bl	3258 <_utee_get_cancellation_flag>
/home/jayanth/quemu-v8/source/optee_os/lib/libutee/tee_api.c:255
    28a8:	34000040 	cbz	w0, 28b0 <TEE_GetCancellationFlag+0x18>
/home/jayanth/quemu-v8/source/optee_os/lib/libutee/tee_api.c:256
    28ac:	b9001fff 	str	wzr, [sp, #28]
/home/jayanth/quemu-v8/source/optee_os/lib/libutee/tee_api.c:257
    28b0:	b9401fe0 	ldr	w0, [sp, #28]
/home/jayanth/quemu-v8/source/optee_os/lib/libutee/tee_api.c:258
    28b4:	a8c27bfd 	ldp	x29, x30, [sp], #32
/home/jayanth/quemu-v8/source/optee_os/lib/libutee/tee_api.c:257
    28b8:	7100001f 	cmp	w0, #0x0
/home/jayanth/quemu-v8/source/optee_os/lib/libutee/tee_api.c:258
    28bc:	1a9f07e0 	cset	w0, ne  // ne = any
    28c0:	d65f03c0 	ret

00000000000028c4 <TEE_UnmaskCancellation>:
TEE_UnmaskCancellation():
/home/jayanth/quemu-v8/source/optee_os/lib/libutee/tee_api.c:261
    28c4:	a9be7bfd 	stp	x29, x30, [sp, #-32]!
    28c8:	910003fd 	mov	x29, sp
/home/jayanth/quemu-v8/source/optee_os/lib/libutee/tee_api.c:263
    28cc:	910073e0 	add	x0, sp, #0x1c
    28d0:	94000268 	bl	3270 <_utee_unmask_cancellation>
/home/jayanth/quemu-v8/source/optee_os/lib/libutee/tee_api.c:265
    28d4:	34000040 	cbz	w0, 28dc <TEE_UnmaskCancellation+0x18>
/home/jayanth/quemu-v8/source/optee_os/lib/libutee/tee_api.c:266
    28d8:	94000196 	bl	2f30 <TEE_Panic>
/home/jayanth/quemu-v8/source/optee_os/lib/libutee/tee_api.c:267
    28dc:	b9401fe0 	ldr	w0, [sp, #28]
/home/jayanth/quemu-v8/source/optee_os/lib/libutee/tee_api.c:268
    28e0:	a8c27bfd 	ldp	x29, x30, [sp], #32
/home/jayanth/quemu-v8/source/optee_os/lib/libutee/tee_api.c:267
    28e4:	7100001f 	cmp	w0, #0x0
/home/jayanth/quemu-v8/source/optee_os/lib/libutee/tee_api.c:268
    28e8:	1a9f07e0 	cset	w0, ne  // ne = any
    28ec:	d65f03c0 	ret

00000000000028f0 <TEE_MaskCancellation>:
TEE_MaskCancellation():
/home/jayanth/quemu-v8/source/optee_os/lib/libutee/tee_api.c:271
    28f0:	a9be7bfd 	stp	x29, x30, [sp, #-32]!
    28f4:	910003fd 	mov	x29, sp
/home/jayanth/quemu-v8/source/optee_os/lib/libutee/tee_api.c:273
    28f8:	910073e0 	add	x0, sp, #0x1c
    28fc:	94000260 	bl	327c <_utee_mask_cancellation>
/home/jayanth/quemu-v8/source/optee_os/lib/libutee/tee_api.c:275
    2900:	34000040 	cbz	w0, 2908 <TEE_MaskCancellation+0x18>
/home/jayanth/quemu-v8/source/optee_os/lib/libutee/tee_api.c:276
    2904:	9400018b 	bl	2f30 <TEE_Panic>
/home/jayanth/quemu-v8/source/optee_os/lib/libutee/tee_api.c:277
    2908:	b9401fe0 	ldr	w0, [sp, #28]
/home/jayanth/quemu-v8/source/optee_os/lib/libutee/tee_api.c:278
    290c:	a8c27bfd 	ldp	x29, x30, [sp], #32
/home/jayanth/quemu-v8/source/optee_os/lib/libutee/tee_api.c:277
    2910:	7100001f 	cmp	w0, #0x0
/home/jayanth/quemu-v8/source/optee_os/lib/libutee/tee_api.c:278
    2914:	1a9f07e0 	cset	w0, ne  // ne = any
    2918:	d65f03c0 	ret

000000000000291c <TEE_CheckMemoryAccessRights>:
TEE_CheckMemoryAccessRights():
/home/jayanth/quemu-v8/source/optee_os/lib/libutee/tee_api.c:287
    291c:	34000062 	cbz	w2, 2928 <TEE_CheckMemoryAccessRights+0xc>
/home/jayanth/quemu-v8/source/optee_os/lib/libutee/tee_api.c:291
    2920:	2a0203e2 	mov	w2, w2
    2924:	14000250 	b	3264 <_utee_check_access_rights>
/home/jayanth/quemu-v8/source/optee_os/lib/libutee/tee_api.c:303
    2928:	52800000 	mov	w0, #0x0                   	// #0
    292c:	d65f03c0 	ret

0000000000002930 <copy_param>:
copy_param():
/home/jayanth/quemu-v8/source/optee_os/lib/libutee/tee_api.c:23
    2930:	a9b87bfd 	stp	x29, x30, [sp, #-128]!
    2934:	910003fd 	mov	x29, sp
    2938:	a9046bf9 	stp	x25, x26, [sp, #64]
    293c:	aa0303f9 	mov	x25, x3
/home/jayanth/quemu-v8/source/optee_os/lib/libutee/tee_api.c:60
    2940:	9101e3e3 	add	x3, sp, #0x78
/home/jayanth/quemu-v8/source/optee_os/lib/libutee/tee_api.c:23
    2944:	a90363f7 	stp	x23, x24, [sp, #48]
    2948:	aa0403f8 	mov	x24, x4
    294c:	aa0503f7 	mov	x23, x5
    2950:	a90153f3 	stp	x19, x20, [sp, #16]
    2954:	aa0003f3 	mov	x19, x0
    2958:	aa0203f4 	mov	x20, x2
    295c:	a9025bf5 	stp	x21, x22, [sp, #32]
    2960:	2a0103f6 	mov	w22, w1
/home/jayanth/quemu-v8/source/optee_os/lib/libutee/tee_api.c:41
    2964:	d2800015 	mov	x21, #0x0                   	// #0
/home/jayanth/quemu-v8/source/optee_os/lib/libutee/tee_api.c:23
    2968:	a90573fb 	stp	x27, x28, [sp, #80]
/home/jayanth/quemu-v8/source/optee_os/lib/libutee/tee_api.c:48
    296c:	9100205c 	add	x28, x2, #0x8
/home/jayanth/quemu-v8/source/optee_os/lib/libutee/tee_api.c:26
    2970:	d280001b 	mov	x27, #0x0                   	// #0
/home/jayanth/quemu-v8/source/optee_os/lib/libutee/tee_api.c:39
    2974:	f900033f 	str	xzr, [x25]
/home/jayanth/quemu-v8/source/optee_os/lib/libutee/tee_api.c:60
    2978:	52800024 	mov	w4, #0x1                   	// #1
/home/jayanth/quemu-v8/source/optee_os/lib/libutee/tee_api.c:40
    297c:	f900031f 	str	xzr, [x24]
/home/jayanth/quemu-v8/source/optee_os/lib/libutee/tee_api.c:28
    2980:	b9007bff 	str	wzr, [sp, #120]
/home/jayanth/quemu-v8/source/optee_os/lib/libutee/tee_api.c:43
    2984:	531e76a0 	lsl	w0, w21, #2
/home/jayanth/quemu-v8/source/optee_os/lib/libutee/tee_api.c:42
    2988:	f8357aff 	str	xzr, [x23, x21, lsl #3]
/home/jayanth/quemu-v8/source/optee_os/lib/libutee/tee_api.c:43
    298c:	1ac026c0 	lsr	w0, w22, w0
    2990:	12000c00 	and	w0, w0, #0xf
    2994:	51001400 	sub	w0, w0, #0x5
    2998:	7100081f 	cmp	w0, #0x2
    299c:	54000268 	b.hi	29e8 <copy_param+0xb8>  // b.pmore
/home/jayanth/quemu-v8/source/optee_os/lib/libutee/tee_api.c:47
    29a0:	d37ceea0 	lsl	x0, x21, #4
    29a4:	f8606a81 	ldr	x1, [x20, x0]
/home/jayanth/quemu-v8/source/optee_os/lib/libutee/tee_api.c:48
    29a8:	b8606b82 	ldr	w2, [x28, x0]
/home/jayanth/quemu-v8/source/optee_os/lib/libutee/tee_api.c:58
    29ac:	f100003f 	cmp	x1, #0x0
/home/jayanth/quemu-v8/source/optee_os/lib/libutee/tee_api.c:48
    29b0:	2a0203fa 	mov	w26, w2
/home/jayanth/quemu-v8/source/optee_os/lib/libutee/tee_api.c:58
    29b4:	fa401b44 	ccmp	x26, #0x0, #0x4, ne  // ne = any
    29b8:	54000180 	b.eq	29e8 <copy_param+0xb8>  // b.none
/home/jayanth/quemu-v8/source/optee_os/lib/libutee/tee_api.c:59 (discriminator 1)
    29bc:	52800020 	mov	w0, #0x1                   	// #1
    29c0:	f90033e3 	str	x3, [sp, #96]
    29c4:	b9006fe4 	str	w4, [sp, #108]
    29c8:	97ffffd5 	bl	291c <TEE_CheckMemoryAccessRights>
/home/jayanth/quemu-v8/source/optee_os/lib/libutee/tee_api.c:58 (discriminator 1)
    29cc:	b9406fe4 	ldr	w4, [sp, #108]
    29d0:	f94033e3 	ldr	x3, [sp, #96]
    29d4:	350000a0 	cbnz	w0, 29e8 <copy_param+0xb8>
/home/jayanth/quemu-v8/source/optee_os/lib/libutee/tee_api.c:61
    29d8:	91003f5a 	add	x26, x26, #0xf
/home/jayanth/quemu-v8/source/optee_os/lib/libutee/tee_api.c:60
    29dc:	38236aa4 	strb	w4, [x21, x3]
/home/jayanth/quemu-v8/source/optee_os/lib/libutee/tee_api.c:61
    29e0:	927cef5a 	and	x26, x26, #0xfffffffffffffff0
    29e4:	8b1a037b 	add	x27, x27, x26
/home/jayanth/quemu-v8/source/optee_os/lib/libutee/tee_api.c:41 (discriminator 2)
    29e8:	910006b5 	add	x21, x21, #0x1
    29ec:	f10012bf 	cmp	x21, #0x4
    29f0:	54fffca1 	b.ne	2984 <copy_param+0x54>  // b.any
/home/jayanth/quemu-v8/source/optee_os/lib/libutee/tee_api.c:69
    29f4:	b40002fb 	cbz	x27, 2a50 <copy_param+0x120>
/home/jayanth/quemu-v8/source/optee_os/lib/libutee/tee_api.c:70
    29f8:	2a1503e1 	mov	w1, w21
    29fc:	aa1b03e0 	mov	x0, x27
    2a00:	940001bf 	bl	30fc <tee_map_zi>
    2a04:	aa0003e6 	mov	x6, x0
/home/jayanth/quemu-v8/source/optee_os/lib/libutee/tee_api.c:71
    2a08:	b4000780 	cbz	x0, 2af8 <copy_param+0x1c8>
/home/jayanth/quemu-v8/source/optee_os/lib/libutee/tee_api.c:73
    2a0c:	f9000320 	str	x0, [x25]
/home/jayanth/quemu-v8/source/optee_os/lib/libutee/tee_api.c:74
    2a10:	f900031b 	str	x27, [x24]
/home/jayanth/quemu-v8/source/optee_os/lib/libutee/tee_api.c:89
    2a14:	9101e3fa 	add	x26, sp, #0x78
/home/jayanth/quemu-v8/source/optee_os/lib/libutee/tee_api.c:77
    2a18:	2a1603e0 	mov	w0, w22
/home/jayanth/quemu-v8/source/optee_os/lib/libutee/tee_api.c:78
    2a1c:	d2800015 	mov	x21, #0x0                   	// #0
/home/jayanth/quemu-v8/source/optee_os/lib/libutee/tee_api.c:77
    2a20:	f8008660 	str	x0, [x19], #8
/home/jayanth/quemu-v8/source/optee_os/lib/libutee/tee_api.c:79
    2a24:	531e76a1 	lsl	w1, w21, #2
    2a28:	1ac126c1 	lsr	w1, w22, w1
    2a2c:	12000c20 	and	w0, w1, #0xf
    2a30:	71000c1f 	cmp	w0, #0x3
    2a34:	540003a0 	b.eq	2aa8 <copy_param+0x178>  // b.none
    2a38:	721e043f 	tst	w1, #0xc
    2a3c:	540000e1 	b.ne	2a58 <copy_param+0x128>  // b.any
    2a40:	7100041f 	cmp	w0, #0x1
    2a44:	54000320 	b.eq	2aa8 <copy_param+0x178>  // b.none
/home/jayanth/quemu-v8/source/optee_os/lib/libutee/tee_api.c:104
    2a48:	a9007e7f 	stp	xzr, xzr, [x19]
/home/jayanth/quemu-v8/source/optee_os/lib/libutee/tee_api.c:105
    2a4c:	1400001b 	b	2ab8 <copy_param+0x188>
/home/jayanth/quemu-v8/source/optee_os/lib/libutee/tee_api.c:25
    2a50:	d2800006 	mov	x6, #0x0                   	// #0
    2a54:	17fffff0 	b	2a14 <copy_param+0xe4>
/home/jayanth/quemu-v8/source/optee_os/lib/libutee/tee_api.c:79
    2a58:	51001401 	sub	w1, w0, #0x5
    2a5c:	7100083f 	cmp	w1, #0x2
    2a60:	54ffff48 	b.hi	2a48 <copy_param+0x118>  // b.pmore
/home/jayanth/quemu-v8/source/optee_os/lib/libutee/tee_api.c:89
    2a64:	387a6aa1 	ldrb	w1, [x21, x26]
/home/jayanth/quemu-v8/source/optee_os/lib/libutee/tee_api.c:88
    2a68:	b9400a99 	ldr	w25, [x20, #8]
/home/jayanth/quemu-v8/source/optee_os/lib/libutee/tee_api.c:89
    2a6c:	34000401 	cbz	w1, 2aec <copy_param+0x1bc>
/home/jayanth/quemu-v8/source/optee_os/lib/libutee/tee_api.c:92
    2a70:	91003f38 	add	x24, x25, #0xf
/home/jayanth/quemu-v8/source/optee_os/lib/libutee/tee_api.c:91
    2a74:	f8357ae6 	str	x6, [x23, x21, lsl #3]
/home/jayanth/quemu-v8/source/optee_os/lib/libutee/tee_api.c:92
    2a78:	927cef18 	and	x24, x24, #0xfffffffffffffff0
/home/jayanth/quemu-v8/source/optee_os/lib/libutee/tee_api.c:93
    2a7c:	7100181f 	cmp	w0, #0x6
/home/jayanth/quemu-v8/source/optee_os/lib/libutee/tee_api.c:92
    2a80:	8b1800d8 	add	x24, x6, x24
/home/jayanth/quemu-v8/source/optee_os/lib/libutee/tee_api.c:93
    2a84:	540000c0 	b.eq	2a9c <copy_param+0x16c>  // b.none
/home/jayanth/quemu-v8/source/optee_os/lib/libutee/tee_api.c:95
    2a88:	f9400281 	ldr	x1, [x20]
    2a8c:	aa0603e0 	mov	x0, x6
    2a90:	aa1903e2 	mov	x2, x25
    2a94:	97fff563 	bl	20 <memcpy>
    2a98:	aa0003e6 	mov	x6, x0
/home/jayanth/quemu-v8/source/optee_os/lib/libutee/tee_api.c:100
    2a9c:	a9006666 	stp	x6, x25, [x19]
/home/jayanth/quemu-v8/source/optee_os/lib/libutee/tee_api.c:101
    2aa0:	aa1803e6 	mov	x6, x24
    2aa4:	14000005 	b	2ab8 <copy_param+0x188>
/home/jayanth/quemu-v8/source/optee_os/lib/libutee/tee_api.c:82
    2aa8:	b9400280 	ldr	w0, [x20]
    2aac:	f9000260 	str	x0, [x19]
/home/jayanth/quemu-v8/source/optee_os/lib/libutee/tee_api.c:83
    2ab0:	b9400680 	ldr	w0, [x20, #4]
    2ab4:	f9000660 	str	x0, [x19, #8]
/home/jayanth/quemu-v8/source/optee_os/lib/libutee/tee_api.c:78 (discriminator 2)
    2ab8:	910006b5 	add	x21, x21, #0x1
    2abc:	91004294 	add	x20, x20, #0x10
    2ac0:	91004273 	add	x19, x19, #0x10
    2ac4:	f10012bf 	cmp	x21, #0x4
    2ac8:	54fffae1 	b.ne	2a24 <copy_param+0xf4>  // b.any
/home/jayanth/quemu-v8/source/optee_os/lib/libutee/tee_api.c:109
    2acc:	52800000 	mov	w0, #0x0                   	// #0
/home/jayanth/quemu-v8/source/optee_os/lib/libutee/tee_api.c:110
    2ad0:	a94153f3 	ldp	x19, x20, [sp, #16]
    2ad4:	a9425bf5 	ldp	x21, x22, [sp, #32]
    2ad8:	a94363f7 	ldp	x23, x24, [sp, #48]
    2adc:	a9446bf9 	ldp	x25, x26, [sp, #64]
    2ae0:	a94573fb 	ldp	x27, x28, [sp, #80]
    2ae4:	a8c87bfd 	ldp	x29, x30, [sp], #128
    2ae8:	d65f03c0 	ret
/home/jayanth/quemu-v8/source/optee_os/lib/libutee/tee_api.c:97
    2aec:	aa0603f8 	mov	x24, x6
    2af0:	f9400286 	ldr	x6, [x20]
    2af4:	17ffffea 	b	2a9c <copy_param+0x16c>
/home/jayanth/quemu-v8/source/optee_os/lib/libutee/tee_api.c:72
    2af8:	129ffe60 	mov	w0, #0xffff000c            	// #-65524
    2afc:	17fffff5 	b	2ad0 <copy_param+0x1a0>

0000000000002b00 <TEE_OpenTASession>:
TEE_OpenTASession():
/home/jayanth/quemu-v8/source/optee_os/lib/libutee/tee_api.c:148
    2b00:	a9b37bfd 	stp	x29, x30, [sp, #-208]!
    2b04:	910003fd 	mov	x29, sp
    2b08:	a90153f3 	stp	x19, x20, [sp, #16]
    2b0c:	2a0203f3 	mov	w19, w2
    2b10:	aa0303f4 	mov	x20, x3
    2b14:	a9025bf5 	stp	x21, x22, [sp, #32]
    2b18:	aa0403f5 	mov	x21, x4
    2b1c:	a90363f7 	stp	x23, x24, [sp, #48]
    2b20:	aa0003f7 	mov	x23, x0
    2b24:	2a0103f8 	mov	w24, w1
    2b28:	a9046bf9 	stp	x25, x26, [sp, #64]
    2b2c:	aa0503f9 	mov	x25, x5
/home/jayanth/quemu-v8/source/optee_os/lib/libutee/tee_api.c:151
    2b30:	b90057ff 	str	wzr, [sp, #84]
/home/jayanth/quemu-v8/source/optee_os/lib/libutee/tee_api.c:153
    2b34:	a905ffff 	stp	xzr, xzr, [sp, #88]
/home/jayanth/quemu-v8/source/optee_os/lib/libutee/tee_api.c:154
    2b38:	a906ffff 	stp	xzr, xzr, [sp, #104]
    2b3c:	a907ffff 	stp	xzr, xzr, [sp, #120]
/home/jayanth/quemu-v8/source/optee_os/lib/libutee/tee_api.c:156
    2b40:	34000082 	cbz	w2, 2b50 <TEE_OpenTASession+0x50>
/home/jayanth/quemu-v8/source/optee_os/lib/libutee/tee_api.c:157
    2b44:	aa0303e0 	mov	x0, x3
    2b48:	d2800801 	mov	x1, #0x40                  	// #64
    2b4c:	94000142 	bl	3054 <__utee_check_inout_annotation>
/home/jayanth/quemu-v8/source/optee_os/lib/libutee/tee_api.c:160
    2b50:	aa1503e0 	mov	x0, x21
    2b54:	d2800101 	mov	x1, #0x8                   	// #8
/home/jayanth/quemu-v8/source/optee_os/lib/libutee/tee_api.c:162
    2b58:	9101a3fa 	add	x26, sp, #0x68
/home/jayanth/quemu-v8/source/optee_os/lib/libutee/tee_api.c:160
    2b5c:	9400012d 	bl	3010 <__utee_check_out_annotation>
/home/jayanth/quemu-v8/source/optee_os/lib/libutee/tee_api.c:162
    2b60:	910223f6 	add	x22, sp, #0x88
    2b64:	2a1303e1 	mov	w1, w19
    2b68:	aa1a03e5 	mov	x5, x26
    2b6c:	910183e4 	add	x4, sp, #0x60
    2b70:	910163e3 	add	x3, sp, #0x58
    2b74:	aa1403e2 	mov	x2, x20
    2b78:	aa1603e0 	mov	x0, x22
    2b7c:	97ffff6d 	bl	2930 <copy_param>
    2b80:	2a0003f3 	mov	w19, w0
/home/jayanth/quemu-v8/source/optee_os/lib/libutee/tee_api.c:163
    2b84:	35000260 	cbnz	w0, 2bd0 <TEE_OpenTASession+0xd0>
/home/jayanth/quemu-v8/source/optee_os/lib/libutee/tee_api.c:165
    2b88:	aa1903e4 	mov	x4, x25
    2b8c:	910153e3 	add	x3, sp, #0x54
    2b90:	aa1603e2 	mov	x2, x22
    2b94:	2a1803e1 	mov	w1, w24
    2b98:	aa1703e0 	mov	x0, x23
    2b9c:	940001a6 	bl	3234 <_utee_open_ta_session>
/home/jayanth/quemu-v8/source/optee_os/lib/libutee/tee_api.c:167
    2ba0:	aa1603e2 	mov	x2, x22
/home/jayanth/quemu-v8/source/optee_os/lib/libutee/tee_api.c:165
    2ba4:	2a0003f3 	mov	w19, w0
/home/jayanth/quemu-v8/source/optee_os/lib/libutee/tee_api.c:167
    2ba8:	aa1a03e1 	mov	x1, x26
    2bac:	aa1403e0 	mov	x0, x20
    2bb0:	97ffff05 	bl	27c4 <update_out_param>
/home/jayanth/quemu-v8/source/optee_os/lib/libutee/tee_api.c:168
    2bb4:	f9402fe0 	ldr	x0, [sp, #88]
    2bb8:	b40000a0 	cbz	x0, 2bcc <TEE_OpenTASession+0xcc>
/home/jayanth/quemu-v8/source/optee_os/lib/libutee/tee_api.c:169
    2bbc:	f94033e1 	ldr	x1, [sp, #96]
    2bc0:	94000168 	bl	3160 <tee_unmap>
/home/jayanth/quemu-v8/source/optee_os/lib/libutee/tee_api.c:171
    2bc4:	34000040 	cbz	w0, 2bcc <TEE_OpenTASession+0xcc>
/home/jayanth/quemu-v8/source/optee_os/lib/libutee/tee_api.c:172
    2bc8:	940000da 	bl	2f30 <TEE_Panic>
/home/jayanth/quemu-v8/source/optee_os/lib/libutee/tee_api.c:181
    2bcc:	34000053 	cbz	w19, 2bd4 <TEE_OpenTASession+0xd4>
/home/jayanth/quemu-v8/source/optee_os/lib/libutee/tee_api.c:182
    2bd0:	b90057ff 	str	wzr, [sp, #84]
/home/jayanth/quemu-v8/source/optee_os/lib/libutee/tee_api.c:184
    2bd4:	b94057e0 	ldr	w0, [sp, #84]
/home/jayanth/quemu-v8/source/optee_os/lib/libutee/tee_api.c:186
    2bd8:	a94363f7 	ldp	x23, x24, [sp, #48]
    2bdc:	a9446bf9 	ldp	x25, x26, [sp, #64]
/home/jayanth/quemu-v8/source/optee_os/lib/libutee/tee_api.c:184
    2be0:	f90002a0 	str	x0, [x21]
/home/jayanth/quemu-v8/source/optee_os/lib/libutee/tee_api.c:186
    2be4:	2a1303e0 	mov	w0, w19
    2be8:	a94153f3 	ldp	x19, x20, [sp, #16]
    2bec:	a9425bf5 	ldp	x21, x22, [sp, #32]
    2bf0:	a8cd7bfd 	ldp	x29, x30, [sp], #208
    2bf4:	d65f03c0 	ret

0000000000002bf8 <TEE_InvokeTACommand>:
TEE_InvokeTACommand():
/home/jayanth/quemu-v8/source/optee_os/lib/libutee/tee_api.c:203
    2bf8:	a9b37bfd 	stp	x29, x30, [sp, #-208]!
    2bfc:	910003fd 	mov	x29, sp
    2c00:	a90153f3 	stp	x19, x20, [sp, #16]
    2c04:	2a0303f3 	mov	w19, w3
    2c08:	aa0503f4 	mov	x20, x5
    2c0c:	a9025bf5 	stp	x21, x22, [sp, #32]
    2c10:	aa0403f5 	mov	x21, x4
    2c14:	a90363f7 	stp	x23, x24, [sp, #48]
    2c18:	aa0003f7 	mov	x23, x0
/home/jayanth/quemu-v8/source/optee_os/lib/libutee/tee_api.c:205
    2c1c:	52800060 	mov	w0, #0x3                   	// #3
/home/jayanth/quemu-v8/source/optee_os/lib/libutee/tee_api.c:203
    2c20:	a9046bf9 	stp	x25, x26, [sp, #64]
    2c24:	2a0103f8 	mov	w24, w1
    2c28:	2a0203f9 	mov	w25, w2
/home/jayanth/quemu-v8/source/optee_os/lib/libutee/tee_api.c:205
    2c2c:	b90057e0 	str	w0, [sp, #84]
/home/jayanth/quemu-v8/source/optee_os/lib/libutee/tee_api.c:208
    2c30:	a905ffff 	stp	xzr, xzr, [sp, #88]
/home/jayanth/quemu-v8/source/optee_os/lib/libutee/tee_api.c:209
    2c34:	a906ffff 	stp	xzr, xzr, [sp, #104]
    2c38:	a907ffff 	stp	xzr, xzr, [sp, #120]
/home/jayanth/quemu-v8/source/optee_os/lib/libutee/tee_api.c:211
    2c3c:	34000083 	cbz	w3, 2c4c <TEE_InvokeTACommand+0x54>
/home/jayanth/quemu-v8/source/optee_os/lib/libutee/tee_api.c:212
    2c40:	aa0403e0 	mov	x0, x4
    2c44:	d2800801 	mov	x1, #0x40                  	// #64
    2c48:	94000103 	bl	3054 <__utee_check_inout_annotation>
/home/jayanth/quemu-v8/source/optee_os/lib/libutee/tee_api.c:215
    2c4c:	b4000094 	cbz	x20, 2c5c <TEE_InvokeTACommand+0x64>
/home/jayanth/quemu-v8/source/optee_os/lib/libutee/tee_api.c:216
    2c50:	aa1403e0 	mov	x0, x20
    2c54:	d2800081 	mov	x1, #0x4                   	// #4
    2c58:	940000ee 	bl	3010 <__utee_check_out_annotation>
/home/jayanth/quemu-v8/source/optee_os/lib/libutee/tee_api.c:219
    2c5c:	9101a3fa 	add	x26, sp, #0x68
    2c60:	910223f6 	add	x22, sp, #0x88
    2c64:	2a1303e1 	mov	w1, w19
    2c68:	aa1a03e5 	mov	x5, x26
    2c6c:	910183e4 	add	x4, sp, #0x60
    2c70:	910163e3 	add	x3, sp, #0x58
    2c74:	aa1503e2 	mov	x2, x21
    2c78:	aa1603e0 	mov	x0, x22
    2c7c:	97ffff2d 	bl	2930 <copy_param>
    2c80:	2a0003f3 	mov	w19, w0
/home/jayanth/quemu-v8/source/optee_os/lib/libutee/tee_api.c:220
    2c84:	35000240 	cbnz	w0, 2ccc <TEE_InvokeTACommand+0xd4>
/home/jayanth/quemu-v8/source/optee_os/lib/libutee/tee_api.c:222
    2c88:	910153e4 	add	x4, sp, #0x54
    2c8c:	aa1603e3 	mov	x3, x22
    2c90:	2a1903e2 	mov	w2, w25
    2c94:	2a1803e1 	mov	w1, w24
    2c98:	aa1703e0 	mov	x0, x23
    2c9c:	9400016c 	bl	324c <_utee_invoke_ta_command>
/home/jayanth/quemu-v8/source/optee_os/lib/libutee/tee_api.c:225
    2ca0:	aa1603e2 	mov	x2, x22
/home/jayanth/quemu-v8/source/optee_os/lib/libutee/tee_api.c:222
    2ca4:	2a0003f3 	mov	w19, w0
/home/jayanth/quemu-v8/source/optee_os/lib/libutee/tee_api.c:225
    2ca8:	aa1a03e1 	mov	x1, x26
    2cac:	aa1503e0 	mov	x0, x21
    2cb0:	97fffec5 	bl	27c4 <update_out_param>
/home/jayanth/quemu-v8/source/optee_os/lib/libutee/tee_api.c:226
    2cb4:	f9402fe0 	ldr	x0, [sp, #88]
    2cb8:	b40000a0 	cbz	x0, 2ccc <TEE_InvokeTACommand+0xd4>
/home/jayanth/quemu-v8/source/optee_os/lib/libutee/tee_api.c:227
    2cbc:	f94033e1 	ldr	x1, [sp, #96]
    2cc0:	94000128 	bl	3160 <tee_unmap>
/home/jayanth/quemu-v8/source/optee_os/lib/libutee/tee_api.c:229
    2cc4:	34000040 	cbz	w0, 2ccc <TEE_InvokeTACommand+0xd4>
/home/jayanth/quemu-v8/source/optee_os/lib/libutee/tee_api.c:230
    2cc8:	9400009a 	bl	2f30 <TEE_Panic>
/home/jayanth/quemu-v8/source/optee_os/lib/libutee/tee_api.c:234
    2ccc:	b94057e0 	ldr	w0, [sp, #84]
    2cd0:	b4000054 	cbz	x20, 2cd8 <TEE_InvokeTACommand+0xe0>
/home/jayanth/quemu-v8/source/optee_os/lib/libutee/tee_api.c:235
    2cd4:	b9000280 	str	w0, [x20]
/home/jayanth/quemu-v8/source/optee_os/lib/libutee/tee_api.c:237
    2cd8:	7100101f 	cmp	w0, #0x4
    2cdc:	54000140 	b.eq	2d04 <TEE_InvokeTACommand+0x10c>  // b.none
/home/jayanth/quemu-v8/source/optee_os/lib/libutee/tee_api.c:240
    2ce0:	7100027f 	cmp	w19, #0x0
    2ce4:	129ffe60 	mov	w0, #0xffff000c            	// #-65524
    2ce8:	7a401264 	ccmp	w19, w0, #0x4, ne  // ne = any
    2cec:	540000c0 	b.eq	2d04 <TEE_InvokeTACommand+0x10c>  // b.none
/home/jayanth/quemu-v8/source/optee_os/lib/libutee/tee_api.c:241
    2cf0:	1299fb60 	mov	w0, #0xffff3024            	// #-53212
    2cf4:	6b00027f 	cmp	w19, w0
    2cf8:	54000060 	b.eq	2d04 <TEE_InvokeTACommand+0x10c>  // b.none
/home/jayanth/quemu-v8/source/optee_os/lib/libutee/tee_api.c:243
    2cfc:	2a1303e0 	mov	w0, w19
    2d00:	9400008c 	bl	2f30 <TEE_Panic>
/home/jayanth/quemu-v8/source/optee_os/lib/libutee/tee_api.c:246
    2d04:	2a1303e0 	mov	w0, w19
    2d08:	a94153f3 	ldp	x19, x20, [sp, #16]
    2d0c:	a9425bf5 	ldp	x21, x22, [sp, #32]
    2d10:	a94363f7 	ldp	x23, x24, [sp, #48]
    2d14:	a9446bf9 	ldp	x25, x26, [sp, #64]
    2d18:	a8cd7bfd 	ldp	x29, x30, [sp], #208
    2d1c:	d65f03c0 	ret

0000000000002d20 <TEE_SetInstanceData>:
TEE_SetInstanceData():
/home/jayanth/quemu-v8/source/optee_os/lib/libutee/tee_api.c:307
    2d20:	f0000041 	adrp	x1, d000 <_DYNAMIC>
    2d24:	f9023420 	str	x0, [x1, #1128]
/home/jayanth/quemu-v8/source/optee_os/lib/libutee/tee_api.c:308
    2d28:	d65f03c0 	ret

0000000000002d2c <TEE_GetInstanceData>:
TEE_GetInstanceData():
/home/jayanth/quemu-v8/source/optee_os/lib/libutee/tee_api.c:313
    2d2c:	f0000040 	adrp	x0, d000 <_DYNAMIC>
    2d30:	f9423400 	ldr	x0, [x0, #1128]
    2d34:	d65f03c0 	ret

0000000000002d38 <TEE_MemMove>:
TEE_MemMove():
/home/jayanth/quemu-v8/source/optee_os/lib/libutee/tee_api.c:317
    2d38:	2a0203e2 	mov	w2, w2
    2d3c:	14001a28 	b	95dc <memmove>

0000000000002d40 <TEE_MemCompare>:
TEE_MemCompare():
/home/jayanth/quemu-v8/source/optee_os/lib/libutee/tee_api.c:322
    2d40:	2a0203e2 	mov	w2, w2
    2d44:	14001ab1 	b	9808 <consttime_memcmp>

0000000000002d48 <TEE_MemFill>:
TEE_MemFill():
/home/jayanth/quemu-v8/source/optee_os/lib/libutee/tee_api.c:327
    2d48:	2a0203e2 	mov	w2, w2
    2d4c:	17fff9a3 	b	13d8 <memset>

0000000000002d50 <TEE_GetSystemTime>:
TEE_GetSystemTime():
/home/jayanth/quemu-v8/source/optee_os/lib/libutee/tee_api.c:333
    2d50:	a9bf7bfd 	stp	x29, x30, [sp, #-16]!
/home/jayanth/quemu-v8/source/optee_os/lib/libutee/tee_api.c:334
    2d54:	aa0003e1 	mov	x1, x0
    2d58:	d2800000 	mov	x0, #0x0                   	// #0
/home/jayanth/quemu-v8/source/optee_os/lib/libutee/tee_api.c:333
    2d5c:	910003fd 	mov	x29, sp
/home/jayanth/quemu-v8/source/optee_os/lib/libutee/tee_api.c:334
    2d60:	9400014d 	bl	3294 <_utee_get_time>
/home/jayanth/quemu-v8/source/optee_os/lib/libutee/tee_api.c:336
    2d64:	34000060 	cbz	w0, 2d70 <TEE_GetSystemTime+0x20>
/home/jayanth/quemu-v8/source/optee_os/lib/libutee/tee_api.c:338
    2d68:	a8c17bfd 	ldp	x29, x30, [sp], #16
/home/jayanth/quemu-v8/source/optee_os/lib/libutee/tee_api.c:337
    2d6c:	14000071 	b	2f30 <TEE_Panic>
/home/jayanth/quemu-v8/source/optee_os/lib/libutee/tee_api.c:338
    2d70:	a8c17bfd 	ldp	x29, x30, [sp], #16
    2d74:	d65f03c0 	ret

0000000000002d78 <TEE_Wait>:
TEE_Wait():
/home/jayanth/quemu-v8/source/optee_os/lib/libutee/tee_api.c:341
    2d78:	a9be7bfd 	stp	x29, x30, [sp, #-32]!
/home/jayanth/quemu-v8/source/optee_os/lib/libutee/tee_api.c:342
    2d7c:	2a0003e0 	mov	w0, w0
/home/jayanth/quemu-v8/source/optee_os/lib/libutee/tee_api.c:341
    2d80:	910003fd 	mov	x29, sp
    2d84:	f9000bf3 	str	x19, [sp, #16]
/home/jayanth/quemu-v8/source/optee_os/lib/libutee/tee_api.c:342
    2d88:	94000140 	bl	3288 <_utee_wait>
/home/jayanth/quemu-v8/source/optee_os/lib/libutee/tee_api.c:344
    2d8c:	7100001f 	cmp	w0, #0x0
    2d90:	129fffa1 	mov	w1, #0xffff0002            	// #-65534
/home/jayanth/quemu-v8/source/optee_os/lib/libutee/tee_api.c:342
    2d94:	2a0003f3 	mov	w19, w0
/home/jayanth/quemu-v8/source/optee_os/lib/libutee/tee_api.c:344
    2d98:	7a411004 	ccmp	w0, w1, #0x4, ne  // ne = any
    2d9c:	54000040 	b.eq	2da4 <TEE_Wait+0x2c>  // b.none
/home/jayanth/quemu-v8/source/optee_os/lib/libutee/tee_api.c:345
    2da0:	94000064 	bl	2f30 <TEE_Panic>
/home/jayanth/quemu-v8/source/optee_os/lib/libutee/tee_api.c:348
    2da4:	2a1303e0 	mov	w0, w19
    2da8:	f9400bf3 	ldr	x19, [sp, #16]
    2dac:	a8c27bfd 	ldp	x29, x30, [sp], #32
    2db0:	d65f03c0 	ret

0000000000002db4 <TEE_GetTAPersistentTime>:
TEE_GetTAPersistentTime():
/home/jayanth/quemu-v8/source/optee_os/lib/libutee/tee_api.c:351
    2db4:	a9be7bfd 	stp	x29, x30, [sp, #-32]!
/home/jayanth/quemu-v8/source/optee_os/lib/libutee/tee_api.c:354
    2db8:	aa0003e1 	mov	x1, x0
/home/jayanth/quemu-v8/source/optee_os/lib/libutee/tee_api.c:351
    2dbc:	910003fd 	mov	x29, sp
    2dc0:	a90153f3 	stp	x19, x20, [sp, #16]
    2dc4:	aa0003f4 	mov	x20, x0
/home/jayanth/quemu-v8/source/optee_os/lib/libutee/tee_api.c:354
    2dc8:	d2800020 	mov	x0, #0x1                   	// #1
    2dcc:	94000132 	bl	3294 <_utee_get_time>
/home/jayanth/quemu-v8/source/optee_os/lib/libutee/tee_api.c:356
    2dd0:	7100001f 	cmp	w0, #0x0
/home/jayanth/quemu-v8/source/optee_os/lib/libutee/tee_api.c:354
    2dd4:	2a0003f3 	mov	w19, w0
/home/jayanth/quemu-v8/source/optee_os/lib/libutee/tee_api.c:356
    2dd8:	1a9f07e2 	cset	w2, ne  // ne = any
    2ddc:	1299fe00 	mov	w0, #0xffff300f            	// #-53233
    2de0:	6b00027f 	cmp	w19, w0
    2de4:	1a9f1041 	csel	w1, w2, wzr, ne  // ne = any
    2de8:	34000041 	cbz	w1, 2df0 <TEE_GetTAPersistentTime+0x3c>
/home/jayanth/quemu-v8/source/optee_os/lib/libutee/tee_api.c:358
    2dec:	29007e9f 	stp	wzr, wzr, [x20]
/home/jayanth/quemu-v8/source/optee_os/lib/libutee/tee_api.c:362
    2df0:	11402e60 	add	w0, w19, #0xb, lsl #12
/home/jayanth/quemu-v8/source/optee_os/lib/libutee/tee_api.c:361
    2df4:	7100005f 	cmp	w2, #0x0
    2df8:	7a411800 	ccmp	w0, #0x1, #0x0, ne  // ne = any
    2dfc:	540000e9 	b.ls	2e18 <TEE_GetTAPersistentTime+0x64>  // b.plast
/home/jayanth/quemu-v8/source/optee_os/lib/libutee/tee_api.c:363
    2e00:	340000c1 	cbz	w1, 2e18 <TEE_GetTAPersistentTime+0x64>
/home/jayanth/quemu-v8/source/optee_os/lib/libutee/tee_api.c:364
    2e04:	129ffe60 	mov	w0, #0xffff000c            	// #-65524
    2e08:	6b00027f 	cmp	w19, w0
    2e0c:	54000060 	b.eq	2e18 <TEE_GetTAPersistentTime+0x64>  // b.none
/home/jayanth/quemu-v8/source/optee_os/lib/libutee/tee_api.c:366
    2e10:	2a1303e0 	mov	w0, w19
    2e14:	94000047 	bl	2f30 <TEE_Panic>
/home/jayanth/quemu-v8/source/optee_os/lib/libutee/tee_api.c:369
    2e18:	2a1303e0 	mov	w0, w19
    2e1c:	a94153f3 	ldp	x19, x20, [sp, #16]
    2e20:	a8c27bfd 	ldp	x29, x30, [sp], #32
    2e24:	d65f03c0 	ret

0000000000002e28 <TEE_SetTAPersistentTime>:
TEE_SetTAPersistentTime():
/home/jayanth/quemu-v8/source/optee_os/lib/libutee/tee_api.c:372
    2e28:	a9be7bfd 	stp	x29, x30, [sp, #-32]!
    2e2c:	910003fd 	mov	x29, sp
    2e30:	f9000bf3 	str	x19, [sp, #16]
/home/jayanth/quemu-v8/source/optee_os/lib/libutee/tee_api.c:375
    2e34:	9400011b 	bl	32a0 <_utee_set_ta_time>
/home/jayanth/quemu-v8/source/optee_os/lib/libutee/tee_api.c:377
    2e38:	7100001f 	cmp	w0, #0x0
    2e3c:	129ffe61 	mov	w1, #0xffff000c            	// #-65524
/home/jayanth/quemu-v8/source/optee_os/lib/libutee/tee_api.c:375
    2e40:	2a0003f3 	mov	w19, w0
/home/jayanth/quemu-v8/source/optee_os/lib/libutee/tee_api.c:377
    2e44:	7a411004 	ccmp	w0, w1, #0x4, ne  // ne = any
    2e48:	540000a0 	b.eq	2e5c <TEE_SetTAPersistentTime+0x34>  // b.none
/home/jayanth/quemu-v8/source/optee_os/lib/libutee/tee_api.c:378
    2e4c:	1299f7c1 	mov	w1, #0xffff3041            	// #-53183
    2e50:	6b01001f 	cmp	w0, w1
    2e54:	54000040 	b.eq	2e5c <TEE_SetTAPersistentTime+0x34>  // b.none
/home/jayanth/quemu-v8/source/optee_os/lib/libutee/tee_api.c:380
    2e58:	94000036 	bl	2f30 <TEE_Panic>
/home/jayanth/quemu-v8/source/optee_os/lib/libutee/tee_api.c:383
    2e5c:	2a1303e0 	mov	w0, w19
    2e60:	f9400bf3 	ldr	x19, [sp, #16]
    2e64:	a8c27bfd 	ldp	x29, x30, [sp], #32
    2e68:	d65f03c0 	ret

0000000000002e6c <TEE_GetREETime>:
TEE_GetREETime():
/home/jayanth/quemu-v8/source/optee_os/lib/libutee/tee_api.c:386
    2e6c:	a9bf7bfd 	stp	x29, x30, [sp, #-16]!
/home/jayanth/quemu-v8/source/optee_os/lib/libutee/tee_api.c:387
    2e70:	aa0003e1 	mov	x1, x0
    2e74:	d2800040 	mov	x0, #0x2                   	// #2
/home/jayanth/quemu-v8/source/optee_os/lib/libutee/tee_api.c:386
    2e78:	910003fd 	mov	x29, sp
/home/jayanth/quemu-v8/source/optee_os/lib/libutee/tee_api.c:387
    2e7c:	94000106 	bl	3294 <_utee_get_time>
/home/jayanth/quemu-v8/source/optee_os/lib/libutee/tee_api.c:389
    2e80:	34000060 	cbz	w0, 2e8c <TEE_GetREETime+0x20>
/home/jayanth/quemu-v8/source/optee_os/lib/libutee/tee_api.c:391
    2e84:	a8c17bfd 	ldp	x29, x30, [sp], #16
/home/jayanth/quemu-v8/source/optee_os/lib/libutee/tee_api.c:390
    2e88:	1400002a 	b	2f30 <TEE_Panic>
/home/jayanth/quemu-v8/source/optee_os/lib/libutee/tee_api.c:391
    2e8c:	a8c17bfd 	ldp	x29, x30, [sp], #16
    2e90:	d65f03c0 	ret

0000000000002e94 <TEE_Malloc>:
TEE_Malloc():
/home/jayanth/quemu-v8/source/optee_os/lib/libutee/tee_api.c:395
    2e94:	35000081 	cbnz	w1, 2ea4 <TEE_Malloc+0x10>
/home/jayanth/quemu-v8/source/optee_os/lib/libutee/tee_api.c:396
    2e98:	2a0003e1 	mov	w1, w0
    2e9c:	d2800020 	mov	x0, #0x1                   	// #1
    2ea0:	17fff833 	b	f6c <calloc>
    2ea4:	2a0103e5 	mov	w5, w1
/home/jayanth/quemu-v8/source/optee_os/lib/libutee/tee_api.c:397
    2ea8:	52b00001 	mov	w1, #0x80000000            	// #-2147483648
    2eac:	6b0100bf 	cmp	w5, w1
    2eb0:	54000061 	b.ne	2ebc <TEE_Malloc+0x28>  // b.any
/home/jayanth/quemu-v8/source/optee_os/lib/libutee/tee_api.c:398
    2eb4:	2a0003e0 	mov	w0, w0
    2eb8:	17fff817 	b	f14 <malloc>
/home/jayanth/quemu-v8/source/optee_os/lib/libutee/tee_api.c:394
    2ebc:	a9bf7bfd 	stp	x29, x30, [sp, #-16]!
/home/jayanth/quemu-v8/source/optee_os/lib/libutee/tee_api.c:400
    2ec0:	52800023 	mov	w3, #0x1                   	// #1
    2ec4:	52800022 	mov	w2, #0x1                   	// #1
/home/jayanth/quemu-v8/source/optee_os/lib/libutee/tee_api.c:394
    2ec8:	910003fd 	mov	x29, sp
/home/jayanth/quemu-v8/source/optee_os/lib/libutee/tee_api.c:400
    2ecc:	52803201 	mov	w1, #0x190                 	// #400
    2ed0:	d0000044 	adrp	x4, c000 <__func__.4194+0x3e3>
    2ed4:	d0000040 	adrp	x0, c000 <__func__.4194+0x3e3>
    2ed8:	9103a884 	add	x4, x4, #0xea
    2edc:	9103ec00 	add	x0, x0, #0xfb
    2ee0:	97fff9d3 	bl	162c <trace_printf>
/home/jayanth/quemu-v8/source/optee_os/lib/libutee/tee_api.c:403
    2ee4:	d2800000 	mov	x0, #0x0                   	// #0
    2ee8:	a8c17bfd 	ldp	x29, x30, [sp], #16
    2eec:	d65f03c0 	ret

0000000000002ef0 <TEE_Realloc>:
TEE_Realloc():
/home/jayanth/quemu-v8/source/optee_os/lib/libutee/tee_api.c:407
    2ef0:	2a0103e1 	mov	w1, w1
    2ef4:	17fff838 	b	fd4 <realloc>

0000000000002ef8 <TEE_Free>:
TEE_Free():
/home/jayanth/quemu-v8/source/optee_os/lib/libutee/tee_api.c:412
    2ef8:	17fff86b 	b	10a4 <free>

0000000000002efc <TEE_CacheClean>:
TEE_CacheClean():
/home/jayanth/quemu-v8/source/optee_os/lib/libutee/tee_api.c:418
    2efc:	d2800002 	mov	x2, #0x0                   	// #0
    2f00:	14000163 	b	348c <_utee_cache_operation>

0000000000002f04 <TEE_CacheFlush>:
TEE_CacheFlush():
/home/jayanth/quemu-v8/source/optee_os/lib/libutee/tee_api.c:422
    2f04:	d2800022 	mov	x2, #0x1                   	// #1
    2f08:	14000161 	b	348c <_utee_cache_operation>

0000000000002f0c <TEE_CacheInvalidate>:
TEE_CacheInvalidate():
/home/jayanth/quemu-v8/source/optee_os/lib/libutee/tee_api.c:427
    2f0c:	d2800042 	mov	x2, #0x2                   	// #2
    2f10:	1400015f 	b	348c <_utee_cache_operation>

0000000000002f14 <check_access>:
check_access():
/home/jayanth/quemu-v8/source/optee_os/lib/libutee/tee_api_panic.c:37
    2f14:	b4000062 	cbz	x2, 2f20 <check_access+0xc>
/home/jayanth/quemu-v8/source/optee_os/lib/libutee/tee_api_panic.c:40
    2f18:	b4000081 	cbz	x1, 2f28 <check_access+0x14>
/home/jayanth/quemu-v8/source/optee_os/lib/libutee/tee_api_panic.c:44
    2f1c:	17fffe80 	b	291c <TEE_CheckMemoryAccessRights>
/home/jayanth/quemu-v8/source/optee_os/lib/libutee/tee_api_panic.c:38
    2f20:	52800000 	mov	w0, #0x0                   	// #0
/home/jayanth/quemu-v8/source/optee_os/lib/libutee/tee_api_panic.c:47
    2f24:	d65f03c0 	ret
/home/jayanth/quemu-v8/source/optee_os/lib/libutee/tee_api_panic.c:41
    2f28:	129ffe00 	mov	w0, #0xffff000f            	// #-65521
    2f2c:	17fffffe 	b	2f24 <check_access+0x10>

0000000000002f30 <TEE_Panic>:
TEE_Panic():
/home/jayanth/quemu-v8/source/optee_os/lib/libutee/tee_api_panic.c:24
    2f30:	2a0003e0 	mov	w0, w0
    2f34:	140000ae 	b	31ec <_utee_panic>

0000000000002f38 <check_res.isra.0>:
check_res():
/home/jayanth/quemu-v8/source/optee_os/lib/libutee/tee_api_panic.c:29
    2f38:	34000060 	cbz	w0, 2f44 <check_res.isra.0+0xc>
/home/jayanth/quemu-v8/source/optee_os/lib/libutee/tee_api_panic.c:31
    2f3c:	52800000 	mov	w0, #0x0                   	// #0
    2f40:	17fffffc 	b	2f30 <TEE_Panic>
/home/jayanth/quemu-v8/source/optee_os/lib/libutee/tee_api_panic.c:33
    2f44:	d65f03c0 	ret

0000000000002f48 <__utee_check_outbuf_annotation>:
__utee_check_outbuf_annotation():
/home/jayanth/quemu-v8/source/optee_os/lib/libutee/tee_api_panic.c:50
    2f48:	a9be7bfd 	stp	x29, x30, [sp, #-32]!
    2f4c:	910003fd 	mov	x29, sp
    2f50:	a90153f3 	stp	x19, x20, [sp, #16]
    2f54:	aa0003f4 	mov	x20, x0
    2f58:	aa0103f3 	mov	x19, x1
check_access():
/home/jayanth/quemu-v8/source/optee_os/lib/libutee/tee_api_panic.c:40
    2f5c:	b4000181 	cbz	x1, 2f8c <__utee_check_outbuf_annotation+0x44>
/home/jayanth/quemu-v8/source/optee_os/lib/libutee/tee_api_panic.c:44
    2f60:	52800082 	mov	w2, #0x4                   	// #4
    2f64:	52800060 	mov	w0, #0x3                   	// #3
    2f68:	97fffe6d 	bl	291c <TEE_CheckMemoryAccessRights>
__utee_check_outbuf_annotation():
/home/jayanth/quemu-v8/source/optee_os/lib/libutee/tee_api_panic.c:51
    2f6c:	97fffff3 	bl	2f38 <check_res.isra.0>
/home/jayanth/quemu-v8/source/optee_os/lib/libutee/tee_api_panic.c:53
    2f70:	b9400262 	ldr	w2, [x19]
    2f74:	aa1403e1 	mov	x1, x20
    2f78:	528000c0 	mov	w0, #0x6                   	// #6
    2f7c:	97ffffe6 	bl	2f14 <check_access>
/home/jayanth/quemu-v8/source/optee_os/lib/libutee/tee_api_panic.c:55
    2f80:	a94153f3 	ldp	x19, x20, [sp, #16]
    2f84:	a8c27bfd 	ldp	x29, x30, [sp], #32
/home/jayanth/quemu-v8/source/optee_os/lib/libutee/tee_api_panic.c:53
    2f88:	17ffffec 	b	2f38 <check_res.isra.0>
check_access():
/home/jayanth/quemu-v8/source/optee_os/lib/libutee/tee_api_panic.c:41
    2f8c:	129ffe00 	mov	w0, #0xffff000f            	// #-65521
    2f90:	17fffff7 	b	2f6c <__utee_check_outbuf_annotation+0x24>

0000000000002f94 <__utee_check_instring_annotation>:
__utee_check_instring_annotation():
/home/jayanth/quemu-v8/source/optee_os/lib/libutee/tee_api_panic.c:58
    2f94:	a9be7bfd 	stp	x29, x30, [sp, #-32]!
    2f98:	910003fd 	mov	x29, sp
    2f9c:	f9000bf3 	str	x19, [sp, #16]
    2fa0:	aa0003f3 	mov	x19, x0
/home/jayanth/quemu-v8/source/optee_os/lib/libutee/tee_api_panic.c:60
    2fa4:	97fff914 	bl	13f4 <strlen>
/home/jayanth/quemu-v8/source/optee_os/lib/libutee/tee_api_panic.c:59
    2fa8:	91000402 	add	x2, x0, #0x1
    2fac:	aa1303e1 	mov	x1, x19
    2fb0:	52800020 	mov	w0, #0x1                   	// #1
    2fb4:	97ffffd8 	bl	2f14 <check_access>
/home/jayanth/quemu-v8/source/optee_os/lib/libutee/tee_api_panic.c:61
    2fb8:	f9400bf3 	ldr	x19, [sp, #16]
    2fbc:	a8c27bfd 	ldp	x29, x30, [sp], #32
/home/jayanth/quemu-v8/source/optee_os/lib/libutee/tee_api_panic.c:59
    2fc0:	17ffffde 	b	2f38 <check_res.isra.0>

0000000000002fc4 <__utee_check_outstring_annotation>:
__utee_check_outstring_annotation():
/home/jayanth/quemu-v8/source/optee_os/lib/libutee/tee_api_panic.c:64
    2fc4:	a9be7bfd 	stp	x29, x30, [sp, #-32]!
    2fc8:	910003fd 	mov	x29, sp
    2fcc:	a90153f3 	stp	x19, x20, [sp, #16]
    2fd0:	aa0003f4 	mov	x20, x0
    2fd4:	aa0103f3 	mov	x19, x1
check_access():
/home/jayanth/quemu-v8/source/optee_os/lib/libutee/tee_api_panic.c:40
    2fd8:	b4000181 	cbz	x1, 3008 <__utee_check_outstring_annotation+0x44>
/home/jayanth/quemu-v8/source/optee_os/lib/libutee/tee_api_panic.c:44
    2fdc:	52800082 	mov	w2, #0x4                   	// #4
    2fe0:	52800060 	mov	w0, #0x3                   	// #3
    2fe4:	97fffe4e 	bl	291c <TEE_CheckMemoryAccessRights>
__utee_check_outstring_annotation():
/home/jayanth/quemu-v8/source/optee_os/lib/libutee/tee_api_panic.c:65
    2fe8:	97ffffd4 	bl	2f38 <check_res.isra.0>
/home/jayanth/quemu-v8/source/optee_os/lib/libutee/tee_api_panic.c:67
    2fec:	b9400262 	ldr	w2, [x19]
    2ff0:	aa1403e1 	mov	x1, x20
    2ff4:	528000c0 	mov	w0, #0x6                   	// #6
    2ff8:	97ffffc7 	bl	2f14 <check_access>
/home/jayanth/quemu-v8/source/optee_os/lib/libutee/tee_api_panic.c:69
    2ffc:	a94153f3 	ldp	x19, x20, [sp, #16]
    3000:	a8c27bfd 	ldp	x29, x30, [sp], #32
/home/jayanth/quemu-v8/source/optee_os/lib/libutee/tee_api_panic.c:67
    3004:	17ffffcd 	b	2f38 <check_res.isra.0>
check_access():
/home/jayanth/quemu-v8/source/optee_os/lib/libutee/tee_api_panic.c:41
    3008:	129ffe00 	mov	w0, #0xffff000f            	// #-65521
    300c:	17fffff7 	b	2fe8 <__utee_check_outstring_annotation+0x24>

0000000000003010 <__utee_check_out_annotation>:
__utee_check_out_annotation():
/home/jayanth/quemu-v8/source/optee_os/lib/libutee/tee_api_panic.c:72
    3010:	a9bf7bfd 	stp	x29, x30, [sp, #-16]!
/home/jayanth/quemu-v8/source/optee_os/lib/libutee/tee_api_panic.c:73
    3014:	aa0103e2 	mov	x2, x1
    3018:	aa0003e1 	mov	x1, x0
/home/jayanth/quemu-v8/source/optee_os/lib/libutee/tee_api_panic.c:72
    301c:	910003fd 	mov	x29, sp
/home/jayanth/quemu-v8/source/optee_os/lib/libutee/tee_api_panic.c:73
    3020:	52800040 	mov	w0, #0x2                   	// #2
    3024:	97ffffbc 	bl	2f14 <check_access>
/home/jayanth/quemu-v8/source/optee_os/lib/libutee/tee_api_panic.c:75
    3028:	a8c17bfd 	ldp	x29, x30, [sp], #16
/home/jayanth/quemu-v8/source/optee_os/lib/libutee/tee_api_panic.c:73
    302c:	17ffffc3 	b	2f38 <check_res.isra.0>

0000000000003030 <__utee_check_attr_in_annotation>:
__utee_check_attr_in_annotation():
/home/jayanth/quemu-v8/source/optee_os/lib/libutee/tee_api_panic.c:79
    3030:	d2800302 	mov	x2, #0x18                  	// #24
/home/jayanth/quemu-v8/source/optee_os/lib/libutee/tee_api_panic.c:78
    3034:	a9bf7bfd 	stp	x29, x30, [sp, #-16]!
/home/jayanth/quemu-v8/source/optee_os/lib/libutee/tee_api_panic.c:79
    3038:	9b027c22 	mul	x2, x1, x2
/home/jayanth/quemu-v8/source/optee_os/lib/libutee/tee_api_panic.c:78
    303c:	910003fd 	mov	x29, sp
/home/jayanth/quemu-v8/source/optee_os/lib/libutee/tee_api_panic.c:79
    3040:	aa0003e1 	mov	x1, x0
    3044:	52800020 	mov	w0, #0x1                   	// #1
    3048:	97ffffb3 	bl	2f14 <check_access>
/home/jayanth/quemu-v8/source/optee_os/lib/libutee/tee_api_panic.c:81
    304c:	a8c17bfd 	ldp	x29, x30, [sp], #16
/home/jayanth/quemu-v8/source/optee_os/lib/libutee/tee_api_panic.c:79
    3050:	17ffffba 	b	2f38 <check_res.isra.0>

0000000000003054 <__utee_check_inout_annotation>:
__utee_check_inout_annotation():
/home/jayanth/quemu-v8/source/optee_os/lib/libutee/tee_api_panic.c:84
    3054:	a9bf7bfd 	stp	x29, x30, [sp, #-16]!
/home/jayanth/quemu-v8/source/optee_os/lib/libutee/tee_api_panic.c:85
    3058:	aa0103e2 	mov	x2, x1
    305c:	aa0003e1 	mov	x1, x0
/home/jayanth/quemu-v8/source/optee_os/lib/libutee/tee_api_panic.c:84
    3060:	910003fd 	mov	x29, sp
/home/jayanth/quemu-v8/source/optee_os/lib/libutee/tee_api_panic.c:85
    3064:	52800060 	mov	w0, #0x3                   	// #3
    3068:	97ffffab 	bl	2f14 <check_access>
/home/jayanth/quemu-v8/source/optee_os/lib/libutee/tee_api_panic.c:87
    306c:	a8c17bfd 	ldp	x29, x30, [sp], #16
/home/jayanth/quemu-v8/source/optee_os/lib/libutee/tee_api_panic.c:85
    3070:	17ffffb2 	b	2f38 <check_res.isra.0>

0000000000003074 <invoke_system_pta>:
invoke_system_pta():
/home/jayanth/quemu-v8/source/optee_os/lib/libutee/tee_system_pta.c:15
    3074:	a9bd7bfd 	stp	x29, x30, [sp, #-48]!
/home/jayanth/quemu-v8/source/optee_os/lib/libutee/tee_system_pta.c:19
    3078:	d0000043 	adrp	x3, d000 <_DYNAMIC>
/home/jayanth/quemu-v8/source/optee_os/lib/libutee/tee_system_pta.c:15
    307c:	910003fd 	mov	x29, sp
    3080:	a90153f3 	stp	x19, x20, [sp, #16]
    3084:	2a0003f4 	mov	w20, w0
    3088:	aa0303f3 	mov	x19, x3
/home/jayanth/quemu-v8/source/optee_os/lib/libutee/tee_system_pta.c:19
    308c:	f9423860 	ldr	x0, [x3, #1136]
/home/jayanth/quemu-v8/source/optee_os/lib/libutee/tee_system_pta.c:15
    3090:	a9025bf5 	stp	x21, x22, [sp, #32]
    3094:	2a0103f5 	mov	w21, w1
    3098:	aa0203f6 	mov	x22, x2
/home/jayanth/quemu-v8/source/optee_os/lib/libutee/tee_system_pta.c:19
    309c:	b4000160 	cbz	x0, 30c8 <invoke_system_pta+0x54>
/home/jayanth/quemu-v8/source/optee_os/lib/libutee/tee_system_pta.c:27
    30a0:	f9423a60 	ldr	x0, [x19, #1136]
    30a4:	aa1603e4 	mov	x4, x22
    30a8:	2a1503e3 	mov	w3, w21
    30ac:	2a1403e2 	mov	w2, w20
/home/jayanth/quemu-v8/source/optee_os/lib/libutee/tee_system_pta.c:29
    30b0:	a94153f3 	ldp	x19, x20, [sp, #16]
/home/jayanth/quemu-v8/source/optee_os/lib/libutee/tee_system_pta.c:27
    30b4:	d2800005 	mov	x5, #0x0                   	// #0
/home/jayanth/quemu-v8/source/optee_os/lib/libutee/tee_system_pta.c:29
    30b8:	a9425bf5 	ldp	x21, x22, [sp, #32]
/home/jayanth/quemu-v8/source/optee_os/lib/libutee/tee_system_pta.c:27
    30bc:	12800001 	mov	w1, #0xffffffff            	// #-1
/home/jayanth/quemu-v8/source/optee_os/lib/libutee/tee_system_pta.c:29
    30c0:	a8c37bfd 	ldp	x29, x30, [sp], #48
/home/jayanth/quemu-v8/source/optee_os/lib/libutee/tee_system_pta.c:27
    30c4:	17fffecd 	b	2bf8 <TEE_InvokeTACommand>
    30c8:	9111c064 	add	x4, x3, #0x470
/home/jayanth/quemu-v8/source/optee_os/lib/libutee/tee_system_pta.c:20
    30cc:	90000040 	adrp	x0, b000 <__text_end+0x1788>
    30d0:	d2800005 	mov	x5, #0x0                   	// #0
    30d4:	911fc000 	add	x0, x0, #0x7f0
    30d8:	d2800003 	mov	x3, #0x0                   	// #0
    30dc:	52800002 	mov	w2, #0x0                   	// #0
    30e0:	12800001 	mov	w1, #0xffffffff            	// #-1
    30e4:	97fffe87 	bl	2b00 <TEE_OpenTASession>
/home/jayanth/quemu-v8/source/optee_os/lib/libutee/tee_system_pta.c:23
    30e8:	34fffdc0 	cbz	w0, 30a0 <invoke_system_pta+0x2c>
/home/jayanth/quemu-v8/source/optee_os/lib/libutee/tee_system_pta.c:29
    30ec:	a94153f3 	ldp	x19, x20, [sp, #16]
    30f0:	a9425bf5 	ldp	x21, x22, [sp, #32]
    30f4:	a8c37bfd 	ldp	x29, x30, [sp], #48
    30f8:	d65f03c0 	ret

00000000000030fc <tee_map_zi>:
tee_map_zi():
/home/jayanth/quemu-v8/source/optee_os/lib/libutee/tee_system_pta.c:32
    30fc:	a9bb7bfd 	stp	x29, x30, [sp, #-80]!
/home/jayanth/quemu-v8/source/optee_os/lib/libutee/tee_system_pta.c:41
    3100:	f2607c1f 	tst	x0, #0xffffffff00000000
/home/jayanth/quemu-v8/source/optee_os/lib/libutee/tee_system_pta.c:32
    3104:	910003fd 	mov	x29, sp
/home/jayanth/quemu-v8/source/optee_os/lib/libutee/tee_system_pta.c:37
    3108:	a9017fff 	stp	xzr, xzr, [sp, #16]
/home/jayanth/quemu-v8/source/optee_os/lib/libutee/tee_system_pta.c:40
    310c:	b90013e0 	str	w0, [sp, #16]
/home/jayanth/quemu-v8/source/optee_os/lib/libutee/tee_system_pta.c:37
    3110:	a9027fff 	stp	xzr, xzr, [sp, #32]
    3114:	a9037fff 	stp	xzr, xzr, [sp, #48]
    3118:	a9047fff 	stp	xzr, xzr, [sp, #64]
/home/jayanth/quemu-v8/source/optee_os/lib/libutee/tee_system_pta.c:41
    311c:	54000060 	b.eq	3128 <tee_map_zi+0x2c>  // b.none
/home/jayanth/quemu-v8/source/optee_os/lib/libutee/tee_system_pta.c:43
    3120:	d2800000 	mov	x0, #0x0                   	// #0
    3124:	1400000d 	b	3158 <tee_map_zi+0x5c>
    3128:	340000a1 	cbz	w1, 313c <tee_map_zi+0x40>
    312c:	7100103f 	cmp	w1, #0x4
    3130:	54ffff81 	b.ne	3120 <tee_map_zi+0x24>  // b.any
/home/jayanth/quemu-v8/source/optee_os/lib/libutee/tee_system_pta.c:47
    3134:	52800020 	mov	w0, #0x1                   	// #1
    3138:	b90017e0 	str	w0, [sp, #20]
/home/jayanth/quemu-v8/source/optee_os/lib/libutee/tee_system_pta.c:53
    313c:	910043e2 	add	x2, sp, #0x10
    3140:	52802621 	mov	w1, #0x131                 	// #305
    3144:	52800040 	mov	w0, #0x2                   	// #2
    3148:	97ffffcb 	bl	3074 <invoke_system_pta>
/home/jayanth/quemu-v8/source/optee_os/lib/libutee/tee_system_pta.c:54
    314c:	35fffea0 	cbnz	w0, 3120 <tee_map_zi+0x24>
reg_pair_to_64():
/home/jayanth/quemu-v8/source/optee_os/lib/libutils/ext/include/util.h:156
    3150:	294407e0 	ldp	w0, w1, [sp, #32]
    3154:	aa008020 	orr	x0, x1, x0, lsl #32
tee_map_zi():
/home/jayanth/quemu-v8/source/optee_os/lib/libutee/tee_system_pta.c:59
    3158:	a8c57bfd 	ldp	x29, x30, [sp], #80
    315c:	d65f03c0 	ret

0000000000003160 <tee_unmap>:
tee_unmap():
/home/jayanth/quemu-v8/source/optee_os/lib/libutee/tee_system_pta.c:62
    3160:	a9b97bfd 	stp	x29, x30, [sp, #-112]!
    3164:	910003fd 	mov	x29, sp
    3168:	a90153f3 	stp	x19, x20, [sp, #16]
    316c:	aa0003f3 	mov	x19, x0
reg_pair_from_64():
/home/jayanth/quemu-v8/source/optee_os/lib/libutils/ext/include/util.h:162
    3170:	d360fc00 	lsr	x0, x0, #32
tee_unmap():
/home/jayanth/quemu-v8/source/optee_os/lib/libutee/tee_system_pta.c:68
    3174:	a9037fff 	stp	xzr, xzr, [sp, #48]
/home/jayanth/quemu-v8/source/optee_os/lib/libutee/tee_system_pta.c:73
    3178:	9100c3e2 	add	x2, sp, #0x30
/home/jayanth/quemu-v8/source/optee_os/lib/libutee/tee_system_pta.c:68
    317c:	a9047fff 	stp	xzr, xzr, [sp, #64]
/home/jayanth/quemu-v8/source/optee_os/lib/libutee/tee_system_pta.c:62
    3180:	f90013f5 	str	x21, [sp, #32]
    3184:	aa0103f5 	mov	x21, x1
/home/jayanth/quemu-v8/source/optee_os/lib/libutee/tee_system_pta.c:70
    3188:	b90033e1 	str	w1, [sp, #48]
/home/jayanth/quemu-v8/source/optee_os/lib/libutee/tee_system_pta.c:73
    318c:	52800221 	mov	w1, #0x11                  	// #17
reg_pair_from_64():
/home/jayanth/quemu-v8/source/optee_os/lib/libutils/ext/include/util.h:163
    3190:	29084fe0 	stp	w0, w19, [sp, #64]
tee_unmap():
/home/jayanth/quemu-v8/source/optee_os/lib/libutee/tee_system_pta.c:73
    3194:	52800060 	mov	w0, #0x3                   	// #3
/home/jayanth/quemu-v8/source/optee_os/lib/libutee/tee_system_pta.c:68
    3198:	a9057fff 	stp	xzr, xzr, [sp, #80]
    319c:	a9067fff 	stp	xzr, xzr, [sp, #96]
/home/jayanth/quemu-v8/source/optee_os/lib/libutee/tee_system_pta.c:73
    31a0:	97ffffb5 	bl	3074 <invoke_system_pta>
    31a4:	2a0003f4 	mov	w20, w0
/home/jayanth/quemu-v8/source/optee_os/lib/libutee/tee_system_pta.c:74
    31a8:	34000180 	cbz	w0, 31d8 <tee_unmap+0x78>
/home/jayanth/quemu-v8/source/optee_os/lib/libutee/tee_system_pta.c:75
    31ac:	90000040 	adrp	x0, b000 <__text_end+0x1788>
    31b0:	911fc000 	add	x0, x0, #0x7f0
    31b4:	b0000044 	adrp	x4, c000 <__func__.4194+0x3e3>
    31b8:	aa1503e6 	mov	x6, x21
    31bc:	aa1303e5 	mov	x5, x19
    31c0:	91041884 	add	x4, x4, #0x106
    31c4:	91004000 	add	x0, x0, #0x10
    31c8:	52800023 	mov	w3, #0x1                   	// #1
    31cc:	52800022 	mov	w2, #0x1                   	// #1
    31d0:	52800961 	mov	w1, #0x4b                  	// #75
    31d4:	97fff916 	bl	162c <trace_printf>
/home/jayanth/quemu-v8/source/optee_os/lib/libutee/tee_system_pta.c:78
    31d8:	2a1403e0 	mov	w0, w20
    31dc:	a94153f3 	ldp	x19, x20, [sp, #16]
    31e0:	f94013f5 	ldr	x21, [sp, #32]
    31e4:	a8c77bfd 	ldp	x29, x30, [sp], #112
    31e8:	d65f03c0 	ret

00000000000031ec <_utee_panic>:
_utee_panic():
/home/jayanth/quemu-v8/source/optee_os/lib/libutee/arch/arm/utee_syscalls_a64.S:41
    31ec:	a9bf7bfd 	stp	x29, x30, [sp, #-16]!
/home/jayanth/quemu-v8/source/optee_os/lib/libutee/arch/arm/utee_syscalls_a64.S:42
    31f0:	910003e1 	mov	x1, sp
/home/jayanth/quemu-v8/source/optee_os/lib/libutee/arch/arm/utee_syscalls_a64.S:43
    31f4:	94000007 	bl	3210 <__utee_panic>

00000000000031f8 <_utee_return>:
_utee_return():
/home/jayanth/quemu-v8/source/optee_os/lib/libutee/arch/arm/utee_syscalls_asm.S:8
    31f8:	d2800008 	mov	x8, #0x0                   	// #0
    31fc:	d4000001 	svc	#0x0
    3200:	d65f03c0 	ret

0000000000003204 <_utee_log>:
_utee_log():
/home/jayanth/quemu-v8/source/optee_os/lib/libutee/arch/arm/utee_syscalls_asm.S:10
    3204:	d2800028 	mov	x8, #0x1                   	// #1
    3208:	d4000001 	svc	#0x0
    320c:	d65f03c0 	ret

0000000000003210 <__utee_panic>:
__utee_panic():
/home/jayanth/quemu-v8/source/optee_os/lib/libutee/arch/arm/utee_syscalls_asm.S:12
    3210:	d2800048 	mov	x8, #0x2                   	// #2
    3214:	d4000001 	svc	#0x0
    3218:	d65f03c0 	ret

000000000000321c <_utee_get_property>:
_utee_get_property():
/home/jayanth/quemu-v8/source/optee_os/lib/libutee/arch/arm/utee_syscalls_asm.S:14
    321c:	d2800068 	mov	x8, #0x3                   	// #3
    3220:	d4000001 	svc	#0x0
    3224:	d65f03c0 	ret

0000000000003228 <_utee_get_property_name_to_index>:
_utee_get_property_name_to_index():
/home/jayanth/quemu-v8/source/optee_os/lib/libutee/arch/arm/utee_syscalls_asm.S:16
    3228:	d2800088 	mov	x8, #0x4                   	// #4
    322c:	d4000001 	svc	#0x0
    3230:	d65f03c0 	ret

0000000000003234 <_utee_open_ta_session>:
_utee_open_ta_session():
/home/jayanth/quemu-v8/source/optee_os/lib/libutee/arch/arm/utee_syscalls_asm.S:19
    3234:	d28000a8 	mov	x8, #0x5                   	// #5
    3238:	d4000001 	svc	#0x0
    323c:	d65f03c0 	ret

0000000000003240 <_utee_close_ta_session>:
_utee_close_ta_session():
/home/jayanth/quemu-v8/source/optee_os/lib/libutee/arch/arm/utee_syscalls_asm.S:21
    3240:	d28000c8 	mov	x8, #0x6                   	// #6
    3244:	d4000001 	svc	#0x0
    3248:	d65f03c0 	ret

000000000000324c <_utee_invoke_ta_command>:
_utee_invoke_ta_command():
/home/jayanth/quemu-v8/source/optee_os/lib/libutee/arch/arm/utee_syscalls_asm.S:23
    324c:	d28000e8 	mov	x8, #0x7                   	// #7
    3250:	d4000001 	svc	#0x0
    3254:	d65f03c0 	ret

0000000000003258 <_utee_get_cancellation_flag>:
_utee_get_cancellation_flag():
/home/jayanth/quemu-v8/source/optee_os/lib/libutee/arch/arm/utee_syscalls_asm.S:25
    3258:	d2800128 	mov	x8, #0x9                   	// #9
    325c:	d4000001 	svc	#0x0
    3260:	d65f03c0 	ret

0000000000003264 <_utee_check_access_rights>:
_utee_check_access_rights():
/home/jayanth/quemu-v8/source/optee_os/lib/libutee/arch/arm/utee_syscalls_asm.S:28
    3264:	d2800108 	mov	x8, #0x8                   	// #8
    3268:	d4000001 	svc	#0x0
    326c:	d65f03c0 	ret

0000000000003270 <_utee_unmask_cancellation>:
_utee_unmask_cancellation():
/home/jayanth/quemu-v8/source/optee_os/lib/libutee/arch/arm/utee_syscalls_asm.S:30
    3270:	d2800148 	mov	x8, #0xa                   	// #10
    3274:	d4000001 	svc	#0x0
    3278:	d65f03c0 	ret

000000000000327c <_utee_mask_cancellation>:
_utee_mask_cancellation():
/home/jayanth/quemu-v8/source/optee_os/lib/libutee/arch/arm/utee_syscalls_asm.S:32
    327c:	d2800168 	mov	x8, #0xb                   	// #11
    3280:	d4000001 	svc	#0x0
    3284:	d65f03c0 	ret

0000000000003288 <_utee_wait>:
_utee_wait():
/home/jayanth/quemu-v8/source/optee_os/lib/libutee/arch/arm/utee_syscalls_asm.S:34
    3288:	d2800188 	mov	x8, #0xc                   	// #12
    328c:	d4000001 	svc	#0x0
    3290:	d65f03c0 	ret

0000000000003294 <_utee_get_time>:
_utee_get_time():
/home/jayanth/quemu-v8/source/optee_os/lib/libutee/arch/arm/utee_syscalls_asm.S:36
    3294:	d28001a8 	mov	x8, #0xd                   	// #13
    3298:	d4000001 	svc	#0x0
    329c:	d65f03c0 	ret

00000000000032a0 <_utee_set_ta_time>:
_utee_set_ta_time():
/home/jayanth/quemu-v8/source/optee_os/lib/libutee/arch/arm/utee_syscalls_asm.S:38
    32a0:	d28001c8 	mov	x8, #0xe                   	// #14
    32a4:	d4000001 	svc	#0x0
    32a8:	d65f03c0 	ret

00000000000032ac <_utee_cryp_state_alloc>:
_utee_cryp_state_alloc():
/home/jayanth/quemu-v8/source/optee_os/lib/libutee/arch/arm/utee_syscalls_asm.S:40
    32ac:	d28001e8 	mov	x8, #0xf                   	// #15
    32b0:	d4000001 	svc	#0x0
    32b4:	d65f03c0 	ret

00000000000032b8 <_utee_cryp_state_copy>:
_utee_cryp_state_copy():
/home/jayanth/quemu-v8/source/optee_os/lib/libutee/arch/arm/utee_syscalls_asm.S:42
    32b8:	d2800208 	mov	x8, #0x10                  	// #16
    32bc:	d4000001 	svc	#0x0
    32c0:	d65f03c0 	ret

00000000000032c4 <_utee_cryp_state_free>:
_utee_cryp_state_free():
/home/jayanth/quemu-v8/source/optee_os/lib/libutee/arch/arm/utee_syscalls_asm.S:44
    32c4:	d2800228 	mov	x8, #0x11                  	// #17
    32c8:	d4000001 	svc	#0x0
    32cc:	d65f03c0 	ret

00000000000032d0 <_utee_hash_init>:
_utee_hash_init():
/home/jayanth/quemu-v8/source/optee_os/lib/libutee/arch/arm/utee_syscalls_asm.S:46
    32d0:	d2800248 	mov	x8, #0x12                  	// #18
    32d4:	d4000001 	svc	#0x0
    32d8:	d65f03c0 	ret

00000000000032dc <_utee_hash_update>:
_utee_hash_update():
/home/jayanth/quemu-v8/source/optee_os/lib/libutee/arch/arm/utee_syscalls_asm.S:48
    32dc:	d2800268 	mov	x8, #0x13                  	// #19
    32e0:	d4000001 	svc	#0x0
    32e4:	d65f03c0 	ret

00000000000032e8 <_utee_hash_final>:
_utee_hash_final():
/home/jayanth/quemu-v8/source/optee_os/lib/libutee/arch/arm/utee_syscalls_asm.S:50
    32e8:	d2800288 	mov	x8, #0x14                  	// #20
    32ec:	d4000001 	svc	#0x0
    32f0:	d65f03c0 	ret

00000000000032f4 <_utee_cipher_init>:
_utee_cipher_init():
/home/jayanth/quemu-v8/source/optee_os/lib/libutee/arch/arm/utee_syscalls_asm.S:52
    32f4:	d28002a8 	mov	x8, #0x15                  	// #21
    32f8:	d4000001 	svc	#0x0
    32fc:	d65f03c0 	ret

0000000000003300 <_utee_cipher_update>:
_utee_cipher_update():
/home/jayanth/quemu-v8/source/optee_os/lib/libutee/arch/arm/utee_syscalls_asm.S:54
    3300:	d28002c8 	mov	x8, #0x16                  	// #22
    3304:	d4000001 	svc	#0x0
    3308:	d65f03c0 	ret

000000000000330c <_utee_cipher_final>:
_utee_cipher_final():
/home/jayanth/quemu-v8/source/optee_os/lib/libutee/arch/arm/utee_syscalls_asm.S:56
    330c:	d28002e8 	mov	x8, #0x17                  	// #23
    3310:	d4000001 	svc	#0x0
    3314:	d65f03c0 	ret

0000000000003318 <_utee_cryp_obj_get_info>:
_utee_cryp_obj_get_info():
/home/jayanth/quemu-v8/source/optee_os/lib/libutee/arch/arm/utee_syscalls_asm.S:58
    3318:	d2800308 	mov	x8, #0x18                  	// #24
    331c:	d4000001 	svc	#0x0
    3320:	d65f03c0 	ret

0000000000003324 <_utee_cryp_obj_restrict_usage>:
_utee_cryp_obj_restrict_usage():
/home/jayanth/quemu-v8/source/optee_os/lib/libutee/arch/arm/utee_syscalls_asm.S:60
    3324:	d2800328 	mov	x8, #0x19                  	// #25
    3328:	d4000001 	svc	#0x0
    332c:	d65f03c0 	ret

0000000000003330 <_utee_cryp_obj_get_attr>:
_utee_cryp_obj_get_attr():
/home/jayanth/quemu-v8/source/optee_os/lib/libutee/arch/arm/utee_syscalls_asm.S:63
    3330:	d2800348 	mov	x8, #0x1a                  	// #26
    3334:	d4000001 	svc	#0x0
    3338:	d65f03c0 	ret

000000000000333c <_utee_cryp_obj_alloc>:
_utee_cryp_obj_alloc():
/home/jayanth/quemu-v8/source/optee_os/lib/libutee/arch/arm/utee_syscalls_asm.S:65
    333c:	d2800368 	mov	x8, #0x1b                  	// #27
    3340:	d4000001 	svc	#0x0
    3344:	d65f03c0 	ret

0000000000003348 <_utee_cryp_obj_close>:
_utee_cryp_obj_close():
/home/jayanth/quemu-v8/source/optee_os/lib/libutee/arch/arm/utee_syscalls_asm.S:67
    3348:	d2800388 	mov	x8, #0x1c                  	// #28
    334c:	d4000001 	svc	#0x0
    3350:	d65f03c0 	ret

0000000000003354 <_utee_cryp_obj_reset>:
_utee_cryp_obj_reset():
/home/jayanth/quemu-v8/source/optee_os/lib/libutee/arch/arm/utee_syscalls_asm.S:69
    3354:	d28003a8 	mov	x8, #0x1d                  	// #29
    3358:	d4000001 	svc	#0x0
    335c:	d65f03c0 	ret

0000000000003360 <_utee_cryp_obj_populate>:
_utee_cryp_obj_populate():
/home/jayanth/quemu-v8/source/optee_os/lib/libutee/arch/arm/utee_syscalls_asm.S:71
    3360:	d28003c8 	mov	x8, #0x1e                  	// #30
    3364:	d4000001 	svc	#0x0
    3368:	d65f03c0 	ret

000000000000336c <_utee_cryp_obj_copy>:
_utee_cryp_obj_copy():
/home/jayanth/quemu-v8/source/optee_os/lib/libutee/arch/arm/utee_syscalls_asm.S:73
    336c:	d28003e8 	mov	x8, #0x1f                  	// #31
    3370:	d4000001 	svc	#0x0
    3374:	d65f03c0 	ret

0000000000003378 <_utee_cryp_derive_key>:
_utee_cryp_derive_key():
/home/jayanth/quemu-v8/source/optee_os/lib/libutee/arch/arm/utee_syscalls_asm.S:75
    3378:	d2800408 	mov	x8, #0x20                  	// #32
    337c:	d4000001 	svc	#0x0
    3380:	d65f03c0 	ret

0000000000003384 <_utee_cryp_random_number_generate>:
_utee_cryp_random_number_generate():
/home/jayanth/quemu-v8/source/optee_os/lib/libutee/arch/arm/utee_syscalls_asm.S:77
    3384:	d2800428 	mov	x8, #0x21                  	// #33
    3388:	d4000001 	svc	#0x0
    338c:	d65f03c0 	ret

0000000000003390 <_utee_authenc_init>:
_utee_authenc_init():
/home/jayanth/quemu-v8/source/optee_os/lib/libutee/arch/arm/utee_syscalls_asm.S:80
    3390:	d2800448 	mov	x8, #0x22                  	// #34
    3394:	d4000001 	svc	#0x0
    3398:	d65f03c0 	ret

000000000000339c <_utee_authenc_update_aad>:
_utee_authenc_update_aad():
/home/jayanth/quemu-v8/source/optee_os/lib/libutee/arch/arm/utee_syscalls_asm.S:82
    339c:	d2800468 	mov	x8, #0x23                  	// #35
    33a0:	d4000001 	svc	#0x0
    33a4:	d65f03c0 	ret

00000000000033a8 <_utee_authenc_update_payload>:
_utee_authenc_update_payload():
/home/jayanth/quemu-v8/source/optee_os/lib/libutee/arch/arm/utee_syscalls_asm.S:84
    33a8:	d2800488 	mov	x8, #0x24                  	// #36
    33ac:	d4000001 	svc	#0x0
    33b0:	d65f03c0 	ret

00000000000033b4 <_utee_authenc_enc_final>:
_utee_authenc_enc_final():
/home/jayanth/quemu-v8/source/optee_os/lib/libutee/arch/arm/utee_syscalls_asm.S:87
    33b4:	d28004a8 	mov	x8, #0x25                  	// #37
    33b8:	d4000001 	svc	#0x0
    33bc:	d65f03c0 	ret

00000000000033c0 <_utee_authenc_dec_final>:
_utee_authenc_dec_final():
/home/jayanth/quemu-v8/source/optee_os/lib/libutee/arch/arm/utee_syscalls_asm.S:89
    33c0:	d28004c8 	mov	x8, #0x26                  	// #38
    33c4:	d4000001 	svc	#0x0
    33c8:	d65f03c0 	ret

00000000000033cc <_utee_asymm_operate>:
_utee_asymm_operate():
/home/jayanth/quemu-v8/source/optee_os/lib/libutee/arch/arm/utee_syscalls_asm.S:91
    33cc:	d28004e8 	mov	x8, #0x27                  	// #39
    33d0:	d4000001 	svc	#0x0
    33d4:	d65f03c0 	ret

00000000000033d8 <_utee_asymm_verify>:
_utee_asymm_verify():
/home/jayanth/quemu-v8/source/optee_os/lib/libutee/arch/arm/utee_syscalls_asm.S:93
    33d8:	d2800508 	mov	x8, #0x28                  	// #40
    33dc:	d4000001 	svc	#0x0
    33e0:	d65f03c0 	ret

00000000000033e4 <_utee_storage_obj_open>:
_utee_storage_obj_open():
/home/jayanth/quemu-v8/source/optee_os/lib/libutee/arch/arm/utee_syscalls_asm.S:95
    33e4:	d2800528 	mov	x8, #0x29                  	// #41
    33e8:	d4000001 	svc	#0x0
    33ec:	d65f03c0 	ret

00000000000033f0 <_utee_storage_obj_create>:
_utee_storage_obj_create():
/home/jayanth/quemu-v8/source/optee_os/lib/libutee/arch/arm/utee_syscalls_asm.S:97
    33f0:	d2800548 	mov	x8, #0x2a                  	// #42
    33f4:	d4000001 	svc	#0x0
    33f8:	d65f03c0 	ret

00000000000033fc <_utee_storage_obj_del>:
_utee_storage_obj_del():
/home/jayanth/quemu-v8/source/optee_os/lib/libutee/arch/arm/utee_syscalls_asm.S:99
    33fc:	d2800568 	mov	x8, #0x2b                  	// #43
    3400:	d4000001 	svc	#0x0
    3404:	d65f03c0 	ret

0000000000003408 <_utee_storage_obj_rename>:
_utee_storage_obj_rename():
/home/jayanth/quemu-v8/source/optee_os/lib/libutee/arch/arm/utee_syscalls_asm.S:101
    3408:	d2800588 	mov	x8, #0x2c                  	// #44
    340c:	d4000001 	svc	#0x0
    3410:	d65f03c0 	ret

0000000000003414 <_utee_storage_alloc_enum>:
_utee_storage_alloc_enum():
/home/jayanth/quemu-v8/source/optee_os/lib/libutee/arch/arm/utee_syscalls_asm.S:103
    3414:	d28005a8 	mov	x8, #0x2d                  	// #45
    3418:	d4000001 	svc	#0x0
    341c:	d65f03c0 	ret

0000000000003420 <_utee_storage_free_enum>:
_utee_storage_free_enum():
/home/jayanth/quemu-v8/source/optee_os/lib/libutee/arch/arm/utee_syscalls_asm.S:105
    3420:	d28005c8 	mov	x8, #0x2e                  	// #46
    3424:	d4000001 	svc	#0x0
    3428:	d65f03c0 	ret

000000000000342c <_utee_storage_reset_enum>:
_utee_storage_reset_enum():
/home/jayanth/quemu-v8/source/optee_os/lib/libutee/arch/arm/utee_syscalls_asm.S:107
    342c:	d28005e8 	mov	x8, #0x2f                  	// #47
    3430:	d4000001 	svc	#0x0
    3434:	d65f03c0 	ret

0000000000003438 <_utee_storage_start_enum>:
_utee_storage_start_enum():
/home/jayanth/quemu-v8/source/optee_os/lib/libutee/arch/arm/utee_syscalls_asm.S:109
    3438:	d2800608 	mov	x8, #0x30                  	// #48
    343c:	d4000001 	svc	#0x0
    3440:	d65f03c0 	ret

0000000000003444 <_utee_storage_next_enum>:
_utee_storage_next_enum():
/home/jayanth/quemu-v8/source/optee_os/lib/libutee/arch/arm/utee_syscalls_asm.S:111
    3444:	d2800628 	mov	x8, #0x31                  	// #49
    3448:	d4000001 	svc	#0x0
    344c:	d65f03c0 	ret

0000000000003450 <_utee_storage_obj_read>:
_utee_storage_obj_read():
/home/jayanth/quemu-v8/source/optee_os/lib/libutee/arch/arm/utee_syscalls_asm.S:113
    3450:	d2800648 	mov	x8, #0x32                  	// #50
    3454:	d4000001 	svc	#0x0
    3458:	d65f03c0 	ret

000000000000345c <_utee_storage_obj_write>:
_utee_storage_obj_write():
/home/jayanth/quemu-v8/source/optee_os/lib/libutee/arch/arm/utee_syscalls_asm.S:115
    345c:	d2800668 	mov	x8, #0x33                  	// #51
    3460:	d4000001 	svc	#0x0
    3464:	d65f03c0 	ret

0000000000003468 <_utee_storage_obj_trunc>:
_utee_storage_obj_trunc():
/home/jayanth/quemu-v8/source/optee_os/lib/libutee/arch/arm/utee_syscalls_asm.S:117
    3468:	d2800688 	mov	x8, #0x34                  	// #52
    346c:	d4000001 	svc	#0x0
    3470:	d65f03c0 	ret

0000000000003474 <_utee_storage_obj_seek>:
_utee_storage_obj_seek():
/home/jayanth/quemu-v8/source/optee_os/lib/libutee/arch/arm/utee_syscalls_asm.S:119
    3474:	d28006a8 	mov	x8, #0x35                  	// #53
    3478:	d4000001 	svc	#0x0
    347c:	d65f03c0 	ret

0000000000003480 <_utee_cryp_obj_generate_key>:
_utee_cryp_obj_generate_key():
/home/jayanth/quemu-v8/source/optee_os/lib/libutee/arch/arm/utee_syscalls_asm.S:121
    3480:	d28006c8 	mov	x8, #0x36                  	// #54
    3484:	d4000001 	svc	#0x0
    3488:	d65f03c0 	ret

000000000000348c <_utee_cache_operation>:
_utee_cache_operation():
/home/jayanth/quemu-v8/source/optee_os/lib/libutee/arch/arm/utee_syscalls_asm.S:124
    348c:	d28008c8 	mov	x8, #0x46                  	// #70
    3490:	d4000001 	svc	#0x0
    3494:	d65f03c0 	ret

0000000000003498 <__utee_tcb_init>:
__utee_tcb_init():
/home/jayanth/quemu-v8/source/optee_os/lib/libutee/arch/arm/tcb.c:87
    3498:	a9b87bfd 	stp	x29, x30, [sp, #-128]!
/home/jayanth/quemu-v8/source/optee_os/lib/libutee/arch/arm/tcb.c:96
    349c:	d0000041 	adrp	x1, d000 <_DYNAMIC>
    34a0:	d2800003 	mov	x3, #0x0                   	// #0
/home/jayanth/quemu-v8/source/optee_os/lib/libutee/arch/arm/tcb.c:87
    34a4:	910003fd 	mov	x29, sp
/home/jayanth/quemu-v8/source/optee_os/lib/libutee/arch/arm/tcb.c:96
    34a8:	f940c020 	ldr	x0, [x1, #384]
/home/jayanth/quemu-v8/source/optee_os/lib/libutee/arch/arm/tcb.c:87
    34ac:	a90363f7 	stp	x23, x24, [sp, #48]
    34b0:	aa0103f7 	mov	x23, x1
/home/jayanth/quemu-v8/source/optee_os/lib/libutee/arch/arm/tcb.c:99
    34b4:	d2800706 	mov	x6, #0x38                  	// #56
/home/jayanth/quemu-v8/source/optee_os/lib/libutee/arch/arm/tcb.c:87
    34b8:	a90153f3 	stp	x19, x20, [sp, #16]
/home/jayanth/quemu-v8/source/optee_os/lib/libutee/arch/arm/tcb.c:96
    34bc:	79400805 	ldrh	w5, [x0, #4]
    34c0:	f9400400 	ldr	x0, [x0, #8]
/home/jayanth/quemu-v8/source/optee_os/lib/libutee/arch/arm/tcb.c:87
    34c4:	a9025bf5 	stp	x21, x22, [sp, #32]
    34c8:	91004000 	add	x0, x0, #0x10
    34cc:	a9046bf9 	stp	x25, x26, [sp, #64]
/home/jayanth/quemu-v8/source/optee_os/lib/libutee/arch/arm/tcb.c:90
    34d0:	d2800019 	mov	x25, #0x0                   	// #0
/home/jayanth/quemu-v8/source/optee_os/lib/libutee/arch/arm/tcb.c:87
    34d4:	a90573fb 	stp	x27, x28, [sp, #80]
/home/jayanth/quemu-v8/source/optee_os/lib/libutee/arch/arm/tcb.c:96 (discriminator 1)
    34d8:	eb0300bf 	cmp	x5, x3
    34dc:	540001e8 	b.hi	3518 <__utee_tcb_init+0x80>  // b.pmore
/home/jayanth/quemu-v8/source/optee_os/lib/libutee/arch/arm/tcb.c:108
    34e0:	d0000056 	adrp	x22, d000 <_DYNAMIC>
    34e4:	9111e2d5 	add	x21, x22, #0x478
    34e8:	f9423ed8 	ldr	x24, [x22, #1144]
    34ec:	eb19031f 	cmp	x24, x25
    34f0:	54000369 	b.ls	355c <__utee_tcb_init+0xc4>  // b.plast
/home/jayanth/quemu-v8/source/optee_os/lib/libutee/arch/arm/tcb.c:108 (discriminator 1)
    34f4:	b0000043 	adrp	x3, c000 <__func__.4194+0x3e3>
    34f8:	b0000041 	adrp	x1, c000 <__func__.4194+0x3e3>
    34fc:	91071863 	add	x3, x3, #0x1c6
    3500:	9104c021 	add	x1, x1, #0x130
    3504:	b0000040 	adrp	x0, c000 <__func__.4194+0x3e3>
    3508:	91052c00 	add	x0, x0, #0x14b
    350c:	52800d82 	mov	w2, #0x6c                  	// #108
    3510:	97fffbc3 	bl	241c <_assert_log>
    3514:	97fffbd3 	bl	2460 <_assert_break>
/home/jayanth/quemu-v8/source/optee_os/lib/libutee/arch/arm/tcb.c:98
    3518:	79401007 	ldrh	w7, [x0, #8]
    351c:	d2800001 	mov	x1, #0x0                   	// #0
/home/jayanth/quemu-v8/source/optee_os/lib/libutee/arch/arm/tcb.c:98 (discriminator 1)
    3520:	eb0100ff 	cmp	x7, x1
    3524:	54000129 	b.ls	3548 <__utee_tcb_init+0xb0>  // b.plast
/home/jayanth/quemu-v8/source/optee_os/lib/libutee/arch/arm/tcb.c:99
    3528:	9b067c22 	mul	x2, x1, x6
    352c:	f9400004 	ldr	x4, [x0]
    3530:	8b020088 	add	x8, x4, x2
/home/jayanth/quemu-v8/source/optee_os/lib/libutee/arch/arm/tcb.c:100
    3534:	b8626882 	ldr	w2, [x4, x2]
    3538:	71001c5f 	cmp	w2, #0x7
    353c:	540000c1 	b.ne	3554 <__utee_tcb_init+0xbc>  // b.any
/home/jayanth/quemu-v8/source/optee_os/lib/libutee/arch/arm/tcb.c:101
    3540:	f9401501 	ldr	x1, [x8, #40]
    3544:	8b010339 	add	x25, x25, x1
/home/jayanth/quemu-v8/source/optee_os/lib/libutee/arch/arm/tcb.c:96 (discriminator 2)
    3548:	91000463 	add	x3, x3, #0x1
    354c:	91010000 	add	x0, x0, #0x40
    3550:	17ffffe2 	b	34d8 <__utee_tcb_init+0x40>
/home/jayanth/quemu-v8/source/optee_os/lib/libutee/arch/arm/tcb.c:98 (discriminator 2)
    3554:	91000421 	add	x1, x1, #0x1
    3558:	17fffff2 	b	3520 <__utee_tcb_init+0x88>
/home/jayanth/quemu-v8/source/optee_os/lib/libutee/arch/arm/tcb.c:110 (discriminator 2)
    355c:	54000660 	b.eq	3628 <__utee_tcb_init+0x190>  // b.none
/home/jayanth/quemu-v8/source/optee_os/lib/libutee/arch/arm/tcb.c:114
    3560:	f94006a0 	ldr	x0, [x21, #8]
    3564:	91004334 	add	x20, x25, #0x10
    3568:	aa1403e1 	mov	x1, x20
    356c:	97fff69a 	bl	fd4 <realloc>
    3570:	f90006a0 	str	x0, [x21, #8]
    3574:	aa0003f3 	mov	x19, x0
/home/jayanth/quemu-v8/source/optee_os/lib/libutee/arch/arm/tcb.c:115
    3578:	b5000160 	cbnz	x0, 35a4 <__utee_tcb_init+0x10c>
/home/jayanth/quemu-v8/source/optee_os/lib/libutee/arch/arm/tcb.c:116
    357c:	b0000044 	adrp	x4, c000 <__func__.4194+0x3e3>
    3580:	aa1403e5 	mov	x5, x20
    3584:	91058c84 	add	x4, x4, #0x163
    3588:	52800023 	mov	w3, #0x1                   	// #1
    358c:	52800022 	mov	w2, #0x1                   	// #1
    3590:	52800e81 	mov	w1, #0x74                  	// #116
/home/jayanth/quemu-v8/source/optee_os/lib/libutee/arch/arm/tcb.c:124
    3594:	b0000040 	adrp	x0, c000 <__func__.4194+0x3e3>
    3598:	91071800 	add	x0, x0, #0x1c6
    359c:	97fff824 	bl	162c <trace_printf>
/home/jayanth/quemu-v8/source/optee_os/lib/libutee/arch/arm/tcb.c:125
    35a0:	9400022d 	bl	3e54 <abort>
/home/jayanth/quemu-v8/source/optee_os/lib/libutee/arch/arm/tcb.c:121
    35a4:	f940c2e0 	ldr	x0, [x23, #384]
    35a8:	79400814 	ldrh	w20, [x0, #4]
/home/jayanth/quemu-v8/source/optee_os/lib/libutee/arch/arm/tcb.c:122
    35ac:	f9400260 	ldr	x0, [x19]
/home/jayanth/quemu-v8/source/optee_os/lib/libutee/arch/arm/tcb.c:121
    35b0:	91000a94 	add	x20, x20, #0x2
    35b4:	d37df294 	lsl	x20, x20, #3
/home/jayanth/quemu-v8/source/optee_os/lib/libutee/arch/arm/tcb.c:122
    35b8:	aa1403e1 	mov	x1, x20
    35bc:	97fff686 	bl	fd4 <realloc>
    35c0:	f9000260 	str	x0, [x19]
/home/jayanth/quemu-v8/source/optee_os/lib/libutee/arch/arm/tcb.c:123
    35c4:	b5000800 	cbnz	x0, 36c4 <__utee_tcb_init+0x22c>
/home/jayanth/quemu-v8/source/optee_os/lib/libutee/arch/arm/tcb.c:124
    35c8:	b0000044 	adrp	x4, c000 <__func__.4194+0x3e3>
    35cc:	aa1403e5 	mov	x5, x20
    35d0:	91061484 	add	x4, x4, #0x185
    35d4:	52800023 	mov	w3, #0x1                   	// #1
    35d8:	52800022 	mov	w2, #0x1                   	// #1
    35dc:	52800f81 	mov	w1, #0x7c                  	// #124
    35e0:	17ffffed 	b	3594 <__utee_tcb_init+0xfc>
/home/jayanth/quemu-v8/source/optee_os/lib/libutee/arch/arm/tcb.c:131
    35e4:	f940043c 	ldr	x28, [x1, #8]
    35e8:	91000414 	add	x20, x0, #0x1
/home/jayanth/quemu-v8/source/optee_os/lib/libutee/arch/arm/tcb.c:132
    35ec:	d2800003 	mov	x3, #0x0                   	// #0
/home/jayanth/quemu-v8/source/optee_os/lib/libutee/arch/arm/tcb.c:140
    35f0:	d37df285 	lsl	x5, x20, #3
/home/jayanth/quemu-v8/source/optee_os/lib/libutee/arch/arm/tcb.c:131
    35f4:	8b001b9c 	add	x28, x28, x0, lsl #6
/home/jayanth/quemu-v8/source/optee_os/lib/libutee/arch/arm/tcb.c:132 (discriminator 1)
    35f8:	79403380 	ldrh	w0, [x28, #24]
    35fc:	eb03001f 	cmp	x0, x3
    3600:	54000228 	b.hi	3644 <__utee_tcb_init+0x1ac>  // b.pmore
    3604:	aa1403e0 	mov	x0, x20
/home/jayanth/quemu-v8/source/optee_os/lib/libutee/arch/arm/tcb.c:130 (discriminator 1)
    3608:	f940c2e1 	ldr	x1, [x23, #384]
    360c:	79400822 	ldrh	w2, [x1, #4]
    3610:	eb02001f 	cmp	x0, x2
    3614:	54fffe83 	b.cc	35e4 <__utee_tcb_init+0x14c>  // b.lo, b.ul, b.last
/home/jayanth/quemu-v8/source/optee_os/lib/libutee/arch/arm/tcb.c:151
    3618:	f9400261 	ldr	x1, [x19]
/home/jayanth/quemu-v8/source/optee_os/lib/libutee/arch/arm/tcb.c:153
    361c:	f9023ed9 	str	x25, [x22, #1144]
/home/jayanth/quemu-v8/source/optee_os/lib/libutee/arch/arm/tcb.c:151
    3620:	f9000020 	str	x0, [x1]
write_tpidr_el0():
/home/jayanth/quemu-v8/source/optee_os/lib/libutee/include/arm64_user_sysreg.h:36
    3624:	d51bd053 	msr	tpidr_el0, x19
__utee_tcb_init():
/home/jayanth/quemu-v8/source/optee_os/lib/libutee/arch/arm/tcb.c:161
    3628:	a94153f3 	ldp	x19, x20, [sp, #16]
    362c:	a9425bf5 	ldp	x21, x22, [sp, #32]
    3630:	a94363f7 	ldp	x23, x24, [sp, #48]
    3634:	a9446bf9 	ldp	x25, x26, [sp, #64]
    3638:	a94573fb 	ldp	x27, x28, [sp, #80]
    363c:	a8c87bfd 	ldp	x29, x30, [sp], #128
    3640:	d65f03c0 	ret
/home/jayanth/quemu-v8/source/optee_os/lib/libutee/arch/arm/tcb.c:133
    3644:	9b047c60 	mul	x0, x3, x4
    3648:	f9400b81 	ldr	x1, [x28, #16]
    364c:	8b000035 	add	x21, x1, x0
/home/jayanth/quemu-v8/source/optee_os/lib/libutee/arch/arm/tcb.c:134
    3650:	b8606820 	ldr	w0, [x1, x0]
    3654:	71001c1f 	cmp	w0, #0x7
    3658:	54000321 	b.ne	36bc <__utee_tcb_init+0x224>  // b.any
/home/jayanth/quemu-v8/source/optee_os/lib/libutee/arch/arm/tcb.c:136
    365c:	f94016a0 	ldr	x0, [x21, #40]
    3660:	f9003fe3 	str	x3, [sp, #120]
    3664:	8b000340 	add	x0, x26, x0
    3668:	eb00031f 	cmp	x24, x0
    366c:	54fffcc2 	b.cs	3604 <__utee_tcb_init+0x16c>  // b.hs, b.nlast
/home/jayanth/quemu-v8/source/optee_os/lib/libutee/arch/arm/tcb.c:140
    3670:	f9400261 	ldr	x1, [x19]
    3674:	8b1a0360 	add	x0, x27, x26
/home/jayanth/quemu-v8/source/optee_os/lib/libutee/arch/arm/tcb.c:143
    3678:	f9400386 	ldr	x6, [x28]
    367c:	a90693e5 	stp	x5, x4, [sp, #104]
/home/jayanth/quemu-v8/source/optee_os/lib/libutee/arch/arm/tcb.c:142
    3680:	f94012a2 	ldr	x2, [x21, #32]
/home/jayanth/quemu-v8/source/optee_os/lib/libutee/arch/arm/tcb.c:140
    3684:	f8256820 	str	x0, [x1, x5]
/home/jayanth/quemu-v8/source/optee_os/lib/libutee/arch/arm/tcb.c:143
    3688:	f9400aa1 	ldr	x1, [x21, #16]
/home/jayanth/quemu-v8/source/optee_os/lib/libutee/arch/arm/tcb.c:142
    368c:	8b0100c1 	add	x1, x6, x1
    3690:	97fff264 	bl	20 <memcpy>
/home/jayanth/quemu-v8/source/optee_os/lib/libutee/arch/arm/tcb.c:146
    3694:	a9420aa1 	ldp	x1, x2, [x21, #32]
    3698:	8b1a0020 	add	x0, x1, x26
    369c:	cb010042 	sub	x2, x2, x1
    36a0:	8b000360 	add	x0, x27, x0
    36a4:	52800001 	mov	w1, #0x0                   	// #0
    36a8:	97fff74c 	bl	13d8 <memset>
/home/jayanth/quemu-v8/source/optee_os/lib/libutee/arch/arm/tcb.c:148
    36ac:	f94016a0 	ldr	x0, [x21, #40]
    36b0:	a94693e5 	ldp	x5, x4, [sp, #104]
    36b4:	8b00035a 	add	x26, x26, x0
    36b8:	f9403fe3 	ldr	x3, [sp, #120]
/home/jayanth/quemu-v8/source/optee_os/lib/libutee/arch/arm/tcb.c:132 (discriminator 2)
    36bc:	91000463 	add	x3, x3, #0x1
    36c0:	17ffffce 	b	35f8 <__utee_tcb_init+0x160>
/home/jayanth/quemu-v8/source/optee_os/lib/libutee/arch/arm/tcb.c:140
    36c4:	9100427b 	add	x27, x19, #0x10
    36c8:	d2800000 	mov	x0, #0x0                   	// #0
/home/jayanth/quemu-v8/source/optee_os/lib/libutee/arch/arm/tcb.c:129
    36cc:	d280001a 	mov	x26, #0x0                   	// #0
/home/jayanth/quemu-v8/source/optee_os/lib/libutee/arch/arm/tcb.c:133
    36d0:	d2800704 	mov	x4, #0x38                  	// #56
    36d4:	17ffffcd 	b	3608 <__utee_tcb_init+0x170>

00000000000036d8 <__tls_get_addr>:
__tls_get_addr():
/home/jayanth/quemu-v8/source/optee_os/lib/libutee/arch/arm/tcb.c:172
    36d8:	d0000041 	adrp	x1, d000 <_DYNAMIC>
    36dc:	a9400002 	ldp	x2, x0, [x0]
    36e0:	f9424021 	ldr	x1, [x1, #1152]
    36e4:	f9400021 	ldr	x1, [x1]
    36e8:	f8627821 	ldr	x1, [x1, x2, lsl #3]
/home/jayanth/quemu-v8/source/optee_os/lib/libutee/arch/arm/tcb.c:173
    36ec:	8b000020 	add	x0, x1, x0
    36f0:	d65f03c0 	ret

00000000000036f4 <dl_iterate_phdr>:
dl_iterate_phdr():
/home/jayanth/quemu-v8/source/optee_os/lib/libutee/arch/arm/tcb.c:177
    36f4:	a9bb7bfd 	stp	x29, x30, [sp, #-80]!
    36f8:	910003fd 	mov	x29, sp
    36fc:	a90153f3 	stp	x19, x20, [sp, #16]
    3700:	a9025bf5 	stp	x21, x22, [sp, #32]
    3704:	a90363f7 	stp	x23, x24, [sp, #48]
    3708:	aa0003f7 	mov	x23, x0
    370c:	aa0103f8 	mov	x24, x1
/home/jayanth/quemu-v8/source/optee_os/lib/libutee/arch/arm/tcb.c:190
    3710:	d2800020 	mov	x0, #0x1                   	// #1
    3714:	d2800801 	mov	x1, #0x40                  	// #64
/home/jayanth/quemu-v8/source/optee_os/lib/libutee/arch/arm/tcb.c:177
    3718:	f90023f9 	str	x25, [sp, #64]
/home/jayanth/quemu-v8/source/optee_os/lib/libutee/arch/arm/tcb.c:190
    371c:	97fff614 	bl	f6c <calloc>
/home/jayanth/quemu-v8/source/optee_os/lib/libutee/arch/arm/tcb.c:191
    3720:	b5000520 	cbnz	x0, 37c4 <dl_iterate_phdr+0xd0>
/home/jayanth/quemu-v8/source/optee_os/lib/libutee/arch/arm/tcb.c:192
    3724:	b0000040 	adrp	x0, c000 <__func__.4194+0x3e3>
    3728:	91071800 	add	x0, x0, #0x1c6
    372c:	91004000 	add	x0, x0, #0x10
    3730:	b0000044 	adrp	x4, c000 <__func__.4194+0x3e3>
    3734:	91069c84 	add	x4, x4, #0x1a7
    3738:	52800023 	mov	w3, #0x1                   	// #1
    373c:	52800022 	mov	w2, #0x1                   	// #1
    3740:	52801801 	mov	w1, #0xc0                  	// #192
    3744:	97fff7ba 	bl	162c <trace_printf>
/home/jayanth/quemu-v8/source/optee_os/lib/libutee/arch/arm/tcb.c:193
    3748:	940001c3 	bl	3e54 <abort>
/home/jayanth/quemu-v8/source/optee_os/lib/libutee/arch/arm/tcb.c:197
    374c:	f94006c1 	ldr	x1, [x22, #8]
    3750:	aa1303e0 	mov	x0, x19
    3754:	d2800802 	mov	x2, #0x40                  	// #64
    3758:	8b151821 	add	x1, x1, x21, lsl #6
    375c:	97fff231 	bl	20 <memcpy>
/home/jayanth/quemu-v8/source/optee_os/lib/libutee/arch/arm/tcb.c:199
    3760:	f9401a60 	ldr	x0, [x19, #48]
/home/jayanth/quemu-v8/source/optee_os/lib/libutee/arch/arm/tcb.c:198
    3764:	f9001e7f 	str	xzr, [x19, #56]
/home/jayanth/quemu-v8/source/optee_os/lib/libutee/arch/arm/tcb.c:200
    3768:	b40000a0 	cbz	x0, 377c <dl_iterate_phdr+0x88>
/home/jayanth/quemu-v8/source/optee_os/lib/libutee/arch/arm/tcb.c:201
    376c:	f9400721 	ldr	x1, [x25, #8]
    3770:	f9400021 	ldr	x1, [x1]
    3774:	f8607820 	ldr	x0, [x1, x0, lsl #3]
    3778:	f9001e60 	str	x0, [x19, #56]
/home/jayanth/quemu-v8/source/optee_os/lib/libutee/arch/arm/tcb.c:202 (discriminator 2)
    377c:	aa1803e2 	mov	x2, x24
    3780:	aa1303e0 	mov	x0, x19
    3784:	d2800801 	mov	x1, #0x40                  	// #64
/home/jayanth/quemu-v8/source/optee_os/lib/libutee/arch/arm/tcb.c:196 (discriminator 2)
    3788:	910006b5 	add	x21, x21, #0x1
/home/jayanth/quemu-v8/source/optee_os/lib/libutee/arch/arm/tcb.c:202 (discriminator 2)
    378c:	d63f02e0 	blr	x23
    3790:	2a0003f4 	mov	w20, w0
/home/jayanth/quemu-v8/source/optee_os/lib/libutee/arch/arm/tcb.c:196 (discriminator 1)
    3794:	79400ac0 	ldrh	w0, [x22, #4]
    3798:	eb15001f 	cmp	x0, x21
    379c:	54fffd88 	b.hi	374c <dl_iterate_phdr+0x58>  // b.pmore
/home/jayanth/quemu-v8/source/optee_os/lib/libutee/arch/arm/tcb.c:205
    37a0:	aa1303e0 	mov	x0, x19
    37a4:	97fff640 	bl	10a4 <free>
/home/jayanth/quemu-v8/source/optee_os/lib/libutee/arch/arm/tcb.c:207
    37a8:	2a1403e0 	mov	w0, w20
    37ac:	a94153f3 	ldp	x19, x20, [sp, #16]
    37b0:	a9425bf5 	ldp	x21, x22, [sp, #32]
    37b4:	a94363f7 	ldp	x23, x24, [sp, #48]
    37b8:	f94023f9 	ldr	x25, [sp, #64]
    37bc:	a8c57bfd 	ldp	x29, x30, [sp], #80
    37c0:	d65f03c0 	ret
/home/jayanth/quemu-v8/source/optee_os/lib/libutee/arch/arm/tcb.c:196
    37c4:	d0000056 	adrp	x22, d000 <_DYNAMIC>
/home/jayanth/quemu-v8/source/optee_os/lib/libutee/arch/arm/tcb.c:201
    37c8:	d0000059 	adrp	x25, d000 <_DYNAMIC>
    37cc:	aa0003f3 	mov	x19, x0
    37d0:	9111e339 	add	x25, x25, #0x478
/home/jayanth/quemu-v8/source/optee_os/lib/libutee/arch/arm/tcb.c:196
    37d4:	f940c2d6 	ldr	x22, [x22, #384]
/home/jayanth/quemu-v8/source/optee_os/lib/libutee/arch/arm/tcb.c:181
    37d8:	52800014 	mov	w20, #0x0                   	// #0
/home/jayanth/quemu-v8/source/optee_os/lib/libutee/arch/arm/tcb.c:196
    37dc:	d2800015 	mov	x21, #0x0                   	// #0
    37e0:	17ffffed 	b	3794 <dl_iterate_phdr+0xa0>

00000000000037e4 <ta_header_get_session>:
ta_header_get_session():
/home/jayanth/quemu-v8/source/optee_os/lib/libutee/arch/arm/user_ta_entry.c:183
    37e4:	2a0003e1 	mov	w1, w0
/home/jayanth/quemu-v8/source/optee_os/lib/libutee/arch/arm/user_ta_entry.c:186
    37e8:	d0000040 	adrp	x0, d000 <_DYNAMIC>
    37ec:	f9421400 	ldr	x0, [x0, #1064]
/home/jayanth/quemu-v8/source/optee_os/lib/libutee/arch/arm/user_ta_entry.c:186 (discriminator 1)
    37f0:	b5000040 	cbnz	x0, 37f8 <ta_header_get_session+0x14>
/home/jayanth/quemu-v8/source/optee_os/lib/libutee/arch/arm/user_ta_entry.c:191
    37f4:	d65f03c0 	ret
/home/jayanth/quemu-v8/source/optee_os/lib/libutee/arch/arm/user_ta_entry.c:187
    37f8:	b9400002 	ldr	w2, [x0]
    37fc:	6b01005f 	cmp	w2, w1
    3800:	54ffffa0 	b.eq	37f4 <ta_header_get_session+0x10>  // b.none
/home/jayanth/quemu-v8/source/optee_os/lib/libutee/arch/arm/user_ta_entry.c:186 (discriminator 2)
    3804:	f9400800 	ldr	x0, [x0, #16]
    3808:	17fffffa 	b	37f0 <ta_header_get_session+0xc>

000000000000380c <to_utee_params>:
to_utee_params():
/home/jayanth/quemu-v8/source/optee_os/lib/libutee/arch/arm/user_ta_entry.c:245
    380c:	2a0103e3 	mov	w3, w1
    3810:	f8008403 	str	x3, [x0], #8
    3814:	52800003 	mov	w3, #0x0                   	// #0
/home/jayanth/quemu-v8/source/optee_os/lib/libutee/arch/arm/user_ta_entry.c:247
    3818:	1ac32425 	lsr	w5, w1, w3
    381c:	12000ca4 	and	w4, w5, #0xf
    3820:	721e04bf 	tst	w5, #0xc
    3824:	54000181 	b.ne	3854 <to_utee_params+0x48>  // b.any
    3828:	340001c4 	cbz	w4, 3860 <to_utee_params+0x54>
/home/jayanth/quemu-v8/source/optee_os/lib/libutee/arch/arm/user_ta_entry.c:251
    382c:	b9400044 	ldr	w4, [x2]
    3830:	f9000004 	str	x4, [x0]
/home/jayanth/quemu-v8/source/optee_os/lib/libutee/arch/arm/user_ta_entry.c:252
    3834:	b9400444 	ldr	w4, [x2, #4]
/home/jayanth/quemu-v8/source/optee_os/lib/libutee/arch/arm/user_ta_entry.c:258
    3838:	f9000404 	str	x4, [x0, #8]
/home/jayanth/quemu-v8/source/optee_os/lib/libutee/arch/arm/user_ta_entry.c:246 (discriminator 2)
    383c:	11001063 	add	w3, w3, #0x4
    3840:	91004042 	add	x2, x2, #0x10
    3844:	91004000 	add	x0, x0, #0x10
    3848:	7100407f 	cmp	w3, #0x10
    384c:	54fffe61 	b.ne	3818 <to_utee_params+0xc>  // b.any
/home/jayanth/quemu-v8/source/optee_os/lib/libutee/arch/arm/user_ta_entry.c:266
    3850:	d65f03c0 	ret
/home/jayanth/quemu-v8/source/optee_os/lib/libutee/arch/arm/user_ta_entry.c:247
    3854:	51001484 	sub	w4, w4, #0x5
    3858:	7100089f 	cmp	w4, #0x2
    385c:	54000069 	b.ls	3868 <to_utee_params+0x5c>  // b.plast
/home/jayanth/quemu-v8/source/optee_os/lib/libutee/arch/arm/user_ta_entry.c:262
    3860:	a9007c1f 	stp	xzr, xzr, [x0]
/home/jayanth/quemu-v8/source/optee_os/lib/libutee/arch/arm/user_ta_entry.c:263
    3864:	17fffff6 	b	383c <to_utee_params+0x30>
/home/jayanth/quemu-v8/source/optee_os/lib/libutee/arch/arm/user_ta_entry.c:257
    3868:	f9400044 	ldr	x4, [x2]
    386c:	f9000004 	str	x4, [x0]
/home/jayanth/quemu-v8/source/optee_os/lib/libutee/arch/arm/user_ta_entry.c:258
    3870:	b9400844 	ldr	w4, [x2, #8]
    3874:	17fffff1 	b	3838 <to_utee_params+0x2c>

0000000000003878 <from_utee_params>:
from_utee_params():
/home/jayanth/quemu-v8/source/optee_os/lib/libutee/arch/arm/user_ta_entry.c:273
    3878:	f8408445 	ldr	x5, [x2], #8
    387c:	52800003 	mov	w3, #0x0                   	// #0
    3880:	2a0503e9 	mov	w9, w5
/home/jayanth/quemu-v8/source/optee_os/lib/libutee/arch/arm/user_ta_entry.c:279
    3884:	1ac32528 	lsr	w8, w9, w3
    3888:	12000d04 	and	w4, w8, #0xf
    388c:	721e051f 	tst	w8, #0xc
/home/jayanth/quemu-v8/source/optee_os/lib/libutee/arch/arm/user_ta_entry.c:277
    3890:	a9401847 	ldp	x7, x6, [x2]
/home/jayanth/quemu-v8/source/optee_os/lib/libutee/arch/arm/user_ta_entry.c:279
    3894:	54000081 	b.ne	38a4 <from_utee_params+0x2c>  // b.any
    3898:	340000c4 	cbz	w4, 38b0 <from_utee_params+0x38>
/home/jayanth/quemu-v8/source/optee_os/lib/libutee/arch/arm/user_ta_entry.c:284
    389c:	29001807 	stp	w7, w6, [x0]
/home/jayanth/quemu-v8/source/optee_os/lib/libutee/arch/arm/user_ta_entry.c:285
    38a0:	14000004 	b	38b0 <from_utee_params+0x38>
/home/jayanth/quemu-v8/source/optee_os/lib/libutee/arch/arm/user_ta_entry.c:279
    38a4:	51001484 	sub	w4, w4, #0x5
    38a8:	7100089f 	cmp	w4, #0x2
    38ac:	54000109 	b.ls	38cc <from_utee_params+0x54>  // b.plast
/home/jayanth/quemu-v8/source/optee_os/lib/libutee/arch/arm/user_ta_entry.c:275 (discriminator 2)
    38b0:	11001063 	add	w3, w3, #0x4
    38b4:	91004042 	add	x2, x2, #0x10
    38b8:	91004000 	add	x0, x0, #0x10
    38bc:	7100407f 	cmp	w3, #0x10
    38c0:	54fffe21 	b.ne	3884 <from_utee_params+0xc>  // b.any
/home/jayanth/quemu-v8/source/optee_os/lib/libutee/arch/arm/user_ta_entry.c:298
    38c4:	b9000025 	str	w5, [x1]
/home/jayanth/quemu-v8/source/optee_os/lib/libutee/arch/arm/user_ta_entry.c:299
    38c8:	d65f03c0 	ret
/home/jayanth/quemu-v8/source/optee_os/lib/libutee/arch/arm/user_ta_entry.c:289
    38cc:	f9000007 	str	x7, [x0]
/home/jayanth/quemu-v8/source/optee_os/lib/libutee/arch/arm/user_ta_entry.c:290
    38d0:	b9000806 	str	w6, [x0, #8]
/home/jayanth/quemu-v8/source/optee_os/lib/libutee/arch/arm/user_ta_entry.c:291
    38d4:	17fffff7 	b	38b0 <from_utee_params+0x38>

00000000000038d8 <_init_iterate_phdr_cb>:
_init_iterate_phdr_cb():
/home/jayanth/quemu-v8/source/optee_os/lib/libutee/arch/arm/user_ta_entry.c:55
    38d8:	a9bd7bfd 	stp	x29, x30, [sp, #-48]!
    38dc:	910003fd 	mov	x29, sp
    38e0:	a90153f3 	stp	x19, x20, [sp, #16]
    38e4:	aa0203f4 	mov	x20, x2
    38e8:	f90013f5 	str	x21, [sp, #32]
    38ec:	aa0003f5 	mov	x21, x0
/home/jayanth/quemu-v8/source/optee_os/lib/libutee/arch/arm/user_ta_entry.c:59
    38f0:	d2800a00 	mov	x0, #0x50                  	// #80
    38f4:	97fff588 	bl	f14 <malloc>
/home/jayanth/quemu-v8/source/optee_os/lib/libutee/arch/arm/user_ta_entry.c:60
    38f8:	b5000140 	cbnz	x0, 3920 <_init_iterate_phdr_cb+0x48>
/home/jayanth/quemu-v8/source/optee_os/lib/libutee/arch/arm/user_ta_entry.c:61
    38fc:	b0000044 	adrp	x4, c000 <__func__.4194+0x3e3>
    3900:	b0000040 	adrp	x0, c000 <__func__.4194+0x3e3>
    3904:	91079884 	add	x4, x4, #0x1e6
    3908:	9107fc00 	add	x0, x0, #0x1ff
    390c:	52800023 	mov	w3, #0x1                   	// #1
    3910:	52800022 	mov	w2, #0x1                   	// #1
    3914:	528007a1 	mov	w1, #0x3d                  	// #61
    3918:	97fff745 	bl	162c <trace_printf>
/home/jayanth/quemu-v8/source/optee_os/lib/libutee/arch/arm/user_ta_entry.c:62
    391c:	9400014e 	bl	3e54 <abort>
    3920:	aa0003f3 	mov	x19, x0
/home/jayanth/quemu-v8/source/optee_os/lib/libutee/arch/arm/user_ta_entry.c:64
    3924:	aa1503e1 	mov	x1, x21
    3928:	d2800802 	mov	x2, #0x40                  	// #64
    392c:	97fff1bd 	bl	20 <memcpy>
/home/jayanth/quemu-v8/source/optee_os/lib/libutee/arch/arm/user_ta_entry.c:65
    3930:	d0000040 	adrp	x0, d000 <_DYNAMIC>
    3934:	9110a000 	add	x0, x0, #0x428
/home/jayanth/quemu-v8/source/optee_os/lib/libutee/arch/arm/user_ta_entry.c:68
    3938:	f94013f5 	ldr	x21, [sp, #32]
/home/jayanth/quemu-v8/source/optee_os/lib/libutee/arch/arm/user_ta_entry.c:65
    393c:	f9400c01 	ldr	x1, [x0, #24]
    3940:	a904067f 	stp	xzr, x1, [x19, #64]
    3944:	f9000033 	str	x19, [x1]
    3948:	91010273 	add	x19, x19, #0x40
    394c:	f9000c13 	str	x19, [x0, #24]
/home/jayanth/quemu-v8/source/optee_os/lib/libutee/arch/arm/user_ta_entry.c:66
    3950:	f9400280 	ldr	x0, [x20]
    3954:	91000400 	add	x0, x0, #0x1
    3958:	f9000280 	str	x0, [x20]
/home/jayanth/quemu-v8/source/optee_os/lib/libutee/arch/arm/user_ta_entry.c:68
    395c:	52800000 	mov	w0, #0x0                   	// #0
    3960:	a94153f3 	ldp	x19, x20, [sp, #16]
    3964:	a8c37bfd 	ldp	x29, x30, [sp], #48
    3968:	d65f03c0 	ret

000000000000396c <ta_header_save_params.part.0>:
ta_header_save_params():
/home/jayanth/quemu-v8/source/optee_os/lib/libutee/arch/arm/user_ta_entry.c:179
    396c:	d0000040 	adrp	x0, d000 <_DYNAMIC>
    3970:	d2800802 	mov	x2, #0x40                  	// #64
    3974:	52800001 	mov	w1, #0x0                   	// #0
    3978:	f940bc00 	ldr	x0, [x0, #376]
    397c:	17fff697 	b	13d8 <memset>

0000000000003980 <_get_fn_array.constprop.0>:
_get_fn_array():
/home/jayanth/quemu-v8/source/optee_os/lib/libutee/arch/arm/user_ta_entry.c:79
    3980:	79403008 	ldrh	w8, [x0, #24]
/home/jayanth/quemu-v8/source/optee_os/lib/libutee/arch/arm/user_ta_entry.c:93
    3984:	93407c21 	sxtw	x1, w1
/home/jayanth/quemu-v8/source/optee_os/lib/libutee/arch/arm/user_ta_entry.c:79
    3988:	d2800006 	mov	x6, #0x0                   	// #0
/home/jayanth/quemu-v8/source/optee_os/lib/libutee/arch/arm/user_ta_entry.c:80
    398c:	d2800709 	mov	x9, #0x38                  	// #56
/home/jayanth/quemu-v8/source/optee_os/lib/libutee/arch/arm/user_ta_entry.c:79
    3990:	eb0800df 	cmp	x6, x8
    3994:	54000043 	b.cc	399c <_get_fn_array.constprop.0+0x1c>  // b.lo, b.ul, b.last
/home/jayanth/quemu-v8/source/optee_os/lib/libutee/arch/arm/user_ta_entry.c:99
    3998:	d65f03c0 	ret
/home/jayanth/quemu-v8/source/optee_os/lib/libutee/arch/arm/user_ta_entry.c:80
    399c:	9b097cc4 	mul	x4, x6, x9
    39a0:	f9400807 	ldr	x7, [x0, #16]
    39a4:	8b0400e5 	add	x5, x7, x4
/home/jayanth/quemu-v8/source/optee_os/lib/libutee/arch/arm/user_ta_entry.c:81
    39a8:	b86468e4 	ldr	w4, [x7, x4]
    39ac:	7100089f 	cmp	w4, #0x2
    39b0:	54000060 	b.eq	39bc <_get_fn_array.constprop.0+0x3c>  // b.none
/home/jayanth/quemu-v8/source/optee_os/lib/libutee/arch/arm/user_ta_entry.c:79
    39b4:	910004c6 	add	x6, x6, #0x1
    39b8:	17fffff6 	b	3990 <_get_fn_array.constprop.0+0x10>
/home/jayanth/quemu-v8/source/optee_os/lib/libutee/arch/arm/user_ta_entry.c:84
    39bc:	f9400007 	ldr	x7, [x0]
    39c0:	f94008a4 	ldr	x4, [x5, #16]
/home/jayanth/quemu-v8/source/optee_os/lib/libutee/arch/arm/user_ta_entry.c:83
    39c4:	f94014a5 	ldr	x5, [x5, #40]
/home/jayanth/quemu-v8/source/optee_os/lib/libutee/arch/arm/user_ta_entry.c:84
    39c8:	8b070084 	add	x4, x4, x7
/home/jayanth/quemu-v8/source/optee_os/lib/libutee/arch/arm/user_ta_entry.c:85
    39cc:	927ceca5 	and	x5, x5, #0xfffffffffffffff0
    39d0:	8b0400a5 	add	x5, x5, x4
    39d4:	eb05009f 	cmp	x4, x5
    39d8:	54fffee0 	b.eq	39b4 <_get_fn_array.constprop.0+0x34>  // b.none
/home/jayanth/quemu-v8/source/optee_os/lib/libutee/arch/arm/user_ta_entry.c:86
    39dc:	f9400047 	ldr	x7, [x2]
    39e0:	b4000067 	cbz	x7, 39ec <_get_fn_array.constprop.0+0x6c>
    39e4:	f9400067 	ldr	x7, [x3]
    39e8:	b5fffe67 	cbnz	x7, 39b4 <_get_fn_array.constprop.0+0x34>
/home/jayanth/quemu-v8/source/optee_os/lib/libutee/arch/arm/user_ta_entry.c:88
    39ec:	f9400087 	ldr	x7, [x4]
    39f0:	b4fffe27 	cbz	x7, 39b4 <_get_fn_array.constprop.0+0x34>
/home/jayanth/quemu-v8/source/optee_os/lib/libutee/arch/arm/user_ta_entry.c:90
    39f4:	f10064ff 	cmp	x7, #0x19
    39f8:	540000e1 	b.ne	3a14 <_get_fn_array.constprop.0+0x94>  // b.any
/home/jayanth/quemu-v8/source/optee_os/lib/libutee/arch/arm/user_ta_entry.c:91
    39fc:	f940000a 	ldr	x10, [x0]
    3a00:	f9400487 	ldr	x7, [x4, #8]
    3a04:	8b0a00e7 	add	x7, x7, x10
    3a08:	f9000047 	str	x7, [x2]
/home/jayanth/quemu-v8/source/optee_os/lib/libutee/arch/arm/user_ta_entry.c:96
    3a0c:	91004084 	add	x4, x4, #0x10
/home/jayanth/quemu-v8/source/optee_os/lib/libutee/arch/arm/user_ta_entry.c:85
    3a10:	17fffff1 	b	39d4 <_get_fn_array.constprop.0+0x54>
/home/jayanth/quemu-v8/source/optee_os/lib/libutee/arch/arm/user_ta_entry.c:93
    3a14:	eb0100ff 	cmp	x7, x1
    3a18:	54ffffa1 	b.ne	3a0c <_get_fn_array.constprop.0+0x8c>  // b.any
/home/jayanth/quemu-v8/source/optee_os/lib/libutee/arch/arm/user_ta_entry.c:94
    3a1c:	f9400487 	ldr	x7, [x4, #8]
    3a20:	d343fce7 	lsr	x7, x7, #3
    3a24:	f9000067 	str	x7, [x3]
    3a28:	17fffff9 	b	3a0c <_get_fn_array.constprop.0+0x8c>

0000000000003a2c <_fini_iterate_phdr_cb>:
_fini_iterate_phdr_cb():
/home/jayanth/quemu-v8/source/optee_os/lib/libutee/arch/arm/user_ta_entry.c:135
    3a2c:	a9bd7bfd 	stp	x29, x30, [sp, #-48]!
/home/jayanth/quemu-v8/source/optee_os/lib/libutee/arch/arm/user_ta_entry.c:140
    3a30:	52800381 	mov	w1, #0x1c                  	// #28
/home/jayanth/quemu-v8/source/optee_os/lib/libutee/arch/arm/user_ta_entry.c:135
    3a34:	910003fd 	mov	x29, sp
    3a38:	f9000bf3 	str	x19, [sp, #16]
/home/jayanth/quemu-v8/source/optee_os/lib/libutee/arch/arm/user_ta_entry.c:142
    3a3c:	d2800033 	mov	x19, #0x1                   	// #1
/home/jayanth/quemu-v8/source/optee_os/lib/libutee/arch/arm/user_ta_entry.c:140
    3a40:	9100a3e3 	add	x3, sp, #0x28
    3a44:	910083e2 	add	x2, sp, #0x20
/home/jayanth/quemu-v8/source/optee_os/lib/libutee/arch/arm/user_ta_entry.c:137
    3a48:	a9027fff 	stp	xzr, xzr, [sp, #32]
/home/jayanth/quemu-v8/source/optee_os/lib/libutee/arch/arm/user_ta_entry.c:140
    3a4c:	97ffffcd 	bl	3980 <_get_fn_array.constprop.0>
/home/jayanth/quemu-v8/source/optee_os/lib/libutee/arch/arm/user_ta_entry.c:142 (discriminator 1)
    3a50:	f94017e0 	ldr	x0, [sp, #40]
    3a54:	eb13001f 	cmp	x0, x19
    3a58:	540000a2 	b.cs	3a6c <_fini_iterate_phdr_cb+0x40>  // b.hs, b.nlast
/home/jayanth/quemu-v8/source/optee_os/lib/libutee/arch/arm/user_ta_entry.c:146
    3a5c:	52800000 	mov	w0, #0x0                   	// #0
    3a60:	f9400bf3 	ldr	x19, [sp, #16]
    3a64:	a8c37bfd 	ldp	x29, x30, [sp], #48
    3a68:	d65f03c0 	ret
/home/jayanth/quemu-v8/source/optee_os/lib/libutee/arch/arm/user_ta_entry.c:143 (discriminator 3)
    3a6c:	f94013e1 	ldr	x1, [sp, #32]
    3a70:	cb130000 	sub	x0, x0, x19
/home/jayanth/quemu-v8/source/optee_os/lib/libutee/arch/arm/user_ta_entry.c:142 (discriminator 3)
    3a74:	91000673 	add	x19, x19, #0x1
/home/jayanth/quemu-v8/source/optee_os/lib/libutee/arch/arm/user_ta_entry.c:143 (discriminator 3)
    3a78:	f8607820 	ldr	x0, [x1, x0, lsl #3]
    3a7c:	d63f0000 	blr	x0
/home/jayanth/quemu-v8/source/optee_os/lib/libutee/arch/arm/user_ta_entry.c:142 (discriminator 3)
    3a80:	17fffff4 	b	3a50 <_fini_iterate_phdr_cb+0x24>

0000000000003a84 <__utee_call_elf_init_fn>:
__utee_call_elf_init_fn():
/home/jayanth/quemu-v8/source/optee_os/lib/libutee/arch/arm/user_ta_entry.c:102
    3a84:	a9b97bfd 	stp	x29, x30, [sp, #-112]!
/home/jayanth/quemu-v8/source/optee_os/lib/libutee/arch/arm/user_ta_entry.c:111
    3a88:	90000000 	adrp	x0, 3000 <__utee_check_outstring_annotation+0x3c>
    3a8c:	91236000 	add	x0, x0, #0x8d8
/home/jayanth/quemu-v8/source/optee_os/lib/libutee/arch/arm/user_ta_entry.c:102
    3a90:	910003fd 	mov	x29, sp
/home/jayanth/quemu-v8/source/optee_os/lib/libutee/arch/arm/user_ta_entry.c:111
    3a94:	910183e1 	add	x1, sp, #0x60
/home/jayanth/quemu-v8/source/optee_os/lib/libutee/arch/arm/user_ta_entry.c:102
    3a98:	a90153f3 	stp	x19, x20, [sp, #16]
/home/jayanth/quemu-v8/source/optee_os/lib/libutee/arch/arm/user_ta_entry.c:106
    3a9c:	d2800014 	mov	x20, #0x0                   	// #0
/home/jayanth/quemu-v8/source/optee_os/lib/libutee/arch/arm/user_ta_entry.c:102
    3aa0:	a9025bf5 	stp	x21, x22, [sp, #32]
    3aa4:	a90363f7 	stp	x23, x24, [sp, #48]
    3aa8:	d0000057 	adrp	x23, d000 <_DYNAMIC>
    3aac:	aa1703f8 	mov	x24, x23
    3ab0:	a9046bf9 	stp	x25, x26, [sp, #64]
/home/jayanth/quemu-v8/source/optee_os/lib/libutee/arch/arm/user_ta_entry.c:117
    3ab4:	9101a3f9 	add	x25, sp, #0x68
    3ab8:	910163fa 	add	x26, sp, #0x58
/home/jayanth/quemu-v8/source/optee_os/lib/libutee/arch/arm/user_ta_entry.c:104
    3abc:	a905ffff 	stp	xzr, xzr, [sp, #88]
/home/jayanth/quemu-v8/source/optee_os/lib/libutee/arch/arm/user_ta_entry.c:105
    3ac0:	f90037ff 	str	xzr, [sp, #104]
/home/jayanth/quemu-v8/source/optee_os/lib/libutee/arch/arm/user_ta_entry.c:111
    3ac4:	97ffff0c 	bl	36f4 <dl_iterate_phdr>
/home/jayanth/quemu-v8/source/optee_os/lib/libutee/arch/arm/user_ta_entry.c:114
    3ac8:	d0000041 	adrp	x1, d000 <_DYNAMIC>
    3acc:	9110a020 	add	x0, x1, #0x428
    3ad0:	aa0103f3 	mov	x19, x1
    3ad4:	f9400c00 	ldr	x0, [x0, #24]
    3ad8:	f9400400 	ldr	x0, [x0, #8]
    3adc:	f9400015 	ldr	x21, [x0]
/home/jayanth/quemu-v8/source/optee_os/lib/libutee/arch/arm/user_ta_entry.c:114 (discriminator 1)
    3ae0:	f94246e1 	ldr	x1, [x23, #1160]
    3ae4:	b5000175 	cbnz	x21, 3b10 <__utee_call_elf_init_fn+0x8c>
/home/jayanth/quemu-v8/source/optee_os/lib/libutee/arch/arm/user_ta_entry.c:125
    3ae8:	8b010294 	add	x20, x20, x1
/home/jayanth/quemu-v8/source/optee_os/lib/libutee/arch/arm/user_ta_entry.c:127
    3aec:	9110a261 	add	x1, x19, #0x428
/home/jayanth/quemu-v8/source/optee_os/lib/libutee/arch/arm/user_ta_entry.c:128
    3af0:	aa0103f3 	mov	x19, x1
/home/jayanth/quemu-v8/source/optee_os/lib/libutee/arch/arm/user_ta_entry.c:125
    3af4:	f9024714 	str	x20, [x24, #1160]
/home/jayanth/quemu-v8/source/optee_os/lib/libutee/arch/arm/user_ta_entry.c:127
    3af8:	f9400820 	ldr	x0, [x1, #16]
/home/jayanth/quemu-v8/source/optee_os/lib/libutee/arch/arm/user_ta_entry.c:127 (discriminator 2)
    3afc:	b4000480 	cbz	x0, 3b8c <__utee_call_elf_init_fn+0x108>
    3b00:	a9440414 	ldp	x20, x1, [x0, #64]
/home/jayanth/quemu-v8/source/optee_os/lib/libutee/arch/arm/user_ta_entry.c:128 (discriminator 3)
    3b04:	b5000394 	cbnz	x20, 3b74 <__utee_call_elf_init_fn+0xf0>
/home/jayanth/quemu-v8/source/optee_os/lib/libutee/arch/arm/user_ta_entry.c:128 (discriminator 2)
    3b08:	f9000e61 	str	x1, [x19, #24]
    3b0c:	1400001b 	b	3b78 <__utee_call_elf_init_fn+0xf4>
/home/jayanth/quemu-v8/source/optee_os/lib/libutee/arch/arm/user_ta_entry.c:115
    3b10:	f94033e0 	ldr	x0, [sp, #96]
    3b14:	cb010000 	sub	x0, x0, x1
    3b18:	eb14001f 	cmp	x0, x20
    3b1c:	54fffe60 	b.eq	3ae8 <__utee_call_elf_init_fn+0x64>  // b.none
/home/jayanth/quemu-v8/source/optee_os/lib/libutee/arch/arm/user_ta_entry.c:119
    3b20:	d2800016 	mov	x22, #0x0                   	// #0
/home/jayanth/quemu-v8/source/optee_os/lib/libutee/arch/arm/user_ta_entry.c:117
    3b24:	aa1903e3 	mov	x3, x25
    3b28:	aa1a03e2 	mov	x2, x26
    3b2c:	aa1503e0 	mov	x0, x21
    3b30:	52800361 	mov	w1, #0x1b                  	// #27
    3b34:	97ffff93 	bl	3980 <_get_fn_array.constprop.0>
/home/jayanth/quemu-v8/source/optee_os/lib/libutee/arch/arm/user_ta_entry.c:119 (discriminator 1)
    3b38:	f94037e0 	ldr	x0, [sp, #104]
    3b3c:	eb16001f 	cmp	x0, x22
    3b40:	54000108 	b.hi	3b60 <__utee_call_elf_init_fn+0xdc>  // b.pmore
/home/jayanth/quemu-v8/source/optee_os/lib/libutee/arch/arm/user_ta_entry.c:114 (discriminator 2)
    3b44:	f94026a0 	ldr	x0, [x21, #72]
/home/jayanth/quemu-v8/source/optee_os/lib/libutee/arch/arm/user_ta_entry.c:123 (discriminator 2)
    3b48:	91000694 	add	x20, x20, #0x1
/home/jayanth/quemu-v8/source/optee_os/lib/libutee/arch/arm/user_ta_entry.c:114 (discriminator 2)
    3b4c:	f9400400 	ldr	x0, [x0, #8]
    3b50:	f9400015 	ldr	x21, [x0]
/home/jayanth/quemu-v8/source/optee_os/lib/libutee/arch/arm/user_ta_entry.c:121 (discriminator 2)
    3b54:	f9002fff 	str	xzr, [sp, #88]
/home/jayanth/quemu-v8/source/optee_os/lib/libutee/arch/arm/user_ta_entry.c:122 (discriminator 2)
    3b58:	f90037ff 	str	xzr, [sp, #104]
/home/jayanth/quemu-v8/source/optee_os/lib/libutee/arch/arm/user_ta_entry.c:114 (discriminator 2)
    3b5c:	17ffffe1 	b	3ae0 <__utee_call_elf_init_fn+0x5c>
/home/jayanth/quemu-v8/source/optee_os/lib/libutee/arch/arm/user_ta_entry.c:120 (discriminator 3)
    3b60:	f9402fe0 	ldr	x0, [sp, #88]
    3b64:	f8767800 	ldr	x0, [x0, x22, lsl #3]
/home/jayanth/quemu-v8/source/optee_os/lib/libutee/arch/arm/user_ta_entry.c:119 (discriminator 3)
    3b68:	910006d6 	add	x22, x22, #0x1
/home/jayanth/quemu-v8/source/optee_os/lib/libutee/arch/arm/user_ta_entry.c:120 (discriminator 3)
    3b6c:	d63f0000 	blr	x0
/home/jayanth/quemu-v8/source/optee_os/lib/libutee/arch/arm/user_ta_entry.c:119 (discriminator 3)
    3b70:	17fffff2 	b	3b38 <__utee_call_elf_init_fn+0xb4>
/home/jayanth/quemu-v8/source/optee_os/lib/libutee/arch/arm/user_ta_entry.c:128 (discriminator 1)
    3b74:	f9002681 	str	x1, [x20, #72]
/home/jayanth/quemu-v8/source/optee_os/lib/libutee/arch/arm/user_ta_entry.c:128 (discriminator 4)
    3b78:	f9402401 	ldr	x1, [x0, #72]
    3b7c:	f9000034 	str	x20, [x1]
/home/jayanth/quemu-v8/source/optee_os/lib/libutee/arch/arm/user_ta_entry.c:129 (discriminator 4)
    3b80:	97fff549 	bl	10a4 <free>
/home/jayanth/quemu-v8/source/optee_os/lib/libutee/arch/arm/user_ta_entry.c:127 (discriminator 4)
    3b84:	aa1403e0 	mov	x0, x20
    3b88:	17ffffdd 	b	3afc <__utee_call_elf_init_fn+0x78>
/home/jayanth/quemu-v8/source/optee_os/lib/libutee/arch/arm/user_ta_entry.c:131
    3b8c:	a94153f3 	ldp	x19, x20, [sp, #16]
    3b90:	a9425bf5 	ldp	x21, x22, [sp, #32]
    3b94:	a94363f7 	ldp	x23, x24, [sp, #48]
    3b98:	a9446bf9 	ldp	x25, x26, [sp, #64]
    3b9c:	a8c77bfd 	ldp	x29, x30, [sp], #112
    3ba0:	d65f03c0 	ret

0000000000003ba4 <__utee_call_elf_fini_fn>:
__utee_call_elf_fini_fn():
/home/jayanth/quemu-v8/source/optee_os/lib/libutee/arch/arm/user_ta_entry.c:150
    3ba4:	d2800001 	mov	x1, #0x0                   	// #0
    3ba8:	90000000 	adrp	x0, 3000 <__utee_check_outstring_annotation+0x3c>
    3bac:	9128b000 	add	x0, x0, #0xa2c
    3bb0:	17fffed1 	b	36f4 <dl_iterate_phdr>

0000000000003bb4 <ta_header_remove_session>:
ta_header_remove_session():
/home/jayanth/quemu-v8/source/optee_os/lib/libutee/arch/arm/user_ta_entry.c:220
    3bb4:	a9be7bfd 	stp	x29, x30, [sp, #-32]!
    3bb8:	2a0003e2 	mov	w2, w0
    3bbc:	910003fd 	mov	x29, sp
    3bc0:	f9000bf3 	str	x19, [sp, #16]
/home/jayanth/quemu-v8/source/optee_os/lib/libutee/arch/arm/user_ta_entry.c:224
    3bc4:	d0000053 	adrp	x19, d000 <_DYNAMIC>
    3bc8:	f9421660 	ldr	x0, [x19, #1064]
/home/jayanth/quemu-v8/source/optee_os/lib/libutee/arch/arm/user_ta_entry.c:224 (discriminator 1)
    3bcc:	b5000080 	cbnz	x0, 3bdc <ta_header_remove_session+0x28>
/home/jayanth/quemu-v8/source/optee_os/lib/libutee/arch/arm/user_ta_entry.c:238
    3bd0:	f9400bf3 	ldr	x19, [sp, #16]
    3bd4:	a8c27bfd 	ldp	x29, x30, [sp], #32
    3bd8:	d65f03c0 	ret
/home/jayanth/quemu-v8/source/optee_os/lib/libutee/arch/arm/user_ta_entry.c:225
    3bdc:	b9400003 	ldr	w3, [x0]
    3be0:	f9400801 	ldr	x1, [x0, #16]
    3be4:	6b02007f 	cmp	w3, w2
    3be8:	540002e1 	b.ne	3c44 <ta_header_remove_session+0x90>  // b.any
/home/jayanth/quemu-v8/source/optee_os/lib/libutee/arch/arm/user_ta_entry.c:226
    3bec:	f9400c02 	ldr	x2, [x0, #24]
    3bf0:	b4000241 	cbz	x1, 3c38 <ta_header_remove_session+0x84>
/home/jayanth/quemu-v8/source/optee_os/lib/libutee/arch/arm/user_ta_entry.c:226 (discriminator 1)
    3bf4:	f9000c22 	str	x2, [x1, #24]
/home/jayanth/quemu-v8/source/optee_os/lib/libutee/arch/arm/user_ta_entry.c:226 (discriminator 4)
    3bf8:	f9400c02 	ldr	x2, [x0, #24]
    3bfc:	f9000041 	str	x1, [x2]
/home/jayanth/quemu-v8/source/optee_os/lib/libutee/arch/arm/user_ta_entry.c:227 (discriminator 4)
    3c00:	97fffcbe 	bl	2ef8 <TEE_Free>
/home/jayanth/quemu-v8/source/optee_os/lib/libutee/arch/arm/user_ta_entry.c:232 (discriminator 4)
    3c04:	f9421660 	ldr	x0, [x19, #1064]
    3c08:	b5fffe40 	cbnz	x0, 3bd0 <ta_header_remove_session+0x1c>
/home/jayanth/quemu-v8/source/optee_os/lib/libutee/arch/arm/user_ta_entry.c:230 (discriminator 1)
    3c0c:	d0000040 	adrp	x0, d000 <_DYNAMIC>
    3c10:	52800281 	mov	w1, #0x14                  	// #20
    3c14:	f940c400 	ldr	x0, [x0, #392]
    3c18:	b9401400 	ldr	w0, [x0, #20]
    3c1c:	0a010000 	and	w0, w0, w1
/home/jayanth/quemu-v8/source/optee_os/lib/libutee/arch/arm/user_ta_entry.c:232 (discriminator 1)
    3c20:	6b01001f 	cmp	w0, w1
    3c24:	54fffd60 	b.eq	3bd0 <ta_header_remove_session+0x1c>  // b.none
uninit_instance():
/home/jayanth/quemu-v8/source/optee_os/lib/libutee/arch/arm/user_ta_entry.c:167
    3c28:	97fff146 	bl	140 <TA_DestroyEntryPoint>
ta_header_remove_session():
/home/jayanth/quemu-v8/source/optee_os/lib/libutee/arch/arm/user_ta_entry.c:238
    3c2c:	f9400bf3 	ldr	x19, [sp, #16]
    3c30:	a8c27bfd 	ldp	x29, x30, [sp], #32
uninit_instance():
/home/jayanth/quemu-v8/source/optee_os/lib/libutee/arch/arm/user_ta_entry.c:168
    3c34:	17ffffdc 	b	3ba4 <__utee_call_elf_fini_fn>
ta_header_remove_session():
/home/jayanth/quemu-v8/source/optee_os/lib/libutee/arch/arm/user_ta_entry.c:226 (discriminator 2)
    3c38:	9110a263 	add	x3, x19, #0x428
    3c3c:	f9000462 	str	x2, [x3, #8]
    3c40:	17ffffee 	b	3bf8 <ta_header_remove_session+0x44>
    3c44:	aa0103e0 	mov	x0, x1
    3c48:	17ffffe1 	b	3bcc <ta_header_remove_session+0x18>

0000000000003c4c <__utee_entry>:
__utee_entry():
/home/jayanth/quemu-v8/source/optee_os/lib/libutee/arch/arm/user_ta_entry.c:366
    3c4c:	a9b77bfd 	stp	x29, x30, [sp, #-144]!
/home/jayanth/quemu-v8/source/optee_os/lib/libutee/arch/arm/user_ta_entry.c:369
    3c50:	f100041f 	cmp	x0, #0x1
/home/jayanth/quemu-v8/source/optee_os/lib/libutee/arch/arm/user_ta_entry.c:366
    3c54:	910003fd 	mov	x29, sp
    3c58:	a90153f3 	stp	x19, x20, [sp, #16]
    3c5c:	d0000054 	adrp	x20, d000 <_DYNAMIC>
    3c60:	a9025bf5 	stp	x21, x22, [sp, #32]
    3c64:	aa0103f5 	mov	x21, x1
    3c68:	a90363f7 	stp	x23, x24, [sp, #48]
/home/jayanth/quemu-v8/source/optee_os/lib/libutee/arch/arm/user_ta_entry.c:369
    3c6c:	540009e0 	b.eq	3da8 <__utee_entry+0x15c>  // b.none
    3c70:	aa0203f6 	mov	x22, x2
    3c74:	f100081f 	cmp	x0, #0x2
    3c78:	54000aa0 	b.eq	3dcc <__utee_entry+0x180>  // b.none
    3c7c:	b5000e00 	cbnz	x0, 3e3c <__utee_entry+0x1f0>
ta_header_add_session():
/home/jayanth/quemu-v8/source/optee_os/lib/libutee/arch/arm/user_ta_entry.c:195
    3c80:	2a0103e0 	mov	w0, w1
    3c84:	97fffed8 	bl	37e4 <ta_header_get_session>
/home/jayanth/quemu-v8/source/optee_os/lib/libutee/arch/arm/user_ta_entry.c:198
    3c88:	b5000560 	cbnz	x0, 3d34 <__utee_entry+0xe8>
/home/jayanth/quemu-v8/source/optee_os/lib/libutee/arch/arm/user_ta_entry.c:201
    3c8c:	d0000040 	adrp	x0, d000 <_DYNAMIC>
    3c90:	91122000 	add	x0, x0, #0x488
    3c94:	39402001 	ldrb	w1, [x0, #8]
    3c98:	340000e1 	cbz	w1, 3cb4 <__utee_entry+0x68>
/home/jayanth/quemu-v8/source/optee_os/lib/libutee/arch/arm/user_ta_entry.c:208
    3c9c:	52b00001 	mov	w1, #0x80000000            	// #-2147483648
    3ca0:	52800400 	mov	w0, #0x20                  	// #32
    3ca4:	97fffc7c 	bl	2e94 <TEE_Malloc>
/home/jayanth/quemu-v8/source/optee_os/lib/libutee/arch/arm/user_ta_entry.c:210
    3ca8:	b5000340 	cbnz	x0, 3d10 <__utee_entry+0xc4>
/home/jayanth/quemu-v8/source/optee_os/lib/libutee/arch/arm/user_ta_entry.c:211
    3cac:	129ffe73 	mov	w19, #0xffff000c            	// #-65524
    3cb0:	1400000f 	b	3cec <__utee_entry+0xa0>
/home/jayanth/quemu-v8/source/optee_os/lib/libutee/arch/arm/user_ta_entry.c:202
    3cb4:	52800021 	mov	w1, #0x1                   	// #1
    3cb8:	39002001 	strb	w1, [x0, #8]
init_instance():
/home/jayanth/quemu-v8/source/optee_os/lib/libutee/arch/arm/user_ta_entry.c:155
    3cbc:	97fff1d7 	bl	418 <tahead_get_trace_level>
    3cc0:	97fff5d4 	bl	1410 <trace_set_level>
/home/jayanth/quemu-v8/source/optee_os/lib/libutee/arch/arm/user_ta_entry.c:157
    3cc4:	f9409a80 	ldr	x0, [x20, #304]
    3cc8:	f9400001 	ldr	x1, [x0]
    3ccc:	f940ae80 	ldr	x0, [x20, #344]
    3cd0:	97fff501 	bl	10d4 <malloc_add_pool>
/home/jayanth/quemu-v8/source/optee_os/lib/libutee/arch/arm/user_ta_entry.c:158
    3cd4:	94000267 	bl	4670 <_TEE_MathAPI_Init>
/home/jayanth/quemu-v8/source/optee_os/lib/libutee/arch/arm/user_ta_entry.c:159
    3cd8:	97fffdf0 	bl	3498 <__utee_tcb_init>
/home/jayanth/quemu-v8/source/optee_os/lib/libutee/arch/arm/user_ta_entry.c:160
    3cdc:	97ffff6a 	bl	3a84 <__utee_call_elf_init_fn>
/home/jayanth/quemu-v8/source/optee_os/lib/libutee/arch/arm/user_ta_entry.c:161
    3ce0:	97fff10b 	bl	10c <TA_CreateEntryPoint>
    3ce4:	2a0003f3 	mov	w19, w0
ta_header_add_session():
/home/jayanth/quemu-v8/source/optee_os/lib/libutee/arch/arm/user_ta_entry.c:204
    3ce8:	34fffda0 	cbz	w0, 3c9c <__utee_entry+0x50>
ta_header_save_params():
/home/jayanth/quemu-v8/source/optee_os/lib/libutee/arch/arm/user_ta_entry.c:174
    3cec:	f940b694 	ldr	x20, [x20, #360]
    3cf0:	b900029f 	str	wzr, [x20]
/home/jayanth/quemu-v8/source/optee_os/lib/libutee/arch/arm/user_ta_entry.c:176
    3cf4:	97ffff1e 	bl	396c <ta_header_save_params.part.0>
__utee_entry():
/home/jayanth/quemu-v8/source/optee_os/lib/libutee/arch/arm/user_ta_entry.c:387
    3cf8:	2a1303e0 	mov	w0, w19
    3cfc:	a94153f3 	ldp	x19, x20, [sp, #16]
    3d00:	a9425bf5 	ldp	x21, x22, [sp, #32]
    3d04:	a94363f7 	ldp	x23, x24, [sp, #48]
    3d08:	a8c97bfd 	ldp	x29, x30, [sp], #144
    3d0c:	d65f03c0 	ret
ta_header_add_session():
/home/jayanth/quemu-v8/source/optee_os/lib/libutee/arch/arm/user_ta_entry.c:214
    3d10:	d0000041 	adrp	x1, d000 <_DYNAMIC>
    3d14:	9110a021 	add	x1, x1, #0x428
    3d18:	f9400422 	ldr	x2, [x1, #8]
/home/jayanth/quemu-v8/source/optee_os/lib/libutee/arch/arm/user_ta_entry.c:212
    3d1c:	b9000015 	str	w21, [x0]
/home/jayanth/quemu-v8/source/optee_os/lib/libutee/arch/arm/user_ta_entry.c:214
    3d20:	a900fc1f 	stp	xzr, xzr, [x0, #8]
    3d24:	f9000c02 	str	x2, [x0, #24]
    3d28:	f9000040 	str	x0, [x2]
    3d2c:	91004000 	add	x0, x0, #0x10
    3d30:	f9000420 	str	x0, [x1, #8]
entry_open_session():
/home/jayanth/quemu-v8/source/optee_os/lib/libutee/arch/arm/user_ta_entry.c:313
    3d34:	2a1503e0 	mov	w0, w21
    3d38:	97fffeab 	bl	37e4 <ta_header_get_session>
    3d3c:	aa0003f3 	mov	x19, x0
/home/jayanth/quemu-v8/source/optee_os/lib/libutee/arch/arm/user_ta_entry.c:314
    3d40:	b4000860 	cbz	x0, 3e4c <__utee_entry+0x200>
/home/jayanth/quemu-v8/source/optee_os/lib/libutee/arch/arm/user_ta_entry.c:317
    3d44:	910143f7 	add	x23, sp, #0x50
    3d48:	aa1603e2 	mov	x2, x22
    3d4c:	910133e1 	add	x1, sp, #0x4c
    3d50:	aa1703e0 	mov	x0, x23
    3d54:	97fffec9 	bl	3878 <from_utee_params>
/home/jayanth/quemu-v8/source/optee_os/lib/libutee/arch/arm/user_ta_entry.c:318
    3d58:	b9404ff8 	ldr	w24, [sp, #76]
ta_header_save_params():
/home/jayanth/quemu-v8/source/optee_os/lib/libutee/arch/arm/user_ta_entry.c:174
    3d5c:	f940b680 	ldr	x0, [x20, #360]
/home/jayanth/quemu-v8/source/optee_os/lib/libutee/arch/arm/user_ta_entry.c:177
    3d60:	aa1703e1 	mov	x1, x23
    3d64:	d2800802 	mov	x2, #0x40                  	// #64
/home/jayanth/quemu-v8/source/optee_os/lib/libutee/arch/arm/user_ta_entry.c:174
    3d68:	b9000018 	str	w24, [x0]
/home/jayanth/quemu-v8/source/optee_os/lib/libutee/arch/arm/user_ta_entry.c:177
    3d6c:	f940be80 	ldr	x0, [x20, #376]
    3d70:	97fff0ac 	bl	20 <memcpy>
entry_open_session():
/home/jayanth/quemu-v8/source/optee_os/lib/libutee/arch/arm/user_ta_entry.c:320
    3d74:	91002262 	add	x2, x19, #0x8
    3d78:	aa1703e1 	mov	x1, x23
    3d7c:	2a1803e0 	mov	w0, w24
    3d80:	97fff0f9 	bl	164 <TA_OpenSessionEntryPoint>
/home/jayanth/quemu-v8/source/optee_os/lib/libutee/arch/arm/user_ta_entry.c:323
    3d84:	b9404fe1 	ldr	w1, [sp, #76]
/home/jayanth/quemu-v8/source/optee_os/lib/libutee/arch/arm/user_ta_entry.c:320
    3d88:	2a0003f3 	mov	w19, w0
/home/jayanth/quemu-v8/source/optee_os/lib/libutee/arch/arm/user_ta_entry.c:323
    3d8c:	aa1703e2 	mov	x2, x23
    3d90:	aa1603e0 	mov	x0, x22
    3d94:	97fffe9e 	bl	380c <to_utee_params>
/home/jayanth/quemu-v8/source/optee_os/lib/libutee/arch/arm/user_ta_entry.c:325
    3d98:	34fffab3 	cbz	w19, 3cec <__utee_entry+0xa0>
/home/jayanth/quemu-v8/source/optee_os/lib/libutee/arch/arm/user_ta_entry.c:326
    3d9c:	2a1503e0 	mov	w0, w21
    3da0:	97ffff85 	bl	3bb4 <ta_header_remove_session>
    3da4:	17ffffd2 	b	3cec <__utee_entry+0xa0>
entry_close_session():
/home/jayanth/quemu-v8/source/optee_os/lib/libutee/arch/arm/user_ta_entry.c:332
    3da8:	2a0103e0 	mov	w0, w1
    3dac:	97fffe8e 	bl	37e4 <ta_header_get_session>
/home/jayanth/quemu-v8/source/optee_os/lib/libutee/arch/arm/user_ta_entry.c:334
    3db0:	b40004e0 	cbz	x0, 3e4c <__utee_entry+0x200>
/home/jayanth/quemu-v8/source/optee_os/lib/libutee/arch/arm/user_ta_entry.c:337
    3db4:	f9400400 	ldr	x0, [x0, #8]
/home/jayanth/quemu-v8/source/optee_os/lib/libutee/arch/arm/user_ta_entry.c:340
    3db8:	52800013 	mov	w19, #0x0                   	// #0
/home/jayanth/quemu-v8/source/optee_os/lib/libutee/arch/arm/user_ta_entry.c:337
    3dbc:	97fff106 	bl	1d4 <TA_CloseSessionEntryPoint>
/home/jayanth/quemu-v8/source/optee_os/lib/libutee/arch/arm/user_ta_entry.c:339
    3dc0:	2a1503e0 	mov	w0, w21
    3dc4:	97ffff7c 	bl	3bb4 <ta_header_remove_session>
/home/jayanth/quemu-v8/source/optee_os/lib/libutee/arch/arm/user_ta_entry.c:340
    3dc8:	17ffffc9 	b	3cec <__utee_entry+0xa0>
entry_invoke_command():
/home/jayanth/quemu-v8/source/optee_os/lib/libutee/arch/arm/user_ta_entry.c:349
    3dcc:	2a0103e0 	mov	w0, w1
    3dd0:	97fffe85 	bl	37e4 <ta_header_get_session>
    3dd4:	aa0003f3 	mov	x19, x0
/home/jayanth/quemu-v8/source/optee_os/lib/libutee/arch/arm/user_ta_entry.c:351
    3dd8:	b40003a0 	cbz	x0, 3e4c <__utee_entry+0x200>
/home/jayanth/quemu-v8/source/optee_os/lib/libutee/arch/arm/user_ta_entry.c:354
    3ddc:	910143f5 	add	x21, sp, #0x50
    3de0:	aa0303f7 	mov	x23, x3
    3de4:	aa1603e2 	mov	x2, x22
    3de8:	910133e1 	add	x1, sp, #0x4c
    3dec:	aa1503e0 	mov	x0, x21
    3df0:	97fffea2 	bl	3878 <from_utee_params>
ta_header_save_params():
/home/jayanth/quemu-v8/source/optee_os/lib/libutee/arch/arm/user_ta_entry.c:174
    3df4:	f940b680 	ldr	x0, [x20, #360]
/home/jayanth/quemu-v8/source/optee_os/lib/libutee/arch/arm/user_ta_entry.c:177
    3df8:	aa1503e1 	mov	x1, x21
entry_invoke_command():
/home/jayanth/quemu-v8/source/optee_os/lib/libutee/arch/arm/user_ta_entry.c:355
    3dfc:	b9404ff8 	ldr	w24, [sp, #76]
ta_header_save_params():
/home/jayanth/quemu-v8/source/optee_os/lib/libutee/arch/arm/user_ta_entry.c:177
    3e00:	d2800802 	mov	x2, #0x40                  	// #64
/home/jayanth/quemu-v8/source/optee_os/lib/libutee/arch/arm/user_ta_entry.c:174
    3e04:	b9000018 	str	w24, [x0]
/home/jayanth/quemu-v8/source/optee_os/lib/libutee/arch/arm/user_ta_entry.c:177
    3e08:	f940be80 	ldr	x0, [x20, #376]
    3e0c:	97fff085 	bl	20 <memcpy>
entry_invoke_command():
/home/jayanth/quemu-v8/source/optee_os/lib/libutee/arch/arm/user_ta_entry.c:357
    3e10:	f9400660 	ldr	x0, [x19, #8]
    3e14:	2a1803e2 	mov	w2, w24
    3e18:	2a1703e1 	mov	w1, w23
    3e1c:	aa1503e3 	mov	x3, x21
    3e20:	97fff0f6 	bl	1f8 <TA_InvokeCommandEntryPoint>
    3e24:	2a0003f3 	mov	w19, w0
/home/jayanth/quemu-v8/source/optee_os/lib/libutee/arch/arm/user_ta_entry.c:360
    3e28:	b9404fe1 	ldr	w1, [sp, #76]
    3e2c:	aa1503e2 	mov	x2, x21
    3e30:	aa1603e0 	mov	x0, x22
    3e34:	97fffe76 	bl	380c <to_utee_params>
/home/jayanth/quemu-v8/source/optee_os/lib/libutee/arch/arm/user_ta_entry.c:361
    3e38:	17ffffad 	b	3cec <__utee_entry+0xa0>
__utee_entry():
/home/jayanth/quemu-v8/source/optee_os/lib/libutee/arch/arm/user_ta_entry.c:381
    3e3c:	52800000 	mov	w0, #0x0                   	// #0
/home/jayanth/quemu-v8/source/optee_os/lib/libutee/arch/arm/user_ta_entry.c:380
    3e40:	12800013 	mov	w19, #0xffffffff            	// #-1
/home/jayanth/quemu-v8/source/optee_os/lib/libutee/arch/arm/user_ta_entry.c:381
    3e44:	97fffc3b 	bl	2f30 <TEE_Panic>
/home/jayanth/quemu-v8/source/optee_os/lib/libutee/arch/arm/user_ta_entry.c:382
    3e48:	17ffffa9 	b	3cec <__utee_entry+0xa0>
entry_close_session():
/home/jayanth/quemu-v8/source/optee_os/lib/libutee/arch/arm/user_ta_entry.c:335
    3e4c:	129fff13 	mov	w19, #0xffff0007            	// #-65529
    3e50:	17ffffa7 	b	3cec <__utee_entry+0xa0>

0000000000003e54 <abort>:
abort():
/home/jayanth/quemu-v8/source/optee_os/lib/libutee/abort.c:12
    3e54:	a9bf7bfd 	stp	x29, x30, [sp, #-16]!
/home/jayanth/quemu-v8/source/optee_os/lib/libutee/abort.c:13
    3e58:	b0000040 	adrp	x0, c000 <__func__.4194+0x3e3>
    3e5c:	91085400 	add	x0, x0, #0x215
/home/jayanth/quemu-v8/source/optee_os/lib/libutee/abort.c:12
    3e60:	910003fd 	mov	x29, sp
/home/jayanth/quemu-v8/source/optee_os/lib/libutee/abort.c:13
    3e64:	97fffa39 	bl	2748 <puts>
/home/jayanth/quemu-v8/source/optee_os/lib/libutee/abort.c:14
    3e68:	d2800000 	mov	x0, #0x0                   	// #0
    3e6c:	97fffce0 	bl	31ec <_utee_panic>
/home/jayanth/quemu-v8/source/optee_os/lib/libutee/abort.c:16 (discriminator 1)
    3e70:	14000000 	b	3e70 <abort+0x1c>

0000000000003e74 <api_panic>:
api_panic():
/home/jayanth/quemu-v8/source/optee_os/lib/libutee/tee_api_arith_mpi.c:19
    3e74:	a9bf7bfd 	stp	x29, x30, [sp, #-16]!
/home/jayanth/quemu-v8/source/optee_os/lib/libutee/tee_api_arith_mpi.c:20
    3e78:	aa0203e3 	mov	x3, x2
    3e7c:	2a0103e2 	mov	w2, w1
    3e80:	aa0003e1 	mov	x1, x0
/home/jayanth/quemu-v8/source/optee_os/lib/libutee/tee_api_arith_mpi.c:19
    3e84:	910003fd 	mov	x29, sp
/home/jayanth/quemu-v8/source/optee_os/lib/libutee/tee_api_arith_mpi.c:20
    3e88:	b0000040 	adrp	x0, c000 <__func__.4194+0x3e3>
    3e8c:	91087000 	add	x0, x0, #0x21c
    3e90:	97fff9fc 	bl	2680 <printf>
/home/jayanth/quemu-v8/source/optee_os/lib/libutee/tee_api_arith_mpi.c:21
    3e94:	528c24e0 	mov	w0, #0x6127                	// #24871
    3e98:	72a01620 	movk	w0, #0xb1, lsl #16
    3e9c:	97fffc25 	bl	2f30 <TEE_Panic>
/home/jayanth/quemu-v8/source/optee_os/lib/libutee/tee_api_arith_mpi.c:22 (discriminator 1)
    3ea0:	14000000 	b	3ea0 <api_panic+0x2c>

0000000000003ea4 <mpi_panic>:
mpi_panic():
/home/jayanth/quemu-v8/source/optee_os/lib/libutee/tee_api_arith_mpi.c:29
    3ea4:	a9bf7bfd 	stp	x29, x30, [sp, #-16]!
/home/jayanth/quemu-v8/source/optee_os/lib/libutee/tee_api_arith_mpi.c:30
    3ea8:	2a0203e3 	mov	w3, w2
    3eac:	2a0103e2 	mov	w2, w1
    3eb0:	aa0003e1 	mov	x1, x0
/home/jayanth/quemu-v8/source/optee_os/lib/libutee/tee_api_arith_mpi.c:29
    3eb4:	910003fd 	mov	x29, sp
/home/jayanth/quemu-v8/source/optee_os/lib/libutee/tee_api_arith_mpi.c:30
    3eb8:	b0000040 	adrp	x0, c000 <__func__.4194+0x3e3>
    3ebc:	9108f000 	add	x0, x0, #0x23c
    3ec0:	97fff9f0 	bl	2680 <printf>
/home/jayanth/quemu-v8/source/optee_os/lib/libutee/tee_api_arith_mpi.c:31
    3ec4:	528c24e0 	mov	w0, #0x6127                	// #24871
    3ec8:	72a01620 	movk	w0, #0xb1, lsl #16
    3ecc:	97fffc19 	bl	2f30 <TEE_Panic>
/home/jayanth/quemu-v8/source/optee_os/lib/libutee/tee_api_arith_mpi.c:32 (discriminator 1)
    3ed0:	14000000 	b	3ed0 <mpi_panic+0x2c>

0000000000003ed4 <get_mpi>:
get_mpi():
/home/jayanth/quemu-v8/source/optee_os/lib/libutee/tee_api_arith_mpi.c:86
    3ed4:	a9bd7bfd 	stp	x29, x30, [sp, #-48]!
    3ed8:	910003fd 	mov	x29, sp
    3edc:	a90153f3 	stp	x19, x20, [sp, #16]
    3ee0:	aa0103f3 	mov	x19, x1
    3ee4:	a9025bf5 	stp	x21, x22, [sp, #32]
    3ee8:	aa0003f5 	mov	x21, x0
/home/jayanth/quemu-v8/source/optee_os/lib/libutee/tee_api_arith_mpi.c:101
    3eec:	94000785 	bl	5d00 <mbedtls_mpi_init_mempool>
/home/jayanth/quemu-v8/source/optee_os/lib/libutee/tee_api_arith_mpi.c:103
    3ef0:	b4000373 	cbz	x19, 3f5c <get_mpi+0x88>
/home/jayanth/quemu-v8/source/optee_os/lib/libutee/tee_api_arith_mpi.c:106
    3ef4:	79400e74 	ldrh	w20, [x19, #6]
/home/jayanth/quemu-v8/source/optee_os/lib/libutee/tee_api_arith_mpi.c:105
    3ef8:	91002276 	add	x22, x19, #0x8
/home/jayanth/quemu-v8/source/optee_os/lib/libutee/tee_api_arith_mpi.c:109
    3efc:	91001261 	add	x1, x19, #0x4
    3f00:	b4000074 	cbz	x20, 3f0c <get_mpi+0x38>
/home/jayanth/quemu-v8/source/optee_os/lib/libutee/tee_api_arith_mpi.c:109 (discriminator 1)
    3f04:	b8747820 	ldr	w0, [x1, x20, lsl #2]
    3f08:	34000140 	cbz	w0, 3f30 <get_mpi+0x5c>
/home/jayanth/quemu-v8/source/optee_os/lib/libutee/tee_api_arith_mpi.c:112
    3f0c:	aa1403e1 	mov	x1, x20
    3f10:	aa1503e0 	mov	x0, x21
    3f14:	940007a0 	bl	5d94 <mbedtls_mpi_grow>
    3f18:	2a0003e2 	mov	w2, w0
    3f1c:	340000e0 	cbz	w0, 3f38 <get_mpi+0x64>
/home/jayanth/quemu-v8/source/optee_os/lib/libutee/tee_api_arith_mpi.c:112 (discriminator 1)
    3f20:	b0000040 	adrp	x0, c000 <__func__.4194+0x3e3>
    3f24:	52800e01 	mov	w1, #0x70                  	// #112
    3f28:	910b4c00 	add	x0, x0, #0x2d3
    3f2c:	97ffffde 	bl	3ea4 <mpi_panic>
/home/jayanth/quemu-v8/source/optee_os/lib/libutee/tee_api_arith_mpi.c:110
    3f30:	d1000694 	sub	x20, x20, #0x1
    3f34:	17fffff3 	b	3f00 <get_mpi+0x2c>
/home/jayanth/quemu-v8/source/optee_os/lib/libutee/tee_api_arith_mpi.c:113 (discriminator 2)
    3f38:	b9400260 	ldr	w0, [x19]
/home/jayanth/quemu-v8/source/optee_os/lib/libutee/tee_api_arith_mpi.c:114 (discriminator 2)
    3f3c:	d37ef682 	lsl	x2, x20, #2
/home/jayanth/quemu-v8/source/optee_os/lib/libutee/tee_api_arith_mpi.c:113 (discriminator 2)
    3f40:	790002a0 	strh	w0, [x21]
/home/jayanth/quemu-v8/source/optee_os/lib/libutee/tee_api_arith_mpi.c:114 (discriminator 2)
    3f44:	aa1603e1 	mov	x1, x22
/home/jayanth/quemu-v8/source/optee_os/lib/libutee/tee_api_arith_mpi.c:116 (discriminator 2)
    3f48:	a94153f3 	ldp	x19, x20, [sp, #16]
/home/jayanth/quemu-v8/source/optee_os/lib/libutee/tee_api_arith_mpi.c:114 (discriminator 2)
    3f4c:	f9400aa0 	ldr	x0, [x21, #16]
/home/jayanth/quemu-v8/source/optee_os/lib/libutee/tee_api_arith_mpi.c:116 (discriminator 2)
    3f50:	a9425bf5 	ldp	x21, x22, [sp, #32]
    3f54:	a8c37bfd 	ldp	x29, x30, [sp], #48
/home/jayanth/quemu-v8/source/optee_os/lib/libutee/tee_api_arith_mpi.c:114 (discriminator 2)
    3f58:	17fff032 	b	20 <memcpy>
/home/jayanth/quemu-v8/source/optee_os/lib/libutee/tee_api_arith_mpi.c:116
    3f5c:	a94153f3 	ldp	x19, x20, [sp, #16]
    3f60:	a9425bf5 	ldp	x21, x22, [sp, #32]
    3f64:	a8c37bfd 	ldp	x29, x30, [sp], #48
    3f68:	d65f03c0 	ret

0000000000003f6c <copy_mpi_to_bigint>:
copy_mpi_to_bigint():
/home/jayanth/quemu-v8/source/optee_os/lib/libutee/tee_api_arith_mpi.c:61
    3f6c:	aa0003e4 	mov	x4, x0
    3f70:	aa0103e0 	mov	x0, x1
/home/jayanth/quemu-v8/source/optee_os/lib/libutee/tee_api_arith_mpi.c:63
    3f74:	a9408482 	ldp	x2, x1, [x4, #8]
    3f78:	aa0203e3 	mov	x3, x2
/home/jayanth/quemu-v8/source/optee_os/lib/libutee/tee_api_arith_mpi.c:66
    3f7c:	b40000e3 	cbz	x3, 3f98 <copy_mpi_to_bigint+0x2c>
/home/jayanth/quemu-v8/source/optee_os/lib/libutee/tee_api_arith_mpi.c:66 (discriminator 1)
    3f80:	8b030825 	add	x5, x1, x3, lsl #2
    3f84:	b85fc0a5 	ldur	w5, [x5, #-4]
    3f88:	340001c5 	cbz	w5, 3fc0 <copy_mpi_to_bigint+0x54>
/home/jayanth/quemu-v8/source/optee_os/lib/libutee/tee_api_arith_mpi.c:69
    3f8c:	79400805 	ldrh	w5, [x0, #4]
    3f90:	eb0300bf 	cmp	x5, x3
    3f94:	540001a3 	b.cc	3fc8 <copy_mpi_to_bigint+0x5c>  // b.lo, b.ul, b.last
/home/jayanth/quemu-v8/source/optee_os/lib/libutee/tee_api_arith_mpi.c:61
    3f98:	a9bf7bfd 	stp	x29, x30, [sp, #-16]!
/home/jayanth/quemu-v8/source/optee_os/lib/libutee/tee_api_arith_mpi.c:74
    3f9c:	d37ef442 	lsl	x2, x2, #2
/home/jayanth/quemu-v8/source/optee_os/lib/libutee/tee_api_arith_mpi.c:61
    3fa0:	910003fd 	mov	x29, sp
/home/jayanth/quemu-v8/source/optee_os/lib/libutee/tee_api_arith_mpi.c:72
    3fa4:	79000c03 	strh	w3, [x0, #6]
/home/jayanth/quemu-v8/source/optee_os/lib/libutee/tee_api_arith_mpi.c:73
    3fa8:	79c00083 	ldrsh	w3, [x4]
    3fac:	b8008403 	str	w3, [x0], #8
/home/jayanth/quemu-v8/source/optee_os/lib/libutee/tee_api_arith_mpi.c:74
    3fb0:	97fff01c 	bl	20 <memcpy>
/home/jayanth/quemu-v8/source/optee_os/lib/libutee/tee_api_arith_mpi.c:76
    3fb4:	52800000 	mov	w0, #0x0                   	// #0
/home/jayanth/quemu-v8/source/optee_os/lib/libutee/tee_api_arith_mpi.c:77
    3fb8:	a8c17bfd 	ldp	x29, x30, [sp], #16
    3fbc:	d65f03c0 	ret
/home/jayanth/quemu-v8/source/optee_os/lib/libutee/tee_api_arith_mpi.c:67
    3fc0:	d1000463 	sub	x3, x3, #0x1
    3fc4:	17ffffee 	b	3f7c <copy_mpi_to_bigint+0x10>
/home/jayanth/quemu-v8/source/optee_os/lib/libutee/tee_api_arith_mpi.c:70
    3fc8:	1299fe00 	mov	w0, #0xffff300f            	// #-53233
/home/jayanth/quemu-v8/source/optee_os/lib/libutee/tee_api_arith_mpi.c:77
    3fcc:	d65f03c0 	ret

0000000000003fd0 <bigint_binary>:
bigint_binary():
/home/jayanth/quemu-v8/source/optee_os/lib/libutee/tee_api_arith_mpi.c:319
    3fd0:	a9b67bfd 	stp	x29, x30, [sp, #-160]!
    3fd4:	910003fd 	mov	x29, sp
    3fd8:	a90153f3 	stp	x19, x20, [sp, #16]
/home/jayanth/quemu-v8/source/optee_os/lib/libutee/tee_api_arith_mpi.c:326
    3fdc:	910163f3 	add	x19, sp, #0x58
/home/jayanth/quemu-v8/source/optee_os/lib/libutee/tee_api_arith_mpi.c:319
    3fe0:	aa0003f4 	mov	x20, x0
    3fe4:	a9025bf5 	stp	x21, x22, [sp, #32]
    3fe8:	aa0203f5 	mov	x21, x2
    3fec:	a90363f7 	stp	x23, x24, [sp, #48]
    3ff0:	aa0103f7 	mov	x23, x1
/home/jayanth/quemu-v8/source/optee_os/lib/libutee/tee_api_arith_mpi.c:326
    3ff4:	aa0003e1 	mov	x1, x0
    3ff8:	aa1303e0 	mov	x0, x19
/home/jayanth/quemu-v8/source/optee_os/lib/libutee/tee_api_arith_mpi.c:319
    3ffc:	a9046bf9 	stp	x25, x26, [sp, #64]
    4000:	aa0303fa 	mov	x26, x3
/home/jayanth/quemu-v8/source/optee_os/lib/libutee/tee_api_arith_mpi.c:326
    4004:	97ffffb4 	bl	3ed4 <get_mpi>
/home/jayanth/quemu-v8/source/optee_os/lib/libutee/tee_api_arith_mpi.c:328
    4008:	9101c3f9 	add	x25, sp, #0x70
    400c:	eb17029f 	cmp	x20, x23
    4010:	54000320 	b.eq	4074 <bigint_binary+0xa4>  // b.none
/home/jayanth/quemu-v8/source/optee_os/lib/libutee/tee_api_arith_mpi.c:323
    4014:	aa1903f6 	mov	x22, x25
/home/jayanth/quemu-v8/source/optee_os/lib/libutee/tee_api_arith_mpi.c:331
    4018:	aa1703e1 	mov	x1, x23
    401c:	aa1903e0 	mov	x0, x25
    4020:	97ffffad 	bl	3ed4 <get_mpi>
/home/jayanth/quemu-v8/source/optee_os/lib/libutee/tee_api_arith_mpi.c:333
    4024:	eb15029f 	cmp	x20, x21
    4028:	910223f8 	add	x24, sp, #0x88
    402c:	54000280 	b.eq	407c <bigint_binary+0xac>  // b.none
/home/jayanth/quemu-v8/source/optee_os/lib/libutee/tee_api_arith_mpi.c:335
    4030:	eb1502ff 	cmp	x23, x21
    4034:	54000280 	b.eq	4084 <bigint_binary+0xb4>  // b.none
/home/jayanth/quemu-v8/source/optee_os/lib/libutee/tee_api_arith_mpi.c:338
    4038:	aa1503e1 	mov	x1, x21
/home/jayanth/quemu-v8/source/optee_os/lib/libutee/tee_api_arith_mpi.c:324
    403c:	aa1803f5 	mov	x21, x24
/home/jayanth/quemu-v8/source/optee_os/lib/libutee/tee_api_arith_mpi.c:338
    4040:	aa1803e0 	mov	x0, x24
    4044:	97ffffa4 	bl	3ed4 <get_mpi>
/home/jayanth/quemu-v8/source/optee_os/lib/libutee/tee_api_arith_mpi.c:340
    4048:	aa1503e2 	mov	x2, x21
    404c:	aa1603e1 	mov	x1, x22
    4050:	aa1303e0 	mov	x0, x19
    4054:	d63f0340 	blr	x26
    4058:	2a0003e2 	mov	w2, w0
    405c:	34000180 	cbz	w0, 408c <bigint_binary+0xbc>
/home/jayanth/quemu-v8/source/optee_os/lib/libutee/tee_api_arith_mpi.c:340 (discriminator 1)
    4060:	52802a81 	mov	w1, #0x154                 	// #340
/home/jayanth/quemu-v8/source/optee_os/lib/libutee/tee_api_arith_mpi.c:342 (discriminator 1)
    4064:	90000040 	adrp	x0, c000 <__func__.4194+0x3e3>
    4068:	910b4c00 	add	x0, x0, #0x2d3
    406c:	91002000 	add	x0, x0, #0x8
    4070:	97ffff8d 	bl	3ea4 <mpi_panic>
/home/jayanth/quemu-v8/source/optee_os/lib/libutee/tee_api_arith_mpi.c:329
    4074:	aa1303f6 	mov	x22, x19
    4078:	17ffffeb 	b	4024 <bigint_binary+0x54>
/home/jayanth/quemu-v8/source/optee_os/lib/libutee/tee_api_arith_mpi.c:334
    407c:	aa1303f5 	mov	x21, x19
    4080:	17fffff2 	b	4048 <bigint_binary+0x78>
/home/jayanth/quemu-v8/source/optee_os/lib/libutee/tee_api_arith_mpi.c:336
    4084:	aa1603f5 	mov	x21, x22
    4088:	17fffff0 	b	4048 <bigint_binary+0x78>
/home/jayanth/quemu-v8/source/optee_os/lib/libutee/tee_api_arith_mpi.c:342 (discriminator 2)
    408c:	aa1403e1 	mov	x1, x20
    4090:	aa1303e0 	mov	x0, x19
    4094:	97ffffb6 	bl	3f6c <copy_mpi_to_bigint>
    4098:	2a0003e2 	mov	w2, w0
    409c:	34000060 	cbz	w0, 40a8 <bigint_binary+0xd8>
/home/jayanth/quemu-v8/source/optee_os/lib/libutee/tee_api_arith_mpi.c:342 (discriminator 1)
    40a0:	52802ac1 	mov	w1, #0x156                 	// #342
    40a4:	17fffff0 	b	4064 <bigint_binary+0x94>
/home/jayanth/quemu-v8/source/optee_os/lib/libutee/tee_api_arith_mpi.c:343 (discriminator 2)
    40a8:	aa1303e0 	mov	x0, x19
    40ac:	9400071f 	bl	5d28 <mbedtls_mpi_free>
/home/jayanth/quemu-v8/source/optee_os/lib/libutee/tee_api_arith_mpi.c:344 (discriminator 2)
    40b0:	eb1902df 	cmp	x22, x25
    40b4:	54000061 	b.ne	40c0 <bigint_binary+0xf0>  // b.any
/home/jayanth/quemu-v8/source/optee_os/lib/libutee/tee_api_arith_mpi.c:345
    40b8:	aa1603e0 	mov	x0, x22
    40bc:	9400071b 	bl	5d28 <mbedtls_mpi_free>
/home/jayanth/quemu-v8/source/optee_os/lib/libutee/tee_api_arith_mpi.c:346
    40c0:	eb1802bf 	cmp	x21, x24
    40c4:	54000061 	b.ne	40d0 <bigint_binary+0x100>  // b.any
/home/jayanth/quemu-v8/source/optee_os/lib/libutee/tee_api_arith_mpi.c:347
    40c8:	aa1503e0 	mov	x0, x21
    40cc:	94000717 	bl	5d28 <mbedtls_mpi_free>
/home/jayanth/quemu-v8/source/optee_os/lib/libutee/tee_api_arith_mpi.c:348
    40d0:	a94153f3 	ldp	x19, x20, [sp, #16]
    40d4:	a9425bf5 	ldp	x21, x22, [sp, #32]
    40d8:	a94363f7 	ldp	x23, x24, [sp, #48]
    40dc:	a9446bf9 	ldp	x25, x26, [sp, #64]
    40e0:	a8ca7bfd 	ldp	x29, x30, [sp], #160
    40e4:	d65f03c0 	ret

00000000000040e8 <mpi_is_odd>:
mpi_is_odd():
/home/jayanth/quemu-v8/source/optee_os/lib/libutee/tee_api_arith_mpi.c:590
    40e8:	a9bf7bfd 	stp	x29, x30, [sp, #-16]!
/home/jayanth/quemu-v8/source/optee_os/lib/libutee/tee_api_arith_mpi.c:591
    40ec:	d2800001 	mov	x1, #0x0                   	// #0
/home/jayanth/quemu-v8/source/optee_os/lib/libutee/tee_api_arith_mpi.c:590
    40f0:	910003fd 	mov	x29, sp
/home/jayanth/quemu-v8/source/optee_os/lib/libutee/tee_api_arith_mpi.c:591
    40f4:	94000871 	bl	62b8 <mbedtls_mpi_get_bit>
    40f8:	7100001f 	cmp	w0, #0x0
/home/jayanth/quemu-v8/source/optee_os/lib/libutee/tee_api_arith_mpi.c:592
    40fc:	1a9f07e0 	cset	w0, ne  // ne = any
    4100:	a8c17bfd 	ldp	x29, x30, [sp], #16
    4104:	d65f03c0 	ret

0000000000004108 <rng_read>:
rng_read():
/home/jayanth/quemu-v8/source/optee_os/lib/libutee/tee_api_arith_mpi.c:757
    4108:	a9bf7bfd 	stp	x29, x30, [sp, #-16]!
    410c:	aa0103e0 	mov	x0, x1
    4110:	aa0203e1 	mov	x1, x2
    4114:	910003fd 	mov	x29, sp
/home/jayanth/quemu-v8/source/optee_os/lib/libutee/tee_api_arith_mpi.c:758
    4118:	97fffc9b 	bl	3384 <_utee_cryp_random_number_generate>
/home/jayanth/quemu-v8/source/optee_os/lib/libutee/tee_api_arith_mpi.c:759
    411c:	7100001f 	cmp	w0, #0x0
/home/jayanth/quemu-v8/source/optee_os/lib/libutee/tee_api_arith_mpi.c:761
    4120:	a8c17bfd 	ldp	x29, x30, [sp], #16
    4124:	12800020 	mov	w0, #0xfffffffe            	// #-2
    4128:	1a9f1000 	csel	w0, w0, wzr, ne  // ne = any
    412c:	d65f03c0 	ret

0000000000004130 <mpi_egcd>:
mpi_egcd():
/home/jayanth/quemu-v8/source/optee_os/lib/libutee/tee_api_arith_mpi.c:605
    4130:	a9ae7bfd 	stp	x29, x30, [sp, #-288]!
    4134:	910003fd 	mov	x29, sp
    4138:	a90363f7 	stp	x23, x24, [sp, #48]
get_mpi():
/home/jayanth/quemu-v8/source/optee_os/lib/libutee/tee_api_arith_mpi.c:101
    413c:	9101e3f8 	add	x24, sp, #0x78
    4140:	910243f7 	add	x23, sp, #0x90
mpi_egcd():
/home/jayanth/quemu-v8/source/optee_os/lib/libutee/tee_api_arith_mpi.c:605
    4144:	a90153f3 	stp	x19, x20, [sp, #16]
get_mpi():
/home/jayanth/quemu-v8/source/optee_os/lib/libutee/tee_api_arith_mpi.c:101
    4148:	9102a3f4 	add	x20, sp, #0xa8
    414c:	910303f3 	add	x19, sp, #0xc0
mpi_egcd():
/home/jayanth/quemu-v8/source/optee_os/lib/libutee/tee_api_arith_mpi.c:605
    4150:	a9025bf5 	stp	x21, x22, [sp, #32]
    4154:	aa0003f5 	mov	x21, x0
get_mpi():
/home/jayanth/quemu-v8/source/optee_os/lib/libutee/tee_api_arith_mpi.c:101
    4158:	aa1803e0 	mov	x0, x24
mpi_egcd():
/home/jayanth/quemu-v8/source/optee_os/lib/libutee/tee_api_arith_mpi.c:605
    415c:	a9046bf9 	stp	x25, x26, [sp, #64]
get_mpi():
/home/jayanth/quemu-v8/source/optee_os/lib/libutee/tee_api_arith_mpi.c:101
    4160:	910363fa 	add	x26, sp, #0xd8
    4164:	9103c3f9 	add	x25, sp, #0xf0
mpi_egcd():
/home/jayanth/quemu-v8/source/optee_os/lib/libutee/tee_api_arith_mpi.c:605
    4168:	a90573fb 	stp	x27, x28, [sp, #80]
    416c:	aa0103fb 	mov	x27, x1
    4170:	aa0303fc 	mov	x28, x3
    4174:	a90613e2 	stp	x2, x4, [sp, #96]
get_mpi():
/home/jayanth/quemu-v8/source/optee_os/lib/libutee/tee_api_arith_mpi.c:101
    4178:	940006e2 	bl	5d00 <mbedtls_mpi_init_mempool>
    417c:	aa1703e0 	mov	x0, x23
    4180:	940006e0 	bl	5d00 <mbedtls_mpi_init_mempool>
    4184:	910423f6 	add	x22, sp, #0x108
    4188:	aa1403e0 	mov	x0, x20
    418c:	940006dd 	bl	5d00 <mbedtls_mpi_init_mempool>
    4190:	aa1303e0 	mov	x0, x19
    4194:	940006db 	bl	5d00 <mbedtls_mpi_init_mempool>
    4198:	aa1a03e0 	mov	x0, x26
    419c:	940006d9 	bl	5d00 <mbedtls_mpi_init_mempool>
    41a0:	aa1903e0 	mov	x0, x25
    41a4:	940006d7 	bl	5d00 <mbedtls_mpi_init_mempool>
    41a8:	aa1603e0 	mov	x0, x22
    41ac:	940006d5 	bl	5d00 <mbedtls_mpi_init_mempool>
mpi_egcd():
/home/jayanth/quemu-v8/source/optee_os/lib/libutee/tee_api_arith_mpi.c:624
    41b0:	f94037e0 	ldr	x0, [sp, #104]
    41b4:	52800001 	mov	w1, #0x0                   	// #0
    41b8:	94000a5e 	bl	6b30 <mbedtls_mpi_cmp_int>
    41bc:	35000320 	cbnz	w0, 4220 <mpi_egcd+0xf0>
/home/jayanth/quemu-v8/source/optee_os/lib/libutee/tee_api_arith_mpi.c:625
    41c0:	aa1b03e0 	mov	x0, x27
    41c4:	52800021 	mov	w1, #0x1                   	// #1
    41c8:	94000822 	bl	6250 <mbedtls_mpi_lset>
    41cc:	2a0003e2 	mov	w2, w0
    41d0:	340000c0 	cbz	w0, 41e8 <mpi_egcd+0xb8>
/home/jayanth/quemu-v8/source/optee_os/lib/libutee/tee_api_arith_mpi.c:625 (discriminator 1)
    41d4:	52804e21 	mov	w1, #0x271                 	// #625
/home/jayanth/quemu-v8/source/optee_os/lib/libutee/tee_api_arith_mpi.c:626 (discriminator 1)
    41d8:	90000040 	adrp	x0, c000 <__func__.4194+0x3e3>
    41dc:	910b4c00 	add	x0, x0, #0x2d3
    41e0:	91005800 	add	x0, x0, #0x16
    41e4:	97ffff30 	bl	3ea4 <mpi_panic>
/home/jayanth/quemu-v8/source/optee_os/lib/libutee/tee_api_arith_mpi.c:626 (discriminator 2)
    41e8:	f94033e0 	ldr	x0, [sp, #96]
    41ec:	52800001 	mov	w1, #0x0                   	// #0
    41f0:	94000818 	bl	6250 <mbedtls_mpi_lset>
    41f4:	2a0003e2 	mov	w2, w0
    41f8:	34000060 	cbz	w0, 4204 <mpi_egcd+0xd4>
/home/jayanth/quemu-v8/source/optee_os/lib/libutee/tee_api_arith_mpi.c:626 (discriminator 1)
    41fc:	52804e41 	mov	w1, #0x272                 	// #626
    4200:	17fffff6 	b	41d8 <mpi_egcd+0xa8>
/home/jayanth/quemu-v8/source/optee_os/lib/libutee/tee_api_arith_mpi.c:627 (discriminator 2)
    4204:	aa1c03e1 	mov	x1, x28
    4208:	aa1503e0 	mov	x0, x21
    420c:	94000764 	bl	5f9c <mbedtls_mpi_copy>
    4210:	2a0003e2 	mov	w2, w0
    4214:	34002040 	cbz	w0, 461c <mpi_egcd+0x4ec>
/home/jayanth/quemu-v8/source/optee_os/lib/libutee/tee_api_arith_mpi.c:627 (discriminator 1)
    4218:	52804e61 	mov	w1, #0x273                 	// #627
    421c:	17ffffef 	b	41d8 <mpi_egcd+0xa8>
/home/jayanth/quemu-v8/source/optee_os/lib/libutee/tee_api_arith_mpi.c:631
    4220:	aa1c03e1 	mov	x1, x28
    4224:	aa1a03e0 	mov	x0, x26
    4228:	9400075d 	bl	5f9c <mbedtls_mpi_copy>
    422c:	2a0003e2 	mov	w2, w0
    4230:	34000060 	cbz	w0, 423c <mpi_egcd+0x10c>
/home/jayanth/quemu-v8/source/optee_os/lib/libutee/tee_api_arith_mpi.c:631 (discriminator 1)
    4234:	52804ee1 	mov	w1, #0x277                 	// #631
    4238:	17ffffe8 	b	41d8 <mpi_egcd+0xa8>
/home/jayanth/quemu-v8/source/optee_os/lib/libutee/tee_api_arith_mpi.c:632 (discriminator 2)
    423c:	f94037e1 	ldr	x1, [sp, #104]
    4240:	aa1903e0 	mov	x0, x25
/home/jayanth/quemu-v8/source/optee_os/lib/libutee/tee_api_arith_mpi.c:634 (discriminator 2)
    4244:	5280001c 	mov	w28, #0x0                   	// #0
/home/jayanth/quemu-v8/source/optee_os/lib/libutee/tee_api_arith_mpi.c:632 (discriminator 2)
    4248:	94000755 	bl	5f9c <mbedtls_mpi_copy>
    424c:	2a0003e2 	mov	w2, w0
    4250:	34000140 	cbz	w0, 4278 <mpi_egcd+0x148>
/home/jayanth/quemu-v8/source/optee_os/lib/libutee/tee_api_arith_mpi.c:632 (discriminator 1)
    4254:	52804f01 	mov	w1, #0x278                 	// #632
    4258:	17ffffe0 	b	41d8 <mpi_egcd+0xa8>
/home/jayanth/quemu-v8/source/optee_os/lib/libutee/tee_api_arith_mpi.c:638 (discriminator 2)
    425c:	aa1903e0 	mov	x0, x25
    4260:	d2800021 	mov	x1, #0x1                   	// #1
    4264:	94000974 	bl	6834 <mbedtls_mpi_shift_r>
    4268:	2a0003e2 	mov	w2, w0
    426c:	34000060 	cbz	w0, 4278 <mpi_egcd+0x148>
/home/jayanth/quemu-v8/source/optee_os/lib/libutee/tee_api_arith_mpi.c:638 (discriminator 1)
    4270:	52804fc1 	mov	w1, #0x27e                 	// #638
    4274:	17ffffd9 	b	41d8 <mpi_egcd+0xa8>
mpi_is_even():
/home/jayanth/quemu-v8/source/optee_os/lib/libutee/tee_api_arith_mpi.c:596 (discriminator 2)
    4278:	aa1a03e0 	mov	x0, x26
    427c:	97ffff9b 	bl	40e8 <mpi_is_odd>
mpi_egcd():
/home/jayanth/quemu-v8/source/optee_os/lib/libutee/tee_api_arith_mpi.c:635 (discriminator 2)
    4280:	72001c1f 	tst	w0, #0xff
    4284:	54000100 	b.eq	42a4 <mpi_egcd+0x174>  // b.none
/home/jayanth/quemu-v8/source/optee_os/lib/libutee/tee_api_arith_mpi.c:641
    4288:	aa1a03e1 	mov	x1, x26
    428c:	aa1603e0 	mov	x0, x22
    4290:	94000743 	bl	5f9c <mbedtls_mpi_copy>
    4294:	2a0003e2 	mov	w2, w0
    4298:	340001e0 	cbz	w0, 42d4 <mpi_egcd+0x1a4>
/home/jayanth/quemu-v8/source/optee_os/lib/libutee/tee_api_arith_mpi.c:641 (discriminator 1)
    429c:	52805021 	mov	w1, #0x281                 	// #641
    42a0:	17ffffce 	b	41d8 <mpi_egcd+0xa8>
mpi_is_even():
/home/jayanth/quemu-v8/source/optee_os/lib/libutee/tee_api_arith_mpi.c:596
    42a4:	aa1903e0 	mov	x0, x25
    42a8:	97ffff90 	bl	40e8 <mpi_is_odd>
mpi_egcd():
/home/jayanth/quemu-v8/source/optee_os/lib/libutee/tee_api_arith_mpi.c:635
    42ac:	72001c1f 	tst	w0, #0xff
    42b0:	54fffec1 	b.ne	4288 <mpi_egcd+0x158>  // b.any
/home/jayanth/quemu-v8/source/optee_os/lib/libutee/tee_api_arith_mpi.c:637
    42b4:	aa1a03e0 	mov	x0, x26
    42b8:	d2800021 	mov	x1, #0x1                   	// #1
/home/jayanth/quemu-v8/source/optee_os/lib/libutee/tee_api_arith_mpi.c:636
    42bc:	1100079c 	add	w28, w28, #0x1
/home/jayanth/quemu-v8/source/optee_os/lib/libutee/tee_api_arith_mpi.c:637
    42c0:	9400095d 	bl	6834 <mbedtls_mpi_shift_r>
    42c4:	2a0003e2 	mov	w2, w0
    42c8:	34fffca0 	cbz	w0, 425c <mpi_egcd+0x12c>
/home/jayanth/quemu-v8/source/optee_os/lib/libutee/tee_api_arith_mpi.c:637 (discriminator 1)
    42cc:	52804fa1 	mov	w1, #0x27d                 	// #637
    42d0:	17ffffc2 	b	41d8 <mpi_egcd+0xa8>
/home/jayanth/quemu-v8/source/optee_os/lib/libutee/tee_api_arith_mpi.c:642 (discriminator 2)
    42d4:	aa1903e1 	mov	x1, x25
    42d8:	aa1503e0 	mov	x0, x21
    42dc:	94000730 	bl	5f9c <mbedtls_mpi_copy>
    42e0:	2a0003e2 	mov	w2, w0
    42e4:	34000060 	cbz	w0, 42f0 <mpi_egcd+0x1c0>
/home/jayanth/quemu-v8/source/optee_os/lib/libutee/tee_api_arith_mpi.c:642 (discriminator 1)
    42e8:	52805041 	mov	w1, #0x282                 	// #642
    42ec:	17ffffbb 	b	41d8 <mpi_egcd+0xa8>
/home/jayanth/quemu-v8/source/optee_os/lib/libutee/tee_api_arith_mpi.c:643 (discriminator 2)
    42f0:	aa1803e0 	mov	x0, x24
    42f4:	52800021 	mov	w1, #0x1                   	// #1
    42f8:	940007d6 	bl	6250 <mbedtls_mpi_lset>
    42fc:	2a0003e2 	mov	w2, w0
    4300:	34000060 	cbz	w0, 430c <mpi_egcd+0x1dc>
/home/jayanth/quemu-v8/source/optee_os/lib/libutee/tee_api_arith_mpi.c:643 (discriminator 1)
    4304:	52805061 	mov	w1, #0x283                 	// #643
    4308:	17ffffb4 	b	41d8 <mpi_egcd+0xa8>
/home/jayanth/quemu-v8/source/optee_os/lib/libutee/tee_api_arith_mpi.c:644 (discriminator 2)
    430c:	aa1703e0 	mov	x0, x23
    4310:	52800001 	mov	w1, #0x0                   	// #0
    4314:	940007cf 	bl	6250 <mbedtls_mpi_lset>
    4318:	2a0003e2 	mov	w2, w0
    431c:	34000060 	cbz	w0, 4328 <mpi_egcd+0x1f8>
/home/jayanth/quemu-v8/source/optee_os/lib/libutee/tee_api_arith_mpi.c:644 (discriminator 1)
    4320:	52805081 	mov	w1, #0x284                 	// #644
    4324:	17ffffad 	b	41d8 <mpi_egcd+0xa8>
/home/jayanth/quemu-v8/source/optee_os/lib/libutee/tee_api_arith_mpi.c:645 (discriminator 2)
    4328:	aa1403e0 	mov	x0, x20
    432c:	52800001 	mov	w1, #0x0                   	// #0
    4330:	940007c8 	bl	6250 <mbedtls_mpi_lset>
    4334:	2a0003e2 	mov	w2, w0
    4338:	34000060 	cbz	w0, 4344 <mpi_egcd+0x214>
/home/jayanth/quemu-v8/source/optee_os/lib/libutee/tee_api_arith_mpi.c:645 (discriminator 1)
    433c:	528050a1 	mov	w1, #0x285                 	// #645
    4340:	17ffffa6 	b	41d8 <mpi_egcd+0xa8>
/home/jayanth/quemu-v8/source/optee_os/lib/libutee/tee_api_arith_mpi.c:646 (discriminator 2)
    4344:	aa1303e0 	mov	x0, x19
    4348:	52800021 	mov	w1, #0x1                   	// #1
    434c:	940007c1 	bl	6250 <mbedtls_mpi_lset>
    4350:	2a0003e2 	mov	w2, w0
    4354:	34001320 	cbz	w0, 45b8 <mpi_egcd+0x488>
/home/jayanth/quemu-v8/source/optee_os/lib/libutee/tee_api_arith_mpi.c:646 (discriminator 1)
    4358:	528050c1 	mov	w1, #0x286                 	// #646
    435c:	17ffff9f 	b	41d8 <mpi_egcd+0xa8>
/home/jayanth/quemu-v8/source/optee_os/lib/libutee/tee_api_arith_mpi.c:650
    4360:	aa1603e0 	mov	x0, x22
    4364:	d2800021 	mov	x1, #0x1                   	// #1
    4368:	94000933 	bl	6834 <mbedtls_mpi_shift_r>
    436c:	2a0003e2 	mov	w2, w0
    4370:	34000060 	cbz	w0, 437c <mpi_egcd+0x24c>
/home/jayanth/quemu-v8/source/optee_os/lib/libutee/tee_api_arith_mpi.c:650 (discriminator 1)
    4374:	52805141 	mov	w1, #0x28a                 	// #650
    4378:	17ffff98 	b	41d8 <mpi_egcd+0xa8>
/home/jayanth/quemu-v8/source/optee_os/lib/libutee/tee_api_arith_mpi.c:651 (discriminator 2)
    437c:	aa1803e0 	mov	x0, x24
    4380:	97ffff5a 	bl	40e8 <mpi_is_odd>
    4384:	72001c1f 	tst	w0, #0xff
    4388:	54000120 	b.eq	43ac <mpi_egcd+0x27c>  // b.none
/home/jayanth/quemu-v8/source/optee_os/lib/libutee/tee_api_arith_mpi.c:652
    438c:	aa1903e2 	mov	x2, x25
    4390:	aa1803e1 	mov	x1, x24
    4394:	aa1803e0 	mov	x0, x24
    4398:	94000a73 	bl	6d64 <mbedtls_mpi_add_mpi>
    439c:	2a0003e2 	mov	w2, w0
    43a0:	340001c0 	cbz	w0, 43d8 <mpi_egcd+0x2a8>
/home/jayanth/quemu-v8/source/optee_os/lib/libutee/tee_api_arith_mpi.c:652 (discriminator 1)
    43a4:	52805181 	mov	w1, #0x28c                 	// #652
    43a8:	17ffff8c 	b	41d8 <mpi_egcd+0xa8>
/home/jayanth/quemu-v8/source/optee_os/lib/libutee/tee_api_arith_mpi.c:651 (discriminator 1)
    43ac:	aa1703e0 	mov	x0, x23
    43b0:	97ffff4e 	bl	40e8 <mpi_is_odd>
    43b4:	72001c1f 	tst	w0, #0xff
    43b8:	54fffea1 	b.ne	438c <mpi_egcd+0x25c>  // b.any
/home/jayanth/quemu-v8/source/optee_os/lib/libutee/tee_api_arith_mpi.c:655
    43bc:	aa1803e0 	mov	x0, x24
    43c0:	d2800021 	mov	x1, #0x1                   	// #1
    43c4:	9400091c 	bl	6834 <mbedtls_mpi_shift_r>
    43c8:	2a0003e2 	mov	w2, w0
    43cc:	34000160 	cbz	w0, 43f8 <mpi_egcd+0x2c8>
/home/jayanth/quemu-v8/source/optee_os/lib/libutee/tee_api_arith_mpi.c:655 (discriminator 1)
    43d0:	528051e1 	mov	w1, #0x28f                 	// #655
    43d4:	17ffff81 	b	41d8 <mpi_egcd+0xa8>
/home/jayanth/quemu-v8/source/optee_os/lib/libutee/tee_api_arith_mpi.c:653 (discriminator 2)
    43d8:	aa1a03e2 	mov	x2, x26
    43dc:	aa1703e1 	mov	x1, x23
    43e0:	aa1703e0 	mov	x0, x23
    43e4:	94000a82 	bl	6dec <mbedtls_mpi_sub_mpi>
    43e8:	2a0003e2 	mov	w2, w0
    43ec:	34fffe80 	cbz	w0, 43bc <mpi_egcd+0x28c>
/home/jayanth/quemu-v8/source/optee_os/lib/libutee/tee_api_arith_mpi.c:653 (discriminator 1)
    43f0:	528051a1 	mov	w1, #0x28d                 	// #653
    43f4:	17ffff79 	b	41d8 <mpi_egcd+0xa8>
/home/jayanth/quemu-v8/source/optee_os/lib/libutee/tee_api_arith_mpi.c:656 (discriminator 2)
    43f8:	aa1703e0 	mov	x0, x23
    43fc:	d2800021 	mov	x1, #0x1                   	// #1
    4400:	9400090d 	bl	6834 <mbedtls_mpi_shift_r>
    4404:	2a0003e2 	mov	w2, w0
    4408:	34000060 	cbz	w0, 4414 <mpi_egcd+0x2e4>
/home/jayanth/quemu-v8/source/optee_os/lib/libutee/tee_api_arith_mpi.c:656 (discriminator 1)
    440c:	52805201 	mov	w1, #0x290                 	// #656
    4410:	17ffff72 	b	41d8 <mpi_egcd+0xa8>
mpi_is_even():
/home/jayanth/quemu-v8/source/optee_os/lib/libutee/tee_api_arith_mpi.c:596 (discriminator 2)
    4414:	aa1603e0 	mov	x0, x22
    4418:	97ffff34 	bl	40e8 <mpi_is_odd>
mpi_egcd():
/home/jayanth/quemu-v8/source/optee_os/lib/libutee/tee_api_arith_mpi.c:649 (discriminator 2)
    441c:	72001c1f 	tst	w0, #0xff
    4420:	54fffa00 	b.eq	4360 <mpi_egcd+0x230>  // b.none
mpi_is_even():
/home/jayanth/quemu-v8/source/optee_os/lib/libutee/tee_api_arith_mpi.c:596 (discriminator 2)
    4424:	aa1503e0 	mov	x0, x21
    4428:	97ffff30 	bl	40e8 <mpi_is_odd>
mpi_egcd():
/home/jayanth/quemu-v8/source/optee_os/lib/libutee/tee_api_arith_mpi.c:659 (discriminator 2)
    442c:	72001c1f 	tst	w0, #0xff
    4430:	540001a0 	b.eq	4464 <mpi_egcd+0x334>  // b.none
/home/jayanth/quemu-v8/source/optee_os/lib/libutee/tee_api_arith_mpi.c:670
    4434:	aa1503e1 	mov	x1, x21
    4438:	aa1603e0 	mov	x0, x22
    443c:	94000955 	bl	6990 <mbedtls_mpi_cmp_mpi>
    4440:	37f808c0 	tbnz	w0, #31, 4558 <mpi_egcd+0x428>
/home/jayanth/quemu-v8/source/optee_os/lib/libutee/tee_api_arith_mpi.c:671
    4444:	aa1503e2 	mov	x2, x21
    4448:	aa1603e1 	mov	x1, x22
    444c:	aa1603e0 	mov	x0, x22
    4450:	94000a67 	bl	6dec <mbedtls_mpi_sub_mpi>
    4454:	2a0003e2 	mov	w2, w0
    4458:	34000600 	cbz	w0, 4518 <mpi_egcd+0x3e8>
/home/jayanth/quemu-v8/source/optee_os/lib/libutee/tee_api_arith_mpi.c:671 (discriminator 1)
    445c:	528053e1 	mov	w1, #0x29f                 	// #671
    4460:	17ffff5e 	b	41d8 <mpi_egcd+0xa8>
/home/jayanth/quemu-v8/source/optee_os/lib/libutee/tee_api_arith_mpi.c:660
    4464:	aa1503e0 	mov	x0, x21
    4468:	d2800021 	mov	x1, #0x1                   	// #1
    446c:	940008f2 	bl	6834 <mbedtls_mpi_shift_r>
    4470:	2a0003e2 	mov	w2, w0
    4474:	34000060 	cbz	w0, 4480 <mpi_egcd+0x350>
/home/jayanth/quemu-v8/source/optee_os/lib/libutee/tee_api_arith_mpi.c:660 (discriminator 1)
    4478:	52805281 	mov	w1, #0x294                 	// #660
    447c:	17ffff57 	b	41d8 <mpi_egcd+0xa8>
/home/jayanth/quemu-v8/source/optee_os/lib/libutee/tee_api_arith_mpi.c:661 (discriminator 2)
    4480:	aa1403e0 	mov	x0, x20
    4484:	97ffff19 	bl	40e8 <mpi_is_odd>
    4488:	72001c1f 	tst	w0, #0xff
    448c:	54000120 	b.eq	44b0 <mpi_egcd+0x380>  // b.none
/home/jayanth/quemu-v8/source/optee_os/lib/libutee/tee_api_arith_mpi.c:662
    4490:	aa1903e2 	mov	x2, x25
    4494:	aa1403e1 	mov	x1, x20
    4498:	aa1403e0 	mov	x0, x20
    449c:	94000a32 	bl	6d64 <mbedtls_mpi_add_mpi>
    44a0:	2a0003e2 	mov	w2, w0
    44a4:	340001c0 	cbz	w0, 44dc <mpi_egcd+0x3ac>
/home/jayanth/quemu-v8/source/optee_os/lib/libutee/tee_api_arith_mpi.c:662 (discriminator 1)
    44a8:	528052c1 	mov	w1, #0x296                 	// #662
    44ac:	17ffff4b 	b	41d8 <mpi_egcd+0xa8>
/home/jayanth/quemu-v8/source/optee_os/lib/libutee/tee_api_arith_mpi.c:661 (discriminator 1)
    44b0:	aa1303e0 	mov	x0, x19
    44b4:	97ffff0d 	bl	40e8 <mpi_is_odd>
    44b8:	72001c1f 	tst	w0, #0xff
    44bc:	54fffea1 	b.ne	4490 <mpi_egcd+0x360>  // b.any
/home/jayanth/quemu-v8/source/optee_os/lib/libutee/tee_api_arith_mpi.c:665
    44c0:	aa1403e0 	mov	x0, x20
    44c4:	d2800021 	mov	x1, #0x1                   	// #1
    44c8:	940008db 	bl	6834 <mbedtls_mpi_shift_r>
    44cc:	2a0003e2 	mov	w2, w0
    44d0:	34000160 	cbz	w0, 44fc <mpi_egcd+0x3cc>
/home/jayanth/quemu-v8/source/optee_os/lib/libutee/tee_api_arith_mpi.c:665 (discriminator 1)
    44d4:	52805321 	mov	w1, #0x299                 	// #665
    44d8:	17ffff40 	b	41d8 <mpi_egcd+0xa8>
/home/jayanth/quemu-v8/source/optee_os/lib/libutee/tee_api_arith_mpi.c:663 (discriminator 2)
    44dc:	aa1a03e2 	mov	x2, x26
    44e0:	aa1303e1 	mov	x1, x19
    44e4:	aa1303e0 	mov	x0, x19
    44e8:	94000a41 	bl	6dec <mbedtls_mpi_sub_mpi>
    44ec:	2a0003e2 	mov	w2, w0
    44f0:	34fffe80 	cbz	w0, 44c0 <mpi_egcd+0x390>
/home/jayanth/quemu-v8/source/optee_os/lib/libutee/tee_api_arith_mpi.c:663 (discriminator 1)
    44f4:	528052e1 	mov	w1, #0x297                 	// #663
    44f8:	17ffff38 	b	41d8 <mpi_egcd+0xa8>
/home/jayanth/quemu-v8/source/optee_os/lib/libutee/tee_api_arith_mpi.c:666 (discriminator 2)
    44fc:	aa1303e0 	mov	x0, x19
    4500:	d2800021 	mov	x1, #0x1                   	// #1
    4504:	940008cc 	bl	6834 <mbedtls_mpi_shift_r>
    4508:	2a0003e2 	mov	w2, w0
    450c:	34fff8c0 	cbz	w0, 4424 <mpi_egcd+0x2f4>
/home/jayanth/quemu-v8/source/optee_os/lib/libutee/tee_api_arith_mpi.c:666 (discriminator 1)
    4510:	52805341 	mov	w1, #0x29a                 	// #666
    4514:	17ffff31 	b	41d8 <mpi_egcd+0xa8>
/home/jayanth/quemu-v8/source/optee_os/lib/libutee/tee_api_arith_mpi.c:672 (discriminator 2)
    4518:	aa1403e2 	mov	x2, x20
    451c:	aa1803e1 	mov	x1, x24
    4520:	aa1803e0 	mov	x0, x24
    4524:	94000a32 	bl	6dec <mbedtls_mpi_sub_mpi>
    4528:	2a0003e2 	mov	w2, w0
    452c:	34000060 	cbz	w0, 4538 <mpi_egcd+0x408>
/home/jayanth/quemu-v8/source/optee_os/lib/libutee/tee_api_arith_mpi.c:672 (discriminator 1)
    4530:	52805401 	mov	w1, #0x2a0                 	// #672
    4534:	17ffff29 	b	41d8 <mpi_egcd+0xa8>
/home/jayanth/quemu-v8/source/optee_os/lib/libutee/tee_api_arith_mpi.c:673 (discriminator 2)
    4538:	aa1303e2 	mov	x2, x19
    453c:	aa1703e1 	mov	x1, x23
    4540:	aa1703e0 	mov	x0, x23
    4544:	94000a2a 	bl	6dec <mbedtls_mpi_sub_mpi>
    4548:	2a0003e2 	mov	w2, w0
    454c:	34000360 	cbz	w0, 45b8 <mpi_egcd+0x488>
/home/jayanth/quemu-v8/source/optee_os/lib/libutee/tee_api_arith_mpi.c:673 (discriminator 1)
    4550:	52805421 	mov	w1, #0x2a1                 	// #673
    4554:	17ffff21 	b	41d8 <mpi_egcd+0xa8>
/home/jayanth/quemu-v8/source/optee_os/lib/libutee/tee_api_arith_mpi.c:675
    4558:	aa1603e2 	mov	x2, x22
    455c:	aa1503e1 	mov	x1, x21
    4560:	aa1503e0 	mov	x0, x21
    4564:	94000a22 	bl	6dec <mbedtls_mpi_sub_mpi>
    4568:	2a0003e2 	mov	w2, w0
    456c:	34000060 	cbz	w0, 4578 <mpi_egcd+0x448>
/home/jayanth/quemu-v8/source/optee_os/lib/libutee/tee_api_arith_mpi.c:675 (discriminator 1)
    4570:	52805461 	mov	w1, #0x2a3                 	// #675
    4574:	17ffff19 	b	41d8 <mpi_egcd+0xa8>
/home/jayanth/quemu-v8/source/optee_os/lib/libutee/tee_api_arith_mpi.c:676 (discriminator 2)
    4578:	aa1803e2 	mov	x2, x24
    457c:	aa1403e1 	mov	x1, x20
    4580:	aa1403e0 	mov	x0, x20
    4584:	94000a1a 	bl	6dec <mbedtls_mpi_sub_mpi>
    4588:	2a0003e2 	mov	w2, w0
    458c:	34000060 	cbz	w0, 4598 <mpi_egcd+0x468>
/home/jayanth/quemu-v8/source/optee_os/lib/libutee/tee_api_arith_mpi.c:676 (discriminator 1)
    4590:	52805481 	mov	w1, #0x2a4                 	// #676
    4594:	17ffff11 	b	41d8 <mpi_egcd+0xa8>
/home/jayanth/quemu-v8/source/optee_os/lib/libutee/tee_api_arith_mpi.c:677 (discriminator 2)
    4598:	aa1703e2 	mov	x2, x23
    459c:	aa1303e1 	mov	x1, x19
    45a0:	aa1303e0 	mov	x0, x19
    45a4:	94000a12 	bl	6dec <mbedtls_mpi_sub_mpi>
    45a8:	2a0003e2 	mov	w2, w0
    45ac:	34000060 	cbz	w0, 45b8 <mpi_egcd+0x488>
/home/jayanth/quemu-v8/source/optee_os/lib/libutee/tee_api_arith_mpi.c:677 (discriminator 1)
    45b0:	528054a1 	mov	w1, #0x2a5                 	// #677
    45b4:	17ffff09 	b	41d8 <mpi_egcd+0xa8>
/home/jayanth/quemu-v8/source/optee_os/lib/libutee/tee_api_arith_mpi.c:648 (discriminator 2)
    45b8:	aa1603e0 	mov	x0, x22
    45bc:	52800001 	mov	w1, #0x0                   	// #0
    45c0:	9400095c 	bl	6b30 <mbedtls_mpi_cmp_int>
    45c4:	35fff280 	cbnz	w0, 4414 <mpi_egcd+0x2e4>
/home/jayanth/quemu-v8/source/optee_os/lib/libutee/tee_api_arith_mpi.c:681
    45c8:	aa1403e1 	mov	x1, x20
    45cc:	aa1b03e0 	mov	x0, x27
    45d0:	94000673 	bl	5f9c <mbedtls_mpi_copy>
    45d4:	2a0003e2 	mov	w2, w0
    45d8:	34000060 	cbz	w0, 45e4 <mpi_egcd+0x4b4>
/home/jayanth/quemu-v8/source/optee_os/lib/libutee/tee_api_arith_mpi.c:681 (discriminator 1)
    45dc:	52805521 	mov	w1, #0x2a9                 	// #681
    45e0:	17fffefe 	b	41d8 <mpi_egcd+0xa8>
/home/jayanth/quemu-v8/source/optee_os/lib/libutee/tee_api_arith_mpi.c:682 (discriminator 2)
    45e4:	f94033e0 	ldr	x0, [sp, #96]
    45e8:	aa1303e1 	mov	x1, x19
    45ec:	9400066c 	bl	5f9c <mbedtls_mpi_copy>
    45f0:	2a0003e2 	mov	w2, w0
    45f4:	34000060 	cbz	w0, 4600 <mpi_egcd+0x4d0>
/home/jayanth/quemu-v8/source/optee_os/lib/libutee/tee_api_arith_mpi.c:682 (discriminator 1)
    45f8:	52805541 	mov	w1, #0x2aa                 	// #682
    45fc:	17fffef7 	b	41d8 <mpi_egcd+0xa8>
/home/jayanth/quemu-v8/source/optee_os/lib/libutee/tee_api_arith_mpi.c:683 (discriminator 2)
    4600:	2a1c03e1 	mov	w1, w28
    4604:	aa1503e0 	mov	x0, x21
    4608:	94000847 	bl	6724 <mbedtls_mpi_shift_l>
    460c:	2a0003e2 	mov	w2, w0
    4610:	34000060 	cbz	w0, 461c <mpi_egcd+0x4ec>
/home/jayanth/quemu-v8/source/optee_os/lib/libutee/tee_api_arith_mpi.c:683 (discriminator 1)
    4614:	52805561 	mov	w1, #0x2ab                 	// #683
    4618:	17fffef0 	b	41d8 <mpi_egcd+0xa8>
/home/jayanth/quemu-v8/source/optee_os/lib/libutee/tee_api_arith_mpi.c:686
    461c:	aa1803e0 	mov	x0, x24
    4620:	940005c2 	bl	5d28 <mbedtls_mpi_free>
/home/jayanth/quemu-v8/source/optee_os/lib/libutee/tee_api_arith_mpi.c:687
    4624:	aa1703e0 	mov	x0, x23
    4628:	940005c0 	bl	5d28 <mbedtls_mpi_free>
/home/jayanth/quemu-v8/source/optee_os/lib/libutee/tee_api_arith_mpi.c:688
    462c:	aa1403e0 	mov	x0, x20
    4630:	940005be 	bl	5d28 <mbedtls_mpi_free>
/home/jayanth/quemu-v8/source/optee_os/lib/libutee/tee_api_arith_mpi.c:689
    4634:	aa1303e0 	mov	x0, x19
    4638:	940005bc 	bl	5d28 <mbedtls_mpi_free>
/home/jayanth/quemu-v8/source/optee_os/lib/libutee/tee_api_arith_mpi.c:690
    463c:	aa1a03e0 	mov	x0, x26
    4640:	940005ba 	bl	5d28 <mbedtls_mpi_free>
/home/jayanth/quemu-v8/source/optee_os/lib/libutee/tee_api_arith_mpi.c:691
    4644:	aa1903e0 	mov	x0, x25
    4648:	940005b8 	bl	5d28 <mbedtls_mpi_free>
/home/jayanth/quemu-v8/source/optee_os/lib/libutee/tee_api_arith_mpi.c:692
    464c:	aa1603e0 	mov	x0, x22
    4650:	940005b6 	bl	5d28 <mbedtls_mpi_free>
/home/jayanth/quemu-v8/source/optee_os/lib/libutee/tee_api_arith_mpi.c:693
    4654:	a94153f3 	ldp	x19, x20, [sp, #16]
    4658:	a9425bf5 	ldp	x21, x22, [sp, #32]
    465c:	a94363f7 	ldp	x23, x24, [sp, #48]
    4660:	a9446bf9 	ldp	x25, x26, [sp, #64]
    4664:	a94573fb 	ldp	x27, x28, [sp, #80]
    4668:	a8d27bfd 	ldp	x29, x30, [sp], #288
    466c:	d65f03c0 	ret

0000000000004670 <_TEE_MathAPI_Init>:
_TEE_MathAPI_Init():
/home/jayanth/quemu-v8/source/optee_os/lib/libutee/tee_api_arith_mpi.c:44
    4670:	a9bf7bfd 	stp	x29, x30, [sp, #-16]!
/home/jayanth/quemu-v8/source/optee_os/lib/libutee/tee_api_arith_mpi.c:47
    4674:	d2860001 	mov	x1, #0x3000                	// #12288
    4678:	d2800002 	mov	x2, #0x0                   	// #0
/home/jayanth/quemu-v8/source/optee_os/lib/libutee/tee_api_arith_mpi.c:44
    467c:	910003fd 	mov	x29, sp
/home/jayanth/quemu-v8/source/optee_os/lib/libutee/tee_api_arith_mpi.c:47
    4680:	b0000040 	adrp	x0, d000 <_DYNAMIC>
    4684:	9113c000 	add	x0, x0, #0x4f0
    4688:	940013f6 	bl	9660 <mempool_alloc_pool>
    468c:	b0000041 	adrp	x1, d000 <_DYNAMIC>
    4690:	f940c821 	ldr	x1, [x1, #400]
    4694:	f9000020 	str	x0, [x1]
/home/jayanth/quemu-v8/source/optee_os/lib/libutee/tee_api_arith_mpi.c:48
    4698:	b5000100 	cbnz	x0, 46b8 <_TEE_MathAPI_Init+0x48>
/home/jayanth/quemu-v8/source/optee_os/lib/libutee/tee_api_arith_mpi.c:49
    469c:	90000040 	adrp	x0, c000 <__func__.4194+0x3e3>
    46a0:	910b4c00 	add	x0, x0, #0x2d3
    46a4:	90000042 	adrp	x2, c000 <__func__.4194+0x3e3>
    46a8:	91007c00 	add	x0, x0, #0x1f
    46ac:	91098442 	add	x2, x2, #0x261
    46b0:	52800621 	mov	w1, #0x31                  	// #49
    46b4:	97fffdf0 	bl	3e74 <api_panic>
/home/jayanth/quemu-v8/source/optee_os/lib/libutee/tee_api_arith_mpi.c:50
    46b8:	a8c17bfd 	ldp	x29, x30, [sp], #16
    46bc:	d65f03c0 	ret

00000000000046c0 <TEE_BigIntInit>:
TEE_BigIntInit():
/home/jayanth/quemu-v8/source/optee_os/lib/libutee/tee_api_arith_mpi.c:119
    46c0:	a9be7bfd 	stp	x29, x30, [sp, #-32]!
    46c4:	910003fd 	mov	x29, sp
    46c8:	a90153f3 	stp	x19, x20, [sp, #16]
    46cc:	2a0103f3 	mov	w19, w1
    46d0:	aa0003f4 	mov	x20, x0
/home/jayanth/quemu-v8/source/optee_os/lib/libutee/tee_api_arith_mpi.c:122
    46d4:	d37e7e62 	ubfiz	x2, x19, #2, #32
    46d8:	52800001 	mov	w1, #0x0                   	// #0
    46dc:	97fff33f 	bl	13d8 <memset>
/home/jayanth/quemu-v8/source/optee_os/lib/libutee/tee_api_arith_mpi.c:124
    46e0:	51000a73 	sub	w19, w19, #0x2
/home/jayanth/quemu-v8/source/optee_os/lib/libutee/tee_api_arith_mpi.c:123
    46e4:	52800020 	mov	w0, #0x1                   	// #1
    46e8:	b9000280 	str	w0, [x20]
/home/jayanth/quemu-v8/source/optee_os/lib/libutee/tee_api_arith_mpi.c:124
    46ec:	5284e200 	mov	w0, #0x2710                	// #10000
    46f0:	6b00027f 	cmp	w19, w0
    46f4:	54000109 	b.ls	4714 <TEE_BigIntInit+0x54>  // b.plast
/home/jayanth/quemu-v8/source/optee_os/lib/libutee/tee_api_arith_mpi.c:125
    46f8:	90000040 	adrp	x0, c000 <__func__.4194+0x3e3>
    46fc:	910b4c00 	add	x0, x0, #0x2d3
    4700:	90000042 	adrp	x2, c000 <__func__.4194+0x3e3>
    4704:	9100c400 	add	x0, x0, #0x31
    4708:	910a0842 	add	x2, x2, #0x282
    470c:	52800fa1 	mov	w1, #0x7d                  	// #125
    4710:	97fffdd9 	bl	3e74 <api_panic>
/home/jayanth/quemu-v8/source/optee_os/lib/libutee/tee_api_arith_mpi.c:126
    4714:	79000a93 	strh	w19, [x20, #4]
/home/jayanth/quemu-v8/source/optee_os/lib/libutee/tee_api_arith_mpi.c:127
    4718:	a94153f3 	ldp	x19, x20, [sp, #16]
    471c:	a8c27bfd 	ldp	x29, x30, [sp], #32
    4720:	d65f03c0 	ret

0000000000004724 <TEE_BigIntConvertFromOctetString>:
TEE_BigIntConvertFromOctetString():
/home/jayanth/quemu-v8/source/optee_os/lib/libutee/tee_api_arith_mpi.c:132
    4724:	a9ba7bfd 	stp	x29, x30, [sp, #-96]!
    4728:	910003fd 	mov	x29, sp
    472c:	a90153f3 	stp	x19, x20, [sp, #16]
get_mpi():
/home/jayanth/quemu-v8/source/optee_os/lib/libutee/tee_api_arith_mpi.c:101
    4730:	910123f4 	add	x20, sp, #0x48
TEE_BigIntConvertFromOctetString():
/home/jayanth/quemu-v8/source/optee_os/lib/libutee/tee_api_arith_mpi.c:132
    4734:	2a0303f3 	mov	w19, w3
    4738:	a9025bf5 	stp	x21, x22, [sp, #32]
    473c:	aa0103f6 	mov	x22, x1
    4740:	aa0003f5 	mov	x21, x0
get_mpi():
/home/jayanth/quemu-v8/source/optee_os/lib/libutee/tee_api_arith_mpi.c:101
    4744:	aa1403e0 	mov	x0, x20
TEE_BigIntConvertFromOctetString():
/home/jayanth/quemu-v8/source/optee_os/lib/libutee/tee_api_arith_mpi.c:132
    4748:	f9001bf7 	str	x23, [sp, #48]
    474c:	2a0203f7 	mov	w23, w2
get_mpi():
/home/jayanth/quemu-v8/source/optee_os/lib/libutee/tee_api_arith_mpi.c:101
    4750:	9400056c 	bl	5d00 <mbedtls_mpi_init_mempool>
TEE_BigIntConvertFromOctetString():
/home/jayanth/quemu-v8/source/optee_os/lib/libutee/tee_api_arith_mpi.c:138
    4754:	2a1703e2 	mov	w2, w23
    4758:	aa1603e1 	mov	x1, x22
    475c:	aa1403e0 	mov	x0, x20
    4760:	94000760 	bl	64e0 <mbedtls_mpi_read_binary>
    4764:	35000200 	cbnz	w0, 47a4 <TEE_BigIntConvertFromOctetString+0x80>
/home/jayanth/quemu-v8/source/optee_os/lib/libutee/tee_api_arith_mpi.c:143
    4768:	36f80073 	tbz	w19, #31, 4774 <TEE_BigIntConvertFromOctetString+0x50>
/home/jayanth/quemu-v8/source/optee_os/lib/libutee/tee_api_arith_mpi.c:144
    476c:	12800000 	mov	w0, #0xffffffff            	// #-1
    4770:	790093e0 	strh	w0, [sp, #72]
/home/jayanth/quemu-v8/source/optee_os/lib/libutee/tee_api_arith_mpi.c:147
    4774:	aa1503e1 	mov	x1, x21
    4778:	aa1403e0 	mov	x0, x20
    477c:	97fffdfc 	bl	3f6c <copy_mpi_to_bigint>
    4780:	2a0003f3 	mov	w19, w0
/home/jayanth/quemu-v8/source/optee_os/lib/libutee/tee_api_arith_mpi.c:149
    4784:	aa1403e0 	mov	x0, x20
    4788:	94000568 	bl	5d28 <mbedtls_mpi_free>
/home/jayanth/quemu-v8/source/optee_os/lib/libutee/tee_api_arith_mpi.c:152
    478c:	2a1303e0 	mov	w0, w19
    4790:	a94153f3 	ldp	x19, x20, [sp, #16]
    4794:	a9425bf5 	ldp	x21, x22, [sp, #32]
    4798:	f9401bf7 	ldr	x23, [sp, #48]
    479c:	a8c67bfd 	ldp	x29, x30, [sp], #96
    47a0:	d65f03c0 	ret
/home/jayanth/quemu-v8/source/optee_os/lib/libutee/tee_api_arith_mpi.c:143
    47a4:	36f80073 	tbz	w19, #31, 47b0 <TEE_BigIntConvertFromOctetString+0x8c>
/home/jayanth/quemu-v8/source/optee_os/lib/libutee/tee_api_arith_mpi.c:144
    47a8:	12800000 	mov	w0, #0xffffffff            	// #-1
    47ac:	790093e0 	strh	w0, [sp, #72]
/home/jayanth/quemu-v8/source/optee_os/lib/libutee/tee_api_arith_mpi.c:139
    47b0:	1299fe13 	mov	w19, #0xffff300f            	// #-53233
    47b4:	17fffff4 	b	4784 <TEE_BigIntConvertFromOctetString+0x60>

00000000000047b8 <TEE_BigIntConvertToOctetString>:
TEE_BigIntConvertToOctetString():
/home/jayanth/quemu-v8/source/optee_os/lib/libutee/tee_api_arith_mpi.c:156
    47b8:	a9bb7bfd 	stp	x29, x30, [sp, #-80]!
    47bc:	910003fd 	mov	x29, sp
    47c0:	a9025bf5 	stp	x21, x22, [sp, #32]
    47c4:	aa0103f5 	mov	x21, x1
    47c8:	aa0203e1 	mov	x1, x2
    47cc:	a90153f3 	stp	x19, x20, [sp, #16]
/home/jayanth/quemu-v8/source/optee_os/lib/libutee/tee_api_arith_mpi.c:161
    47d0:	9100e3f4 	add	x20, sp, #0x38
/home/jayanth/quemu-v8/source/optee_os/lib/libutee/tee_api_arith_mpi.c:156
    47d4:	aa0003f6 	mov	x22, x0
/home/jayanth/quemu-v8/source/optee_os/lib/libutee/tee_api_arith_mpi.c:161
    47d8:	aa1403e0 	mov	x0, x20
    47dc:	97fffdbe 	bl	3ed4 <get_mpi>
/home/jayanth/quemu-v8/source/optee_os/lib/libutee/tee_api_arith_mpi.c:163
    47e0:	aa1403e0 	mov	x0, x20
    47e4:	9400070f 	bl	6420 <mbedtls_mpi_size>
    47e8:	aa0003f3 	mov	x19, x0
/home/jayanth/quemu-v8/source/optee_os/lib/libutee/tee_api_arith_mpi.c:164
    47ec:	b94002a0 	ldr	w0, [x21]
    47f0:	eb13001f 	cmp	x0, x19
    47f4:	540001a3 	b.cc	4828 <TEE_BigIntConvertToOctetString+0x70>  // b.lo, b.ul, b.last
/home/jayanth/quemu-v8/source/optee_os/lib/libutee/tee_api_arith_mpi.c:165
    47f8:	aa1303e2 	mov	x2, x19
    47fc:	aa1603e1 	mov	x1, x22
    4800:	aa1403e0 	mov	x0, x20
/home/jayanth/quemu-v8/source/optee_os/lib/libutee/tee_api_arith_mpi.c:157
    4804:	52800016 	mov	w22, #0x0                   	// #0
/home/jayanth/quemu-v8/source/optee_os/lib/libutee/tee_api_arith_mpi.c:165
    4808:	94000796 	bl	6660 <mbedtls_mpi_write_binary>
    480c:	2a0003e2 	mov	w2, w0
    4810:	340000e0 	cbz	w0, 482c <TEE_BigIntConvertToOctetString+0x74>
/home/jayanth/quemu-v8/source/optee_os/lib/libutee/tee_api_arith_mpi.c:165 (discriminator 1)
    4814:	90000040 	adrp	x0, c000 <__func__.4194+0x3e3>
    4818:	910b4c00 	add	x0, x0, #0x2d3
    481c:	91010000 	add	x0, x0, #0x40
    4820:	528014a1 	mov	w1, #0xa5                  	// #165
    4824:	97fffda0 	bl	3ea4 <mpi_panic>
/home/jayanth/quemu-v8/source/optee_os/lib/libutee/tee_api_arith_mpi.c:167
    4828:	129ffdf6 	mov	w22, #0xffff0010            	// #-65520
/home/jayanth/quemu-v8/source/optee_os/lib/libutee/tee_api_arith_mpi.c:169
    482c:	b90002b3 	str	w19, [x21]
/home/jayanth/quemu-v8/source/optee_os/lib/libutee/tee_api_arith_mpi.c:171
    4830:	aa1403e0 	mov	x0, x20
    4834:	9400053d 	bl	5d28 <mbedtls_mpi_free>
/home/jayanth/quemu-v8/source/optee_os/lib/libutee/tee_api_arith_mpi.c:174
    4838:	2a1603e0 	mov	w0, w22
    483c:	a94153f3 	ldp	x19, x20, [sp, #16]
    4840:	a9425bf5 	ldp	x21, x22, [sp, #32]
    4844:	a8c57bfd 	ldp	x29, x30, [sp], #80
    4848:	d65f03c0 	ret

000000000000484c <TEE_BigIntConvertFromS32>:
TEE_BigIntConvertFromS32():
/home/jayanth/quemu-v8/source/optee_os/lib/libutee/tee_api_arith_mpi.c:177
    484c:	a9bb7bfd 	stp	x29, x30, [sp, #-80]!
    4850:	910003fd 	mov	x29, sp
    4854:	a90153f3 	stp	x19, x20, [sp, #16]
/home/jayanth/quemu-v8/source/optee_os/lib/libutee/tee_api_arith_mpi.c:180
    4858:	9100e3f3 	add	x19, sp, #0x38
/home/jayanth/quemu-v8/source/optee_os/lib/libutee/tee_api_arith_mpi.c:177
    485c:	aa0003f4 	mov	x20, x0
    4860:	f90013f5 	str	x21, [sp, #32]
    4864:	2a0103f5 	mov	w21, w1
/home/jayanth/quemu-v8/source/optee_os/lib/libutee/tee_api_arith_mpi.c:180
    4868:	aa0003e1 	mov	x1, x0
    486c:	aa1303e0 	mov	x0, x19
    4870:	97fffd99 	bl	3ed4 <get_mpi>
/home/jayanth/quemu-v8/source/optee_os/lib/libutee/tee_api_arith_mpi.c:182
    4874:	2a1503e1 	mov	w1, w21
    4878:	aa1303e0 	mov	x0, x19
    487c:	94000675 	bl	6250 <mbedtls_mpi_lset>
    4880:	340000e0 	cbz	w0, 489c <TEE_BigIntConvertFromS32+0x50>
    4884:	2a0003e2 	mov	w2, w0
/home/jayanth/quemu-v8/source/optee_os/lib/libutee/tee_api_arith_mpi.c:182 (discriminator 1)
    4888:	528016c1 	mov	w1, #0xb6                  	// #182
/home/jayanth/quemu-v8/source/optee_os/lib/libutee/tee_api_arith_mpi.c:184 (discriminator 1)
    488c:	90000040 	adrp	x0, c000 <__func__.4194+0x3e3>
    4890:	910b4c00 	add	x0, x0, #0x2d3
    4894:	91017c00 	add	x0, x0, #0x5f
    4898:	97fffd83 	bl	3ea4 <mpi_panic>
/home/jayanth/quemu-v8/source/optee_os/lib/libutee/tee_api_arith_mpi.c:184 (discriminator 2)
    489c:	aa1403e1 	mov	x1, x20
    48a0:	aa1303e0 	mov	x0, x19
    48a4:	97fffdb2 	bl	3f6c <copy_mpi_to_bigint>
    48a8:	2a0003e2 	mov	w2, w0
    48ac:	34000060 	cbz	w0, 48b8 <TEE_BigIntConvertFromS32+0x6c>
/home/jayanth/quemu-v8/source/optee_os/lib/libutee/tee_api_arith_mpi.c:184 (discriminator 1)
    48b0:	52801701 	mov	w1, #0xb8                  	// #184
    48b4:	17fffff6 	b	488c <TEE_BigIntConvertFromS32+0x40>
/home/jayanth/quemu-v8/source/optee_os/lib/libutee/tee_api_arith_mpi.c:185 (discriminator 2)
    48b8:	aa1303e0 	mov	x0, x19
    48bc:	9400051b 	bl	5d28 <mbedtls_mpi_free>
/home/jayanth/quemu-v8/source/optee_os/lib/libutee/tee_api_arith_mpi.c:186 (discriminator 2)
    48c0:	a94153f3 	ldp	x19, x20, [sp, #16]
    48c4:	f94013f5 	ldr	x21, [sp, #32]
    48c8:	a8c57bfd 	ldp	x29, x30, [sp], #80
    48cc:	d65f03c0 	ret

00000000000048d0 <TEE_BigIntConvertToS32>:
TEE_BigIntConvertToS32():
/home/jayanth/quemu-v8/source/optee_os/lib/libutee/tee_api_arith_mpi.c:189
    48d0:	a9bc7bfd 	stp	x29, x30, [sp, #-64]!
    48d4:	910003fd 	mov	x29, sp
    48d8:	a90153f3 	stp	x19, x20, [sp, #16]
/home/jayanth/quemu-v8/source/optee_os/lib/libutee/tee_api_arith_mpi.c:194
    48dc:	9100a3f4 	add	x20, sp, #0x28
/home/jayanth/quemu-v8/source/optee_os/lib/libutee/tee_api_arith_mpi.c:189
    48e0:	aa0003f3 	mov	x19, x0
/home/jayanth/quemu-v8/source/optee_os/lib/libutee/tee_api_arith_mpi.c:194
    48e4:	aa1403e0 	mov	x0, x20
    48e8:	97fffd7b 	bl	3ed4 <get_mpi>
/home/jayanth/quemu-v8/source/optee_os/lib/libutee/tee_api_arith_mpi.c:196
    48ec:	910093e1 	add	x1, sp, #0x24
    48f0:	aa1403e0 	mov	x0, x20
    48f4:	d2800082 	mov	x2, #0x4                   	// #4
    48f8:	9400075a 	bl	6660 <mbedtls_mpi_write_binary>
    48fc:	34000100 	cbz	w0, 491c <TEE_BigIntConvertToS32+0x4c>
/home/jayanth/quemu-v8/source/optee_os/lib/libutee/tee_api_arith_mpi.c:197
    4900:	1299fe13 	mov	w19, #0xffff300f            	// #-53233
/home/jayanth/quemu-v8/source/optee_os/lib/libutee/tee_api_arith_mpi.c:210
    4904:	aa1403e0 	mov	x0, x20
    4908:	94000508 	bl	5d28 <mbedtls_mpi_free>
/home/jayanth/quemu-v8/source/optee_os/lib/libutee/tee_api_arith_mpi.c:213
    490c:	2a1303e0 	mov	w0, w19
    4910:	a94153f3 	ldp	x19, x20, [sp, #16]
    4914:	a8c47bfd 	ldp	x29, x30, [sp], #64
    4918:	d65f03c0 	ret
/home/jayanth/quemu-v8/source/optee_os/lib/libutee/tee_api_arith_mpi.c:201
    491c:	b94027e1 	ldr	w1, [sp, #36]
    4920:	79c053e2 	ldrsh	w2, [sp, #40]
    4924:	5ac00820 	rev	w0, w1
    4928:	5ac00821 	rev	w1, w1
    492c:	7100005f 	cmp	w2, #0x0
    4930:	540000cd 	b.le	4948 <TEE_BigIntConvertToS32+0x78>
/home/jayanth/quemu-v8/source/optee_os/lib/libutee/tee_api_arith_mpi.c:202
    4934:	eb20c03f 	cmp	x1, w0, sxtw
    4938:	b9000260 	str	w0, [x19]
/home/jayanth/quemu-v8/source/optee_os/lib/libutee/tee_api_arith_mpi.c:205
    493c:	54fffe21 	b.ne	4900 <TEE_BigIntConvertToS32+0x30>  // b.any
/home/jayanth/quemu-v8/source/optee_os/lib/libutee/tee_api_arith_mpi.c:190
    4940:	52800013 	mov	w19, #0x0                   	// #0
    4944:	17fffff0 	b	4904 <TEE_BigIntConvertToS32+0x34>
/home/jayanth/quemu-v8/source/optee_os/lib/libutee/tee_api_arith_mpi.c:205
    4948:	cb0103e1 	neg	x1, x1
    494c:	b9000261 	str	w1, [x19]
    4950:	eb21c03f 	cmp	x1, w1, sxtw
    4954:	17fffffa 	b	493c <TEE_BigIntConvertToS32+0x6c>

0000000000004958 <TEE_BigIntCmp>:
TEE_BigIntCmp():
/home/jayanth/quemu-v8/source/optee_os/lib/libutee/tee_api_arith_mpi.c:216
    4958:	a9ba7bfd 	stp	x29, x30, [sp, #-96]!
    495c:	910003fd 	mov	x29, sp
    4960:	a90153f3 	stp	x19, x20, [sp, #16]
/home/jayanth/quemu-v8/source/optee_os/lib/libutee/tee_api_arith_mpi.c:221
    4964:	9100c3f4 	add	x20, sp, #0x30
/home/jayanth/quemu-v8/source/optee_os/lib/libutee/tee_api_arith_mpi.c:222
    4968:	910123f3 	add	x19, sp, #0x48
/home/jayanth/quemu-v8/source/optee_os/lib/libutee/tee_api_arith_mpi.c:216
    496c:	f90013f5 	str	x21, [sp, #32]
    4970:	aa0103f5 	mov	x21, x1
/home/jayanth/quemu-v8/source/optee_os/lib/libutee/tee_api_arith_mpi.c:221
    4974:	aa0003e1 	mov	x1, x0
    4978:	aa1403e0 	mov	x0, x20
    497c:	97fffd56 	bl	3ed4 <get_mpi>
/home/jayanth/quemu-v8/source/optee_os/lib/libutee/tee_api_arith_mpi.c:222
    4980:	aa1503e1 	mov	x1, x21
    4984:	aa1303e0 	mov	x0, x19
    4988:	97fffd53 	bl	3ed4 <get_mpi>
/home/jayanth/quemu-v8/source/optee_os/lib/libutee/tee_api_arith_mpi.c:224
    498c:	aa1303e1 	mov	x1, x19
    4990:	aa1403e0 	mov	x0, x20
    4994:	940007ff 	bl	6990 <mbedtls_mpi_cmp_mpi>
    4998:	2a0003f5 	mov	w21, w0
/home/jayanth/quemu-v8/source/optee_os/lib/libutee/tee_api_arith_mpi.c:226
    499c:	aa1403e0 	mov	x0, x20
    49a0:	940004e2 	bl	5d28 <mbedtls_mpi_free>
/home/jayanth/quemu-v8/source/optee_os/lib/libutee/tee_api_arith_mpi.c:227
    49a4:	aa1303e0 	mov	x0, x19
    49a8:	940004e0 	bl	5d28 <mbedtls_mpi_free>
/home/jayanth/quemu-v8/source/optee_os/lib/libutee/tee_api_arith_mpi.c:230
    49ac:	2a1503e0 	mov	w0, w21
    49b0:	a94153f3 	ldp	x19, x20, [sp, #16]
    49b4:	f94013f5 	ldr	x21, [sp, #32]
    49b8:	a8c67bfd 	ldp	x29, x30, [sp], #96
    49bc:	d65f03c0 	ret

00000000000049c0 <TEE_BigIntCmpS32>:
TEE_BigIntCmpS32():
/home/jayanth/quemu-v8/source/optee_os/lib/libutee/tee_api_arith_mpi.c:233
    49c0:	a9bc7bfd 	stp	x29, x30, [sp, #-64]!
    49c4:	910003fd 	mov	x29, sp
    49c8:	a90153f3 	stp	x19, x20, [sp, #16]
/home/jayanth/quemu-v8/source/optee_os/lib/libutee/tee_api_arith_mpi.c:237
    49cc:	9100a3f3 	add	x19, sp, #0x28
/home/jayanth/quemu-v8/source/optee_os/lib/libutee/tee_api_arith_mpi.c:233
    49d0:	2a0103f4 	mov	w20, w1
/home/jayanth/quemu-v8/source/optee_os/lib/libutee/tee_api_arith_mpi.c:237
    49d4:	aa0003e1 	mov	x1, x0
    49d8:	aa1303e0 	mov	x0, x19
    49dc:	97fffd3e 	bl	3ed4 <get_mpi>
/home/jayanth/quemu-v8/source/optee_os/lib/libutee/tee_api_arith_mpi.c:239
    49e0:	2a1403e1 	mov	w1, w20
    49e4:	aa1303e0 	mov	x0, x19
    49e8:	94000852 	bl	6b30 <mbedtls_mpi_cmp_int>
    49ec:	2a0003f4 	mov	w20, w0
/home/jayanth/quemu-v8/source/optee_os/lib/libutee/tee_api_arith_mpi.c:241
    49f0:	aa1303e0 	mov	x0, x19
    49f4:	940004cd 	bl	5d28 <mbedtls_mpi_free>
/home/jayanth/quemu-v8/source/optee_os/lib/libutee/tee_api_arith_mpi.c:244
    49f8:	2a1403e0 	mov	w0, w20
    49fc:	a94153f3 	ldp	x19, x20, [sp, #16]
    4a00:	a8c47bfd 	ldp	x29, x30, [sp], #64
    4a04:	d65f03c0 	ret

0000000000004a08 <bigint_binary_mod>:
bigint_binary_mod():
/home/jayanth/quemu-v8/source/optee_os/lib/libutee/tee_api_arith_mpi.c:354
    4a08:	a9b27bfd 	stp	x29, x30, [sp, #-224]!
    4a0c:	910003fd 	mov	x29, sp
    4a10:	a90153f3 	stp	x19, x20, [sp, #16]
    4a14:	aa0003f4 	mov	x20, x0
/home/jayanth/quemu-v8/source/optee_os/lib/libutee/tee_api_arith_mpi.c:355
    4a18:	aa0303e0 	mov	x0, x3
/home/jayanth/quemu-v8/source/optee_os/lib/libutee/tee_api_arith_mpi.c:354
    4a1c:	a9025bf5 	stp	x21, x22, [sp, #32]
    4a20:	aa0203f5 	mov	x21, x2
    4a24:	aa0303f6 	mov	x22, x3
    4a28:	a90363f7 	stp	x23, x24, [sp, #48]
    4a2c:	aa0103f7 	mov	x23, x1
/home/jayanth/quemu-v8/source/optee_os/lib/libutee/tee_api_arith_mpi.c:355
    4a30:	52800041 	mov	w1, #0x2                   	// #2
/home/jayanth/quemu-v8/source/optee_os/lib/libutee/tee_api_arith_mpi.c:354
    4a34:	a9046bf9 	stp	x25, x26, [sp, #64]
    4a38:	aa0403fa 	mov	x26, x4
    4a3c:	f9002bfb 	str	x27, [sp, #80]
/home/jayanth/quemu-v8/source/optee_os/lib/libutee/tee_api_arith_mpi.c:355
    4a40:	97ffffe0 	bl	49c0 <TEE_BigIntCmpS32>
    4a44:	36f80100 	tbz	w0, #31, 4a64 <bigint_binary_mod+0x5c>
/home/jayanth/quemu-v8/source/optee_os/lib/libutee/tee_api_arith_mpi.c:356
    4a48:	90000040 	adrp	x0, c000 <__func__.4194+0x3e3>
    4a4c:	910b4c00 	add	x0, x0, #0x2d3
    4a50:	90000042 	adrp	x2, c000 <__func__.4194+0x3e3>
    4a54:	9101e000 	add	x0, x0, #0x78
    4a58:	910a4c42 	add	x2, x2, #0x293
    4a5c:	52802c81 	mov	w1, #0x164                 	// #356
    4a60:	97fffd05 	bl	3e74 <api_panic>
/home/jayanth/quemu-v8/source/optee_os/lib/libutee/tee_api_arith_mpi.c:366
    4a64:	9101a3f3 	add	x19, sp, #0x68
    4a68:	aa1403e1 	mov	x1, x20
    4a6c:	aa1303e0 	mov	x0, x19
/home/jayanth/quemu-v8/source/optee_os/lib/libutee/tee_api_arith_mpi.c:367
    4a70:	9102c3fb 	add	x27, sp, #0xb0
/home/jayanth/quemu-v8/source/optee_os/lib/libutee/tee_api_arith_mpi.c:366
    4a74:	97fffd18 	bl	3ed4 <get_mpi>
/home/jayanth/quemu-v8/source/optee_os/lib/libutee/tee_api_arith_mpi.c:367
    4a78:	910203f9 	add	x25, sp, #0x80
    4a7c:	aa1603e1 	mov	x1, x22
    4a80:	aa1b03e0 	mov	x0, x27
    4a84:	97fffd14 	bl	3ed4 <get_mpi>
/home/jayanth/quemu-v8/source/optee_os/lib/libutee/tee_api_arith_mpi.c:369
    4a88:	eb17029f 	cmp	x20, x23
    4a8c:	54000380 	b.eq	4afc <bigint_binary_mod+0xf4>  // b.none
/home/jayanth/quemu-v8/source/optee_os/lib/libutee/tee_api_arith_mpi.c:362
    4a90:	aa1903f6 	mov	x22, x25
/home/jayanth/quemu-v8/source/optee_os/lib/libutee/tee_api_arith_mpi.c:372
    4a94:	aa1703e1 	mov	x1, x23
    4a98:	aa1903e0 	mov	x0, x25
    4a9c:	97fffd0e 	bl	3ed4 <get_mpi>
/home/jayanth/quemu-v8/source/optee_os/lib/libutee/tee_api_arith_mpi.c:374
    4aa0:	eb15029f 	cmp	x20, x21
    4aa4:	910263f8 	add	x24, sp, #0x98
    4aa8:	540002e0 	b.eq	4b04 <bigint_binary_mod+0xfc>  // b.none
/home/jayanth/quemu-v8/source/optee_os/lib/libutee/tee_api_arith_mpi.c:376
    4aac:	eb1502ff 	cmp	x23, x21
    4ab0:	540002e0 	b.eq	4b0c <bigint_binary_mod+0x104>  // b.none
/home/jayanth/quemu-v8/source/optee_os/lib/libutee/tee_api_arith_mpi.c:379
    4ab4:	aa1503e1 	mov	x1, x21
/home/jayanth/quemu-v8/source/optee_os/lib/libutee/tee_api_arith_mpi.c:363
    4ab8:	aa1803f5 	mov	x21, x24
/home/jayanth/quemu-v8/source/optee_os/lib/libutee/tee_api_arith_mpi.c:379
    4abc:	aa1803e0 	mov	x0, x24
    4ac0:	97fffd05 	bl	3ed4 <get_mpi>
get_mpi():
/home/jayanth/quemu-v8/source/optee_os/lib/libutee/tee_api_arith_mpi.c:101
    4ac4:	910323f7 	add	x23, sp, #0xc8
    4ac8:	aa1703e0 	mov	x0, x23
    4acc:	9400048d 	bl	5d00 <mbedtls_mpi_init_mempool>
bigint_binary_mod():
/home/jayanth/quemu-v8/source/optee_os/lib/libutee/tee_api_arith_mpi.c:383
    4ad0:	aa1503e2 	mov	x2, x21
    4ad4:	aa1603e1 	mov	x1, x22
    4ad8:	aa1703e0 	mov	x0, x23
    4adc:	d63f0340 	blr	x26
    4ae0:	2a0003e2 	mov	w2, w0
    4ae4:	34000180 	cbz	w0, 4b14 <bigint_binary_mod+0x10c>
/home/jayanth/quemu-v8/source/optee_os/lib/libutee/tee_api_arith_mpi.c:383 (discriminator 1)
    4ae8:	52802fe1 	mov	w1, #0x17f                 	// #383
/home/jayanth/quemu-v8/source/optee_os/lib/libutee/tee_api_arith_mpi.c:384 (discriminator 1)
    4aec:	90000040 	adrp	x0, c000 <__func__.4194+0x3e3>
    4af0:	910b4c00 	add	x0, x0, #0x2d3
    4af4:	9101e000 	add	x0, x0, #0x78
    4af8:	97fffceb 	bl	3ea4 <mpi_panic>
/home/jayanth/quemu-v8/source/optee_os/lib/libutee/tee_api_arith_mpi.c:370
    4afc:	aa1303f6 	mov	x22, x19
    4b00:	17ffffe8 	b	4aa0 <bigint_binary_mod+0x98>
/home/jayanth/quemu-v8/source/optee_os/lib/libutee/tee_api_arith_mpi.c:375
    4b04:	aa1303f5 	mov	x21, x19
    4b08:	17ffffef 	b	4ac4 <bigint_binary_mod+0xbc>
/home/jayanth/quemu-v8/source/optee_os/lib/libutee/tee_api_arith_mpi.c:377
    4b0c:	aa1603f5 	mov	x21, x22
    4b10:	17ffffed 	b	4ac4 <bigint_binary_mod+0xbc>
/home/jayanth/quemu-v8/source/optee_os/lib/libutee/tee_api_arith_mpi.c:384 (discriminator 2)
    4b14:	aa1b03e2 	mov	x2, x27
    4b18:	aa1703e1 	mov	x1, x23
    4b1c:	aa1303e0 	mov	x0, x19
    4b20:	94000b1f 	bl	779c <mbedtls_mpi_mod_mpi>
    4b24:	2a0003e2 	mov	w2, w0
    4b28:	34000060 	cbz	w0, 4b34 <bigint_binary_mod+0x12c>
/home/jayanth/quemu-v8/source/optee_os/lib/libutee/tee_api_arith_mpi.c:384 (discriminator 1)
    4b2c:	52803001 	mov	w1, #0x180                 	// #384
    4b30:	17ffffef 	b	4aec <bigint_binary_mod+0xe4>
/home/jayanth/quemu-v8/source/optee_os/lib/libutee/tee_api_arith_mpi.c:386 (discriminator 2)
    4b34:	aa1403e1 	mov	x1, x20
    4b38:	aa1303e0 	mov	x0, x19
    4b3c:	97fffd0c 	bl	3f6c <copy_mpi_to_bigint>
    4b40:	2a0003e2 	mov	w2, w0
    4b44:	34000060 	cbz	w0, 4b50 <bigint_binary_mod+0x148>
/home/jayanth/quemu-v8/source/optee_os/lib/libutee/tee_api_arith_mpi.c:386 (discriminator 1)
    4b48:	52803041 	mov	w1, #0x182                 	// #386
    4b4c:	17ffffe8 	b	4aec <bigint_binary_mod+0xe4>
/home/jayanth/quemu-v8/source/optee_os/lib/libutee/tee_api_arith_mpi.c:387 (discriminator 2)
    4b50:	aa1303e0 	mov	x0, x19
    4b54:	94000475 	bl	5d28 <mbedtls_mpi_free>
/home/jayanth/quemu-v8/source/optee_os/lib/libutee/tee_api_arith_mpi.c:388 (discriminator 2)
    4b58:	eb1902df 	cmp	x22, x25
    4b5c:	54000061 	b.ne	4b68 <bigint_binary_mod+0x160>  // b.any
/home/jayanth/quemu-v8/source/optee_os/lib/libutee/tee_api_arith_mpi.c:389
    4b60:	aa1603e0 	mov	x0, x22
    4b64:	94000471 	bl	5d28 <mbedtls_mpi_free>
/home/jayanth/quemu-v8/source/optee_os/lib/libutee/tee_api_arith_mpi.c:390
    4b68:	eb1802bf 	cmp	x21, x24
    4b6c:	54000061 	b.ne	4b78 <bigint_binary_mod+0x170>  // b.any
/home/jayanth/quemu-v8/source/optee_os/lib/libutee/tee_api_arith_mpi.c:391
    4b70:	aa1503e0 	mov	x0, x21
    4b74:	9400046d 	bl	5d28 <mbedtls_mpi_free>
/home/jayanth/quemu-v8/source/optee_os/lib/libutee/tee_api_arith_mpi.c:392
    4b78:	aa1703e0 	mov	x0, x23
    4b7c:	9400046b 	bl	5d28 <mbedtls_mpi_free>
/home/jayanth/quemu-v8/source/optee_os/lib/libutee/tee_api_arith_mpi.c:393
    4b80:	a94153f3 	ldp	x19, x20, [sp, #16]
    4b84:	a9425bf5 	ldp	x21, x22, [sp, #32]
    4b88:	a94363f7 	ldp	x23, x24, [sp, #48]
    4b8c:	a9446bf9 	ldp	x25, x26, [sp, #64]
    4b90:	f9402bfb 	ldr	x27, [sp, #80]
    4b94:	a8ce7bfd 	ldp	x29, x30, [sp], #224
    4b98:	d65f03c0 	ret

0000000000004b9c <TEE_BigIntShiftRight>:
TEE_BigIntShiftRight():
/home/jayanth/quemu-v8/source/optee_os/lib/libutee/tee_api_arith_mpi.c:247
    4b9c:	a9b77bfd 	stp	x29, x30, [sp, #-144]!
    4ba0:	910003fd 	mov	x29, sp
    4ba4:	a90153f3 	stp	x19, x20, [sp, #16]
/home/jayanth/quemu-v8/source/optee_os/lib/libutee/tee_api_arith_mpi.c:251
    4ba8:	910123f3 	add	x19, sp, #0x48
/home/jayanth/quemu-v8/source/optee_os/lib/libutee/tee_api_arith_mpi.c:247
    4bac:	aa0003f4 	mov	x20, x0
    4bb0:	a9025bf5 	stp	x21, x22, [sp, #32]
    4bb4:	aa0103f6 	mov	x22, x1
/home/jayanth/quemu-v8/source/optee_os/lib/libutee/tee_api_arith_mpi.c:251
    4bb8:	aa0003e1 	mov	x1, x0
    4bbc:	aa1303e0 	mov	x0, x19
/home/jayanth/quemu-v8/source/optee_os/lib/libutee/tee_api_arith_mpi.c:247
    4bc0:	f9001bf7 	str	x23, [sp, #48]
    4bc4:	aa0203f7 	mov	x23, x2
/home/jayanth/quemu-v8/source/optee_os/lib/libutee/tee_api_arith_mpi.c:251
    4bc8:	97fffcc3 	bl	3ed4 <get_mpi>
/home/jayanth/quemu-v8/source/optee_os/lib/libutee/tee_api_arith_mpi.c:253
    4bcc:	eb16029f 	cmp	x20, x22
    4bd0:	54000161 	b.ne	4bfc <TEE_BigIntShiftRight+0x60>  // b.any
/home/jayanth/quemu-v8/source/optee_os/lib/libutee/tee_api_arith_mpi.c:254
    4bd4:	aa1703e1 	mov	x1, x23
    4bd8:	aa1303e0 	mov	x0, x19
    4bdc:	94000716 	bl	6834 <mbedtls_mpi_shift_r>
    4be0:	2a0003e2 	mov	w2, w0
    4be4:	34000760 	cbz	w0, 4cd0 <TEE_BigIntShiftRight+0x134>
/home/jayanth/quemu-v8/source/optee_os/lib/libutee/tee_api_arith_mpi.c:254 (discriminator 1)
    4be8:	52801fc1 	mov	w1, #0xfe                  	// #254
/home/jayanth/quemu-v8/source/optee_os/lib/libutee/tee_api_arith_mpi.c:261 (discriminator 1)
    4bec:	90000040 	adrp	x0, c000 <__func__.4194+0x3e3>
    4bf0:	910b4c00 	add	x0, x0, #0x2d3
    4bf4:	91022800 	add	x0, x0, #0x8a
    4bf8:	97fffcab 	bl	3ea4 <mpi_panic>
/home/jayanth/quemu-v8/source/optee_os/lib/libutee/tee_api_arith_mpi.c:258
    4bfc:	aa1603e1 	mov	x1, x22
    4c00:	910183f5 	add	x21, sp, #0x60
    4c04:	aa1503e0 	mov	x0, x21
    4c08:	97fffcb3 	bl	3ed4 <get_mpi>
/home/jayanth/quemu-v8/source/optee_os/lib/libutee/tee_api_arith_mpi.c:260
    4c0c:	aa1303e0 	mov	x0, x19
    4c10:	94000604 	bl	6420 <mbedtls_mpi_size>
    4c14:	aa0003f6 	mov	x22, x0
    4c18:	aa1503e0 	mov	x0, x21
    4c1c:	94000601 	bl	6420 <mbedtls_mpi_size>
    4c20:	eb0002df 	cmp	x22, x0
    4c24:	540001e3 	b.cc	4c60 <TEE_BigIntShiftRight+0xc4>  // b.lo, b.ul, b.last
/home/jayanth/quemu-v8/source/optee_os/lib/libutee/tee_api_arith_mpi.c:261
    4c28:	aa1503e1 	mov	x1, x21
    4c2c:	aa1303e0 	mov	x0, x19
    4c30:	940004db 	bl	5f9c <mbedtls_mpi_copy>
    4c34:	2a0003e2 	mov	w2, w0
    4c38:	34000060 	cbz	w0, 4c44 <TEE_BigIntShiftRight+0xa8>
/home/jayanth/quemu-v8/source/optee_os/lib/libutee/tee_api_arith_mpi.c:261 (discriminator 1)
    4c3c:	528020a1 	mov	w1, #0x105                 	// #261
    4c40:	17ffffeb 	b	4bec <TEE_BigIntShiftRight+0x50>
/home/jayanth/quemu-v8/source/optee_os/lib/libutee/tee_api_arith_mpi.c:262 (discriminator 2)
    4c44:	aa1703e1 	mov	x1, x23
    4c48:	aa1303e0 	mov	x0, x19
    4c4c:	940006fa 	bl	6834 <mbedtls_mpi_shift_r>
    4c50:	2a0003e2 	mov	w2, w0
    4c54:	340003a0 	cbz	w0, 4cc8 <TEE_BigIntShiftRight+0x12c>
/home/jayanth/quemu-v8/source/optee_os/lib/libutee/tee_api_arith_mpi.c:262 (discriminator 1)
    4c58:	528020c1 	mov	w1, #0x106                 	// #262
    4c5c:	17ffffe4 	b	4bec <TEE_BigIntShiftRight+0x50>
get_mpi():
/home/jayanth/quemu-v8/source/optee_os/lib/libutee/tee_api_arith_mpi.c:101
    4c60:	9101e3f6 	add	x22, sp, #0x78
    4c64:	aa1603e0 	mov	x0, x22
    4c68:	94000426 	bl	5d00 <mbedtls_mpi_init_mempool>
TEE_BigIntShiftRight():
/home/jayanth/quemu-v8/source/optee_os/lib/libutee/tee_api_arith_mpi.c:273
    4c6c:	aa1503e1 	mov	x1, x21
    4c70:	aa1603e0 	mov	x0, x22
    4c74:	940004ca 	bl	5f9c <mbedtls_mpi_copy>
    4c78:	2a0003e2 	mov	w2, w0
    4c7c:	34000060 	cbz	w0, 4c88 <TEE_BigIntShiftRight+0xec>
/home/jayanth/quemu-v8/source/optee_os/lib/libutee/tee_api_arith_mpi.c:273 (discriminator 1)
    4c80:	52802221 	mov	w1, #0x111                 	// #273
    4c84:	17ffffda 	b	4bec <TEE_BigIntShiftRight+0x50>
/home/jayanth/quemu-v8/source/optee_os/lib/libutee/tee_api_arith_mpi.c:274 (discriminator 2)
    4c88:	aa1703e1 	mov	x1, x23
    4c8c:	aa1603e0 	mov	x0, x22
    4c90:	940006e9 	bl	6834 <mbedtls_mpi_shift_r>
    4c94:	2a0003e2 	mov	w2, w0
    4c98:	34000060 	cbz	w0, 4ca4 <TEE_BigIntShiftRight+0x108>
/home/jayanth/quemu-v8/source/optee_os/lib/libutee/tee_api_arith_mpi.c:274 (discriminator 1)
    4c9c:	52802241 	mov	w1, #0x112                 	// #274
    4ca0:	17ffffd3 	b	4bec <TEE_BigIntShiftRight+0x50>
/home/jayanth/quemu-v8/source/optee_os/lib/libutee/tee_api_arith_mpi.c:275 (discriminator 2)
    4ca4:	aa1603e1 	mov	x1, x22
    4ca8:	aa1303e0 	mov	x0, x19
    4cac:	940004bc 	bl	5f9c <mbedtls_mpi_copy>
    4cb0:	2a0003e2 	mov	w2, w0
    4cb4:	34000060 	cbz	w0, 4cc0 <TEE_BigIntShiftRight+0x124>
/home/jayanth/quemu-v8/source/optee_os/lib/libutee/tee_api_arith_mpi.c:275 (discriminator 1)
    4cb8:	52802261 	mov	w1, #0x113                 	// #275
    4cbc:	17ffffcc 	b	4bec <TEE_BigIntShiftRight+0x50>
/home/jayanth/quemu-v8/source/optee_os/lib/libutee/tee_api_arith_mpi.c:277 (discriminator 2)
    4cc0:	aa1603e0 	mov	x0, x22
    4cc4:	94000419 	bl	5d28 <mbedtls_mpi_free>
/home/jayanth/quemu-v8/source/optee_os/lib/libutee/tee_api_arith_mpi.c:280
    4cc8:	aa1503e0 	mov	x0, x21
    4ccc:	94000417 	bl	5d28 <mbedtls_mpi_free>
/home/jayanth/quemu-v8/source/optee_os/lib/libutee/tee_api_arith_mpi.c:283
    4cd0:	aa1403e1 	mov	x1, x20
    4cd4:	aa1303e0 	mov	x0, x19
    4cd8:	97fffca5 	bl	3f6c <copy_mpi_to_bigint>
    4cdc:	2a0003e2 	mov	w2, w0
    4ce0:	34000060 	cbz	w0, 4cec <TEE_BigIntShiftRight+0x150>
/home/jayanth/quemu-v8/source/optee_os/lib/libutee/tee_api_arith_mpi.c:283 (discriminator 1)
    4ce4:	52802361 	mov	w1, #0x11b                 	// #283
    4ce8:	17ffffc1 	b	4bec <TEE_BigIntShiftRight+0x50>
/home/jayanth/quemu-v8/source/optee_os/lib/libutee/tee_api_arith_mpi.c:284 (discriminator 2)
    4cec:	aa1303e0 	mov	x0, x19
    4cf0:	9400040e 	bl	5d28 <mbedtls_mpi_free>
/home/jayanth/quemu-v8/source/optee_os/lib/libutee/tee_api_arith_mpi.c:285 (discriminator 2)
    4cf4:	a94153f3 	ldp	x19, x20, [sp, #16]
    4cf8:	a9425bf5 	ldp	x21, x22, [sp, #32]
    4cfc:	f9401bf7 	ldr	x23, [sp, #48]
    4d00:	a8c97bfd 	ldp	x29, x30, [sp], #144
    4d04:	d65f03c0 	ret

0000000000004d08 <TEE_BigIntGetBit>:
TEE_BigIntGetBit():
/home/jayanth/quemu-v8/source/optee_os/lib/libutee/tee_api_arith_mpi.c:288
    4d08:	a9bc7bfd 	stp	x29, x30, [sp, #-64]!
    4d0c:	910003fd 	mov	x29, sp
    4d10:	a90153f3 	stp	x19, x20, [sp, #16]
/home/jayanth/quemu-v8/source/optee_os/lib/libutee/tee_api_arith_mpi.c:292
    4d14:	9100a3f3 	add	x19, sp, #0x28
/home/jayanth/quemu-v8/source/optee_os/lib/libutee/tee_api_arith_mpi.c:288
    4d18:	2a0103f4 	mov	w20, w1
/home/jayanth/quemu-v8/source/optee_os/lib/libutee/tee_api_arith_mpi.c:292
    4d1c:	aa0003e1 	mov	x1, x0
    4d20:	aa1303e0 	mov	x0, x19
    4d24:	97fffc6c 	bl	3ed4 <get_mpi>
/home/jayanth/quemu-v8/source/optee_os/lib/libutee/tee_api_arith_mpi.c:294
    4d28:	2a1403e1 	mov	w1, w20
    4d2c:	aa1303e0 	mov	x0, x19
    4d30:	94000562 	bl	62b8 <mbedtls_mpi_get_bit>
    4d34:	2a0003f4 	mov	w20, w0
/home/jayanth/quemu-v8/source/optee_os/lib/libutee/tee_api_arith_mpi.c:296
    4d38:	aa1303e0 	mov	x0, x19
    4d3c:	940003fb 	bl	5d28 <mbedtls_mpi_free>
/home/jayanth/quemu-v8/source/optee_os/lib/libutee/tee_api_arith_mpi.c:294
    4d40:	7100029f 	cmp	w20, #0x0
/home/jayanth/quemu-v8/source/optee_os/lib/libutee/tee_api_arith_mpi.c:299
    4d44:	1a9f07e0 	cset	w0, ne  // ne = any
    4d48:	a94153f3 	ldp	x19, x20, [sp, #16]
    4d4c:	a8c47bfd 	ldp	x29, x30, [sp], #64
    4d50:	d65f03c0 	ret

0000000000004d54 <TEE_BigIntGetBitCount>:
TEE_BigIntGetBitCount():
/home/jayanth/quemu-v8/source/optee_os/lib/libutee/tee_api_arith_mpi.c:302
    4d54:	a9bc7bfd 	stp	x29, x30, [sp, #-64]!
/home/jayanth/quemu-v8/source/optee_os/lib/libutee/tee_api_arith_mpi.c:306
    4d58:	aa0003e1 	mov	x1, x0
/home/jayanth/quemu-v8/source/optee_os/lib/libutee/tee_api_arith_mpi.c:302
    4d5c:	910003fd 	mov	x29, sp
    4d60:	a90153f3 	stp	x19, x20, [sp, #16]
/home/jayanth/quemu-v8/source/optee_os/lib/libutee/tee_api_arith_mpi.c:306
    4d64:	9100a3f3 	add	x19, sp, #0x28
    4d68:	aa1303e0 	mov	x0, x19
    4d6c:	97fffc5a 	bl	3ed4 <get_mpi>
/home/jayanth/quemu-v8/source/optee_os/lib/libutee/tee_api_arith_mpi.c:308
    4d70:	aa1303e0 	mov	x0, x19
    4d74:	94000594 	bl	63c4 <mbedtls_mpi_bitlen>
    4d78:	aa0003f4 	mov	x20, x0
/home/jayanth/quemu-v8/source/optee_os/lib/libutee/tee_api_arith_mpi.c:310
    4d7c:	aa1303e0 	mov	x0, x19
    4d80:	940003ea 	bl	5d28 <mbedtls_mpi_free>
/home/jayanth/quemu-v8/source/optee_os/lib/libutee/tee_api_arith_mpi.c:313
    4d84:	2a1403e0 	mov	w0, w20
    4d88:	a94153f3 	ldp	x19, x20, [sp, #16]
    4d8c:	a8c47bfd 	ldp	x29, x30, [sp], #64
    4d90:	d65f03c0 	ret

0000000000004d94 <TEE_BigIntAdd>:
TEE_BigIntAdd():
/home/jayanth/quemu-v8/source/optee_os/lib/libutee/tee_api_arith_mpi.c:398
    4d94:	b0000043 	adrp	x3, d000 <_DYNAMIC>
    4d98:	f940a863 	ldr	x3, [x3, #336]
    4d9c:	17fffc8d 	b	3fd0 <bigint_binary>

0000000000004da0 <TEE_BigIntSub>:
TEE_BigIntSub():
/home/jayanth/quemu-v8/source/optee_os/lib/libutee/tee_api_arith_mpi.c:404
    4da0:	b0000043 	adrp	x3, d000 <_DYNAMIC>
    4da4:	f940b063 	ldr	x3, [x3, #352]
    4da8:	17fffc8a 	b	3fd0 <bigint_binary>

0000000000004dac <TEE_BigIntNeg>:
TEE_BigIntNeg():
/home/jayanth/quemu-v8/source/optee_os/lib/libutee/tee_api_arith_mpi.c:408
    4dac:	a9ba7bfd 	stp	x29, x30, [sp, #-96]!
    4db0:	910003fd 	mov	x29, sp
    4db4:	a90153f3 	stp	x19, x20, [sp, #16]
/home/jayanth/quemu-v8/source/optee_os/lib/libutee/tee_api_arith_mpi.c:411
    4db8:	9100c3f4 	add	x20, sp, #0x30
/home/jayanth/quemu-v8/source/optee_os/lib/libutee/tee_api_arith_mpi.c:408
    4dbc:	aa0003f3 	mov	x19, x0
    4dc0:	a9025bf5 	stp	x21, x22, [sp, #32]
    4dc4:	aa0103f5 	mov	x21, x1
/home/jayanth/quemu-v8/source/optee_os/lib/libutee/tee_api_arith_mpi.c:411
    4dc8:	aa0003e1 	mov	x1, x0
    4dcc:	aa1403e0 	mov	x0, x20
    4dd0:	97fffc41 	bl	3ed4 <get_mpi>
/home/jayanth/quemu-v8/source/optee_os/lib/libutee/tee_api_arith_mpi.c:413
    4dd4:	eb15027f 	cmp	x19, x21
    4dd8:	54000220 	b.eq	4e1c <TEE_BigIntNeg+0x70>  // b.none
/home/jayanth/quemu-v8/source/optee_os/lib/libutee/tee_api_arith_mpi.c:416
    4ddc:	910123f6 	add	x22, sp, #0x48
    4de0:	aa1503e1 	mov	x1, x21
    4de4:	aa1603e0 	mov	x0, x22
    4de8:	97fffc3b 	bl	3ed4 <get_mpi>
/home/jayanth/quemu-v8/source/optee_os/lib/libutee/tee_api_arith_mpi.c:418
    4dec:	aa1603e1 	mov	x1, x22
    4df0:	aa1403e0 	mov	x0, x20
    4df4:	9400046a 	bl	5f9c <mbedtls_mpi_copy>
    4df8:	2a0003e2 	mov	w2, w0
    4dfc:	340000c0 	cbz	w0, 4e14 <TEE_BigIntNeg+0x68>
/home/jayanth/quemu-v8/source/optee_os/lib/libutee/tee_api_arith_mpi.c:418 (discriminator 1)
    4e00:	52803441 	mov	w1, #0x1a2                 	// #418
/home/jayanth/quemu-v8/source/optee_os/lib/libutee/tee_api_arith_mpi.c:425 (discriminator 1)
    4e04:	90000040 	adrp	x0, c000 <__func__.4194+0x3e3>
    4e08:	910b4c00 	add	x0, x0, #0x2d3
    4e0c:	91027c00 	add	x0, x0, #0x9f
    4e10:	97fffc25 	bl	3ea4 <mpi_panic>
/home/jayanth/quemu-v8/source/optee_os/lib/libutee/tee_api_arith_mpi.c:420 (discriminator 2)
    4e14:	aa1603e0 	mov	x0, x22
    4e18:	940003c4 	bl	5d28 <mbedtls_mpi_free>
/home/jayanth/quemu-v8/source/optee_os/lib/libutee/tee_api_arith_mpi.c:423
    4e1c:	794063e0 	ldrh	w0, [sp, #48]
/home/jayanth/quemu-v8/source/optee_os/lib/libutee/tee_api_arith_mpi.c:425
    4e20:	aa1303e1 	mov	x1, x19
/home/jayanth/quemu-v8/source/optee_os/lib/libutee/tee_api_arith_mpi.c:423
    4e24:	4b0003e0 	neg	w0, w0
    4e28:	790063e0 	strh	w0, [sp, #48]
/home/jayanth/quemu-v8/source/optee_os/lib/libutee/tee_api_arith_mpi.c:425
    4e2c:	aa1403e0 	mov	x0, x20
    4e30:	97fffc4f 	bl	3f6c <copy_mpi_to_bigint>
    4e34:	2a0003e2 	mov	w2, w0
    4e38:	34000060 	cbz	w0, 4e44 <TEE_BigIntNeg+0x98>
/home/jayanth/quemu-v8/source/optee_os/lib/libutee/tee_api_arith_mpi.c:425 (discriminator 1)
    4e3c:	52803521 	mov	w1, #0x1a9                 	// #425
    4e40:	17fffff1 	b	4e04 <TEE_BigIntNeg+0x58>
/home/jayanth/quemu-v8/source/optee_os/lib/libutee/tee_api_arith_mpi.c:426 (discriminator 2)
    4e44:	aa1403e0 	mov	x0, x20
    4e48:	940003b8 	bl	5d28 <mbedtls_mpi_free>
/home/jayanth/quemu-v8/source/optee_os/lib/libutee/tee_api_arith_mpi.c:427 (discriminator 2)
    4e4c:	a94153f3 	ldp	x19, x20, [sp, #16]
    4e50:	a9425bf5 	ldp	x21, x22, [sp, #32]
    4e54:	a8c67bfd 	ldp	x29, x30, [sp], #96
    4e58:	d65f03c0 	ret

0000000000004e5c <TEE_BigIntMul>:
TEE_BigIntMul():
/home/jayanth/quemu-v8/source/optee_os/lib/libutee/tee_api_arith_mpi.c:431
    4e5c:	a9ba7bfd 	stp	x29, x30, [sp, #-96]!
    4e60:	910003fd 	mov	x29, sp
    4e64:	a90153f3 	stp	x19, x20, [sp, #16]
    4e68:	a9025bf5 	stp	x21, x22, [sp, #32]
    4e6c:	aa0203f6 	mov	x22, x2
    4e70:	aa0103f5 	mov	x21, x1
    4e74:	a90363f7 	stp	x23, x24, [sp, #48]
    4e78:	aa0003f7 	mov	x23, x0
/home/jayanth/quemu-v8/source/optee_os/lib/libutee/tee_api_arith_mpi.c:432
    4e7c:	aa0103e0 	mov	x0, x1
/home/jayanth/quemu-v8/source/optee_os/lib/libutee/tee_api_arith_mpi.c:431
    4e80:	f90023f9 	str	x25, [sp, #64]
/home/jayanth/quemu-v8/source/optee_os/lib/libutee/tee_api_arith_mpi.c:432
    4e84:	97ffffb4 	bl	4d54 <TEE_BigIntGetBitCount>
    4e88:	2a0003f3 	mov	w19, w0
/home/jayanth/quemu-v8/source/optee_os/lib/libutee/tee_api_arith_mpi.c:433
    4e8c:	aa1603e0 	mov	x0, x22
    4e90:	97ffffb1 	bl	4d54 <TEE_BigIntGetBitCount>
    4e94:	2a0003e0 	mov	w0, w0
/home/jayanth/quemu-v8/source/optee_os/lib/libutee/tee_api_arith_mpi.c:434
    4e98:	91007c00 	add	x0, x0, #0x1f
/home/jayanth/quemu-v8/source/optee_os/lib/libutee/tee_api_arith_mpi.c:438
    4e9c:	b0000059 	adrp	x25, d000 <_DYNAMIC>
/home/jayanth/quemu-v8/source/optee_os/lib/libutee/tee_api_arith_mpi.c:434
    4ea0:	91007e73 	add	x19, x19, #0x1f
    4ea4:	aa1903f8 	mov	x24, x25
    4ea8:	d345fc00 	lsr	x0, x0, #5
/home/jayanth/quemu-v8/source/optee_os/lib/libutee/tee_api_arith_mpi.c:435
    4eac:	f9002bff 	str	xzr, [sp, #80]
/home/jayanth/quemu-v8/source/optee_os/lib/libutee/tee_api_arith_mpi.c:434
    4eb0:	8b531413 	add	x19, x0, x19, lsr #5
/home/jayanth/quemu-v8/source/optee_os/lib/libutee/tee_api_arith_mpi.c:435
    4eb4:	b9005bff 	str	wzr, [sp, #88]
/home/jayanth/quemu-v8/source/optee_os/lib/libutee/tee_api_arith_mpi.c:438
    4eb8:	f940cb20 	ldr	x0, [x25, #400]
/home/jayanth/quemu-v8/source/optee_os/lib/libutee/tee_api_arith_mpi.c:434
    4ebc:	91001273 	add	x19, x19, #0x4
/home/jayanth/quemu-v8/source/optee_os/lib/libutee/tee_api_arith_mpi.c:438
    4ec0:	d37ef661 	lsl	x1, x19, #2
    4ec4:	f9400000 	ldr	x0, [x0]
    4ec8:	94001200 	bl	96c8 <mempool_alloc>
    4ecc:	aa0003f4 	mov	x20, x0
/home/jayanth/quemu-v8/source/optee_os/lib/libutee/tee_api_arith_mpi.c:439
    4ed0:	b5000060 	cbnz	x0, 4edc <TEE_BigIntMul+0x80>
/home/jayanth/quemu-v8/source/optee_os/lib/libutee/tee_api_arith_mpi.c:440
    4ed4:	129ffe60 	mov	w0, #0xffff000c            	// #-65524
    4ed8:	97fff816 	bl	2f30 <TEE_Panic>
/home/jayanth/quemu-v8/source/optee_os/lib/libutee/tee_api_arith_mpi.c:442
    4edc:	2a1303e1 	mov	w1, w19
    4ee0:	aa1403e0 	mov	x0, x20
/home/jayanth/quemu-v8/source/optee_os/lib/libutee/tee_api_arith_mpi.c:443
    4ee4:	910143f3 	add	x19, sp, #0x50
/home/jayanth/quemu-v8/source/optee_os/lib/libutee/tee_api_arith_mpi.c:442
    4ee8:	97fffdf6 	bl	46c0 <TEE_BigIntInit>
/home/jayanth/quemu-v8/source/optee_os/lib/libutee/tee_api_arith_mpi.c:443
    4eec:	aa1303e0 	mov	x0, x19
    4ef0:	52800061 	mov	w1, #0x3                   	// #3
    4ef4:	97fffdf3 	bl	46c0 <TEE_BigIntInit>
/home/jayanth/quemu-v8/source/optee_os/lib/libutee/tee_api_arith_mpi.c:445
    4ef8:	f940a703 	ldr	x3, [x24, #328]
    4efc:	aa1603e2 	mov	x2, x22
    4f00:	aa1503e1 	mov	x1, x21
    4f04:	aa1403e0 	mov	x0, x20
    4f08:	97fffc32 	bl	3fd0 <bigint_binary>
/home/jayanth/quemu-v8/source/optee_os/lib/libutee/tee_api_arith_mpi.c:447
    4f0c:	aa1303e2 	mov	x2, x19
    4f10:	aa1403e1 	mov	x1, x20
    4f14:	aa1703e0 	mov	x0, x23
    4f18:	97ffff9f 	bl	4d94 <TEE_BigIntAdd>
/home/jayanth/quemu-v8/source/optee_os/lib/libutee/tee_api_arith_mpi.c:449
    4f1c:	f940cb18 	ldr	x24, [x24, #400]
    4f20:	aa1403e1 	mov	x1, x20
    4f24:	f9400300 	ldr	x0, [x24]
    4f28:	94001227 	bl	97c4 <mempool_free>
/home/jayanth/quemu-v8/source/optee_os/lib/libutee/tee_api_arith_mpi.c:450
    4f2c:	a94153f3 	ldp	x19, x20, [sp, #16]
    4f30:	a9425bf5 	ldp	x21, x22, [sp, #32]
    4f34:	a94363f7 	ldp	x23, x24, [sp, #48]
    4f38:	f94023f9 	ldr	x25, [sp, #64]
    4f3c:	a8c67bfd 	ldp	x29, x30, [sp], #96
    4f40:	d65f03c0 	ret

0000000000004f44 <TEE_BigIntSquare>:
TEE_BigIntSquare():
/home/jayanth/quemu-v8/source/optee_os/lib/libutee/tee_api_arith_mpi.c:453
    4f44:	aa0103e2 	mov	x2, x1
/home/jayanth/quemu-v8/source/optee_os/lib/libutee/tee_api_arith_mpi.c:454
    4f48:	17ffffc5 	b	4e5c <TEE_BigIntMul>

0000000000004f4c <TEE_BigIntDiv>:
TEE_BigIntDiv():
/home/jayanth/quemu-v8/source/optee_os/lib/libutee/tee_api_arith_mpi.c:459
    4f4c:	a9b47bfd 	stp	x29, x30, [sp, #-192]!
    4f50:	910003fd 	mov	x29, sp
    4f54:	a90363f7 	stp	x23, x24, [sp, #48]
/home/jayanth/quemu-v8/source/optee_os/lib/libutee/tee_api_arith_mpi.c:467
    4f58:	910183f8 	add	x24, sp, #0x60
/home/jayanth/quemu-v8/source/optee_os/lib/libutee/tee_api_arith_mpi.c:468
    4f5c:	9101e3f7 	add	x23, sp, #0x78
/home/jayanth/quemu-v8/source/optee_os/lib/libutee/tee_api_arith_mpi.c:459
    4f60:	a90153f3 	stp	x19, x20, [sp, #16]
    4f64:	aa0003f4 	mov	x20, x0
    4f68:	aa0103f3 	mov	x19, x1
/home/jayanth/quemu-v8/source/optee_os/lib/libutee/tee_api_arith_mpi.c:467
    4f6c:	aa0003e1 	mov	x1, x0
    4f70:	aa1803e0 	mov	x0, x24
/home/jayanth/quemu-v8/source/optee_os/lib/libutee/tee_api_arith_mpi.c:459
    4f74:	a9025bf5 	stp	x21, x22, [sp, #32]
    4f78:	aa0303f5 	mov	x21, x3
    4f7c:	a9046bf9 	stp	x25, x26, [sp, #64]
    4f80:	aa0203f9 	mov	x25, x2
    4f84:	f9002bfb 	str	x27, [sp, #80]
/home/jayanth/quemu-v8/source/optee_os/lib/libutee/tee_api_arith_mpi.c:467
    4f88:	97fffbd3 	bl	3ed4 <get_mpi>
/home/jayanth/quemu-v8/source/optee_os/lib/libutee/tee_api_arith_mpi.c:468
    4f8c:	aa1303e1 	mov	x1, x19
    4f90:	aa1703e0 	mov	x0, x23
    4f94:	97fffbd0 	bl	3ed4 <get_mpi>
/home/jayanth/quemu-v8/source/optee_os/lib/libutee/tee_api_arith_mpi.c:470
    4f98:	910243fb 	add	x27, sp, #0x90
    4f9c:	eb19029f 	cmp	x20, x25
    4fa0:	540003c0 	b.eq	5018 <TEE_BigIntDiv+0xcc>  // b.none
/home/jayanth/quemu-v8/source/optee_os/lib/libutee/tee_api_arith_mpi.c:472
    4fa4:	eb19027f 	cmp	x19, x25
    4fa8:	540003c0 	b.eq	5020 <TEE_BigIntDiv+0xd4>  // b.none
/home/jayanth/quemu-v8/source/optee_os/lib/libutee/tee_api_arith_mpi.c:464
    4fac:	aa1b03f6 	mov	x22, x27
/home/jayanth/quemu-v8/source/optee_os/lib/libutee/tee_api_arith_mpi.c:475
    4fb0:	aa1903e1 	mov	x1, x25
    4fb4:	aa1b03e0 	mov	x0, x27
    4fb8:	97fffbc7 	bl	3ed4 <get_mpi>
/home/jayanth/quemu-v8/source/optee_os/lib/libutee/tee_api_arith_mpi.c:477
    4fbc:	eb15029f 	cmp	x20, x21
    4fc0:	9102a3fa 	add	x26, sp, #0xa8
    4fc4:	54000320 	b.eq	5028 <TEE_BigIntDiv+0xdc>  // b.none
/home/jayanth/quemu-v8/source/optee_os/lib/libutee/tee_api_arith_mpi.c:479
    4fc8:	eb15027f 	cmp	x19, x21
    4fcc:	54000320 	b.eq	5030 <TEE_BigIntDiv+0xe4>  // b.none
/home/jayanth/quemu-v8/source/optee_os/lib/libutee/tee_api_arith_mpi.c:481
    4fd0:	eb15033f 	cmp	x25, x21
    4fd4:	54000320 	b.eq	5038 <TEE_BigIntDiv+0xec>  // b.none
/home/jayanth/quemu-v8/source/optee_os/lib/libutee/tee_api_arith_mpi.c:484
    4fd8:	aa1503e1 	mov	x1, x21
/home/jayanth/quemu-v8/source/optee_os/lib/libutee/tee_api_arith_mpi.c:465
    4fdc:	aa1a03f5 	mov	x21, x26
/home/jayanth/quemu-v8/source/optee_os/lib/libutee/tee_api_arith_mpi.c:484
    4fe0:	aa1a03e0 	mov	x0, x26
    4fe4:	97fffbbc 	bl	3ed4 <get_mpi>
/home/jayanth/quemu-v8/source/optee_os/lib/libutee/tee_api_arith_mpi.c:486
    4fe8:	aa1603e2 	mov	x2, x22
    4fec:	aa1503e3 	mov	x3, x21
    4ff0:	aa1703e1 	mov	x1, x23
    4ff4:	aa1803e0 	mov	x0, x24
    4ff8:	94000899 	bl	725c <mbedtls_mpi_div_mpi>
    4ffc:	2a0003e2 	mov	w2, w0
    5000:	34000200 	cbz	w0, 5040 <TEE_BigIntDiv+0xf4>
/home/jayanth/quemu-v8/source/optee_os/lib/libutee/tee_api_arith_mpi.c:486 (discriminator 1)
    5004:	52803cc1 	mov	w1, #0x1e6                 	// #486
/home/jayanth/quemu-v8/source/optee_os/lib/libutee/tee_api_arith_mpi.c:489 (discriminator 1)
    5008:	f0000020 	adrp	x0, c000 <__func__.4194+0x3e3>
    500c:	910b4c00 	add	x0, x0, #0x2d3
    5010:	9102b400 	add	x0, x0, #0xad
    5014:	97fffba4 	bl	3ea4 <mpi_panic>
/home/jayanth/quemu-v8/source/optee_os/lib/libutee/tee_api_arith_mpi.c:471
    5018:	aa1803f6 	mov	x22, x24
    501c:	17ffffe8 	b	4fbc <TEE_BigIntDiv+0x70>
/home/jayanth/quemu-v8/source/optee_os/lib/libutee/tee_api_arith_mpi.c:473
    5020:	aa1703f6 	mov	x22, x23
    5024:	17ffffe6 	b	4fbc <TEE_BigIntDiv+0x70>
/home/jayanth/quemu-v8/source/optee_os/lib/libutee/tee_api_arith_mpi.c:478
    5028:	aa1803f5 	mov	x21, x24
    502c:	17ffffef 	b	4fe8 <TEE_BigIntDiv+0x9c>
/home/jayanth/quemu-v8/source/optee_os/lib/libutee/tee_api_arith_mpi.c:480
    5030:	aa1703f5 	mov	x21, x23
    5034:	17ffffed 	b	4fe8 <TEE_BigIntDiv+0x9c>
/home/jayanth/quemu-v8/source/optee_os/lib/libutee/tee_api_arith_mpi.c:482
    5038:	aa1603f5 	mov	x21, x22
    503c:	17ffffeb 	b	4fe8 <TEE_BigIntDiv+0x9c>
/home/jayanth/quemu-v8/source/optee_os/lib/libutee/tee_api_arith_mpi.c:488 (discriminator 2)
    5040:	b4000114 	cbz	x20, 5060 <TEE_BigIntDiv+0x114>
/home/jayanth/quemu-v8/source/optee_os/lib/libutee/tee_api_arith_mpi.c:489
    5044:	aa1403e1 	mov	x1, x20
    5048:	aa1803e0 	mov	x0, x24
    504c:	97fffbc8 	bl	3f6c <copy_mpi_to_bigint>
    5050:	2a0003e2 	mov	w2, w0
    5054:	34000060 	cbz	w0, 5060 <TEE_BigIntDiv+0x114>
/home/jayanth/quemu-v8/source/optee_os/lib/libutee/tee_api_arith_mpi.c:489 (discriminator 1)
    5058:	52803d21 	mov	w1, #0x1e9                 	// #489
    505c:	17ffffeb 	b	5008 <TEE_BigIntDiv+0xbc>
/home/jayanth/quemu-v8/source/optee_os/lib/libutee/tee_api_arith_mpi.c:490
    5060:	b4000113 	cbz	x19, 5080 <TEE_BigIntDiv+0x134>
/home/jayanth/quemu-v8/source/optee_os/lib/libutee/tee_api_arith_mpi.c:491
    5064:	aa1303e1 	mov	x1, x19
    5068:	aa1703e0 	mov	x0, x23
    506c:	97fffbc0 	bl	3f6c <copy_mpi_to_bigint>
    5070:	2a0003e2 	mov	w2, w0
    5074:	34000060 	cbz	w0, 5080 <TEE_BigIntDiv+0x134>
/home/jayanth/quemu-v8/source/optee_os/lib/libutee/tee_api_arith_mpi.c:491 (discriminator 1)
    5078:	52803d61 	mov	w1, #0x1eb                 	// #491
    507c:	17ffffe3 	b	5008 <TEE_BigIntDiv+0xbc>
/home/jayanth/quemu-v8/source/optee_os/lib/libutee/tee_api_arith_mpi.c:492
    5080:	aa1803e0 	mov	x0, x24
    5084:	94000329 	bl	5d28 <mbedtls_mpi_free>
/home/jayanth/quemu-v8/source/optee_os/lib/libutee/tee_api_arith_mpi.c:493
    5088:	aa1703e0 	mov	x0, x23
    508c:	94000327 	bl	5d28 <mbedtls_mpi_free>
/home/jayanth/quemu-v8/source/optee_os/lib/libutee/tee_api_arith_mpi.c:494
    5090:	eb1b02df 	cmp	x22, x27
    5094:	54000061 	b.ne	50a0 <TEE_BigIntDiv+0x154>  // b.any
/home/jayanth/quemu-v8/source/optee_os/lib/libutee/tee_api_arith_mpi.c:495
    5098:	aa1603e0 	mov	x0, x22
    509c:	94000323 	bl	5d28 <mbedtls_mpi_free>
/home/jayanth/quemu-v8/source/optee_os/lib/libutee/tee_api_arith_mpi.c:496
    50a0:	eb1a02bf 	cmp	x21, x26
    50a4:	54000061 	b.ne	50b0 <TEE_BigIntDiv+0x164>  // b.any
/home/jayanth/quemu-v8/source/optee_os/lib/libutee/tee_api_arith_mpi.c:497
    50a8:	aa1503e0 	mov	x0, x21
    50ac:	9400031f 	bl	5d28 <mbedtls_mpi_free>
/home/jayanth/quemu-v8/source/optee_os/lib/libutee/tee_api_arith_mpi.c:498
    50b0:	a94153f3 	ldp	x19, x20, [sp, #16]
    50b4:	a9425bf5 	ldp	x21, x22, [sp, #32]
    50b8:	a94363f7 	ldp	x23, x24, [sp, #48]
    50bc:	a9446bf9 	ldp	x25, x26, [sp, #64]
    50c0:	f9402bfb 	ldr	x27, [sp, #80]
    50c4:	a8cc7bfd 	ldp	x29, x30, [sp], #192
    50c8:	d65f03c0 	ret

00000000000050cc <TEE_BigIntMod>:
TEE_BigIntMod():
/home/jayanth/quemu-v8/source/optee_os/lib/libutee/tee_api_arith_mpi.c:501
    50cc:	a9bd7bfd 	stp	x29, x30, [sp, #-48]!
    50d0:	910003fd 	mov	x29, sp
    50d4:	a90153f3 	stp	x19, x20, [sp, #16]
    50d8:	aa0003f4 	mov	x20, x0
    50dc:	aa0203f3 	mov	x19, x2
/home/jayanth/quemu-v8/source/optee_os/lib/libutee/tee_api_arith_mpi.c:502
    50e0:	aa0203e0 	mov	x0, x2
/home/jayanth/quemu-v8/source/optee_os/lib/libutee/tee_api_arith_mpi.c:501
    50e4:	f90013f5 	str	x21, [sp, #32]
    50e8:	aa0103f5 	mov	x21, x1
/home/jayanth/quemu-v8/source/optee_os/lib/libutee/tee_api_arith_mpi.c:502
    50ec:	52800041 	mov	w1, #0x2                   	// #2
    50f0:	97fffe34 	bl	49c0 <TEE_BigIntCmpS32>
    50f4:	36f80100 	tbz	w0, #31, 5114 <TEE_BigIntMod+0x48>
/home/jayanth/quemu-v8/source/optee_os/lib/libutee/tee_api_arith_mpi.c:503
    50f8:	f0000020 	adrp	x0, c000 <__func__.4194+0x3e3>
    50fc:	910b4c00 	add	x0, x0, #0x2d3
    5100:	f0000022 	adrp	x2, c000 <__func__.4194+0x3e3>
    5104:	9102ec00 	add	x0, x0, #0xbb
    5108:	910a4c42 	add	x2, x2, #0x293
    510c:	52803ee1 	mov	w1, #0x1f7                 	// #503
    5110:	97fffb59 	bl	3e74 <api_panic>
/home/jayanth/quemu-v8/source/optee_os/lib/libutee/tee_api_arith_mpi.c:505
    5114:	aa1303e2 	mov	x2, x19
    5118:	aa1503e1 	mov	x1, x21
    511c:	aa1403e0 	mov	x0, x20
    5120:	90000043 	adrp	x3, d000 <_DYNAMIC>
/home/jayanth/quemu-v8/source/optee_os/lib/libutee/tee_api_arith_mpi.c:506
    5124:	a94153f3 	ldp	x19, x20, [sp, #16]
    5128:	f94013f5 	ldr	x21, [sp, #32]
    512c:	a8c37bfd 	ldp	x29, x30, [sp], #48
/home/jayanth/quemu-v8/source/optee_os/lib/libutee/tee_api_arith_mpi.c:505
    5130:	f940b863 	ldr	x3, [x3, #368]
    5134:	17fffba7 	b	3fd0 <bigint_binary>

0000000000005138 <TEE_BigIntAddMod>:
TEE_BigIntAddMod():
/home/jayanth/quemu-v8/source/optee_os/lib/libutee/tee_api_arith_mpi.c:511
    5138:	90000044 	adrp	x4, d000 <_DYNAMIC>
    513c:	f940a884 	ldr	x4, [x4, #336]
    5140:	17fffe32 	b	4a08 <bigint_binary_mod>

0000000000005144 <TEE_BigIntSubMod>:
TEE_BigIntSubMod():
/home/jayanth/quemu-v8/source/optee_os/lib/libutee/tee_api_arith_mpi.c:517
    5144:	90000044 	adrp	x4, d000 <_DYNAMIC>
    5148:	f940b084 	ldr	x4, [x4, #352]
    514c:	17fffe2f 	b	4a08 <bigint_binary_mod>

0000000000005150 <TEE_BigIntMulMod>:
TEE_BigIntMulMod():
/home/jayanth/quemu-v8/source/optee_os/lib/libutee/tee_api_arith_mpi.c:523
    5150:	90000044 	adrp	x4, d000 <_DYNAMIC>
    5154:	f940a484 	ldr	x4, [x4, #328]
    5158:	17fffe2c 	b	4a08 <bigint_binary_mod>

000000000000515c <TEE_BigIntSquareMod>:
TEE_BigIntSquareMod():
/home/jayanth/quemu-v8/source/optee_os/lib/libutee/tee_api_arith_mpi.c:529
    515c:	aa0203e3 	mov	x3, x2
    5160:	aa0103e2 	mov	x2, x1
    5164:	17fffffb 	b	5150 <TEE_BigIntMulMod>

0000000000005168 <TEE_BigIntInvMod>:
TEE_BigIntInvMod():
/home/jayanth/quemu-v8/source/optee_os/lib/libutee/tee_api_arith_mpi.c:534
    5168:	a9b77bfd 	stp	x29, x30, [sp, #-144]!
    516c:	910003fd 	mov	x29, sp
    5170:	a90153f3 	stp	x19, x20, [sp, #16]
    5174:	aa0003f4 	mov	x20, x0
/home/jayanth/quemu-v8/source/optee_os/lib/libutee/tee_api_arith_mpi.c:535
    5178:	aa0203e0 	mov	x0, x2
/home/jayanth/quemu-v8/source/optee_os/lib/libutee/tee_api_arith_mpi.c:534
    517c:	a9025bf5 	stp	x21, x22, [sp, #32]
    5180:	aa0103f5 	mov	x21, x1
    5184:	aa0203f6 	mov	x22, x2
/home/jayanth/quemu-v8/source/optee_os/lib/libutee/tee_api_arith_mpi.c:535
    5188:	52800041 	mov	w1, #0x2                   	// #2
/home/jayanth/quemu-v8/source/optee_os/lib/libutee/tee_api_arith_mpi.c:534
    518c:	f9001bf7 	str	x23, [sp, #48]
/home/jayanth/quemu-v8/source/optee_os/lib/libutee/tee_api_arith_mpi.c:535
    5190:	97fffe0c 	bl	49c0 <TEE_BigIntCmpS32>
    5194:	36f80100 	tbz	w0, #31, 51b4 <TEE_BigIntInvMod+0x4c>
/home/jayanth/quemu-v8/source/optee_os/lib/libutee/tee_api_arith_mpi.c:536
    5198:	f0000020 	adrp	x0, c000 <__func__.4194+0x3e3>
    519c:	910b4c00 	add	x0, x0, #0x2d3
    51a0:	f0000022 	adrp	x2, c000 <__func__.4194+0x3e3>
    51a4:	91032400 	add	x0, x0, #0xc9
    51a8:	910aa042 	add	x2, x2, #0x2a8
    51ac:	52804301 	mov	w1, #0x218                 	// #536
    51b0:	97fffb31 	bl	3e74 <api_panic>
/home/jayanth/quemu-v8/source/optee_os/lib/libutee/tee_api_arith_mpi.c:535 (discriminator 1)
    51b4:	aa1503e0 	mov	x0, x21
    51b8:	52800001 	mov	w1, #0x0                   	// #0
    51bc:	97fffe01 	bl	49c0 <TEE_BigIntCmpS32>
    51c0:	34fffec0 	cbz	w0, 5198 <TEE_BigIntInvMod+0x30>
/home/jayanth/quemu-v8/source/optee_os/lib/libutee/tee_api_arith_mpi.c:543
    51c4:	910123f3 	add	x19, sp, #0x48
    51c8:	aa1403e1 	mov	x1, x20
    51cc:	aa1303e0 	mov	x0, x19
/home/jayanth/quemu-v8/source/optee_os/lib/libutee/tee_api_arith_mpi.c:544
    51d0:	9101e3f7 	add	x23, sp, #0x78
/home/jayanth/quemu-v8/source/optee_os/lib/libutee/tee_api_arith_mpi.c:543
    51d4:	97fffb40 	bl	3ed4 <get_mpi>
/home/jayanth/quemu-v8/source/optee_os/lib/libutee/tee_api_arith_mpi.c:544
    51d8:	aa1603e1 	mov	x1, x22
    51dc:	aa1703e0 	mov	x0, x23
    51e0:	97fffb3d 	bl	3ed4 <get_mpi>
/home/jayanth/quemu-v8/source/optee_os/lib/libutee/tee_api_arith_mpi.c:546
    51e4:	910183f6 	add	x22, sp, #0x60
    51e8:	eb1402bf 	cmp	x21, x20
    51ec:	54000200 	b.eq	522c <TEE_BigIntInvMod+0xc4>  // b.none
/home/jayanth/quemu-v8/source/optee_os/lib/libutee/tee_api_arith_mpi.c:549
    51f0:	aa1503e1 	mov	x1, x21
/home/jayanth/quemu-v8/source/optee_os/lib/libutee/tee_api_arith_mpi.c:541
    51f4:	aa1603f5 	mov	x21, x22
/home/jayanth/quemu-v8/source/optee_os/lib/libutee/tee_api_arith_mpi.c:549
    51f8:	aa1603e0 	mov	x0, x22
    51fc:	97fffb36 	bl	3ed4 <get_mpi>
/home/jayanth/quemu-v8/source/optee_os/lib/libutee/tee_api_arith_mpi.c:551
    5200:	aa1703e2 	mov	x2, x23
    5204:	aa1503e1 	mov	x1, x21
    5208:	aa1303e0 	mov	x0, x19
    520c:	94000daf 	bl	88c8 <mbedtls_mpi_inv_mod>
    5210:	2a0003e2 	mov	w2, w0
    5214:	34000100 	cbz	w0, 5234 <TEE_BigIntInvMod+0xcc>
/home/jayanth/quemu-v8/source/optee_os/lib/libutee/tee_api_arith_mpi.c:551 (discriminator 1)
    5218:	528044e1 	mov	w1, #0x227                 	// #551
/home/jayanth/quemu-v8/source/optee_os/lib/libutee/tee_api_arith_mpi.c:553 (discriminator 1)
    521c:	f0000020 	adrp	x0, c000 <__func__.4194+0x3e3>
    5220:	910b4c00 	add	x0, x0, #0x2d3
    5224:	91032400 	add	x0, x0, #0xc9
    5228:	97fffb1f 	bl	3ea4 <mpi_panic>
/home/jayanth/quemu-v8/source/optee_os/lib/libutee/tee_api_arith_mpi.c:547
    522c:	aa1303f5 	mov	x21, x19
    5230:	17fffff4 	b	5200 <TEE_BigIntInvMod+0x98>
/home/jayanth/quemu-v8/source/optee_os/lib/libutee/tee_api_arith_mpi.c:553 (discriminator 2)
    5234:	aa1403e1 	mov	x1, x20
    5238:	aa1303e0 	mov	x0, x19
    523c:	97fffb4c 	bl	3f6c <copy_mpi_to_bigint>
    5240:	2a0003e2 	mov	w2, w0
    5244:	34000060 	cbz	w0, 5250 <TEE_BigIntInvMod+0xe8>
/home/jayanth/quemu-v8/source/optee_os/lib/libutee/tee_api_arith_mpi.c:553 (discriminator 1)
    5248:	52804521 	mov	w1, #0x229                 	// #553
    524c:	17fffff4 	b	521c <TEE_BigIntInvMod+0xb4>
/home/jayanth/quemu-v8/source/optee_os/lib/libutee/tee_api_arith_mpi.c:554 (discriminator 2)
    5250:	aa1303e0 	mov	x0, x19
    5254:	940002b5 	bl	5d28 <mbedtls_mpi_free>
/home/jayanth/quemu-v8/source/optee_os/lib/libutee/tee_api_arith_mpi.c:555 (discriminator 2)
    5258:	aa1703e0 	mov	x0, x23
    525c:	940002b3 	bl	5d28 <mbedtls_mpi_free>
/home/jayanth/quemu-v8/source/optee_os/lib/libutee/tee_api_arith_mpi.c:556 (discriminator 2)
    5260:	eb1602bf 	cmp	x21, x22
    5264:	54000061 	b.ne	5270 <TEE_BigIntInvMod+0x108>  // b.any
/home/jayanth/quemu-v8/source/optee_os/lib/libutee/tee_api_arith_mpi.c:557
    5268:	aa1503e0 	mov	x0, x21
    526c:	940002af 	bl	5d28 <mbedtls_mpi_free>
/home/jayanth/quemu-v8/source/optee_os/lib/libutee/tee_api_arith_mpi.c:558
    5270:	a94153f3 	ldp	x19, x20, [sp, #16]
    5274:	a9425bf5 	ldp	x21, x22, [sp, #32]
    5278:	f9401bf7 	ldr	x23, [sp, #48]
    527c:	a8c97bfd 	ldp	x29, x30, [sp], #144
    5280:	d65f03c0 	ret

0000000000005284 <TEE_BigIntRelativePrime>:
TEE_BigIntRelativePrime():
/home/jayanth/quemu-v8/source/optee_os/lib/libutee/tee_api_arith_mpi.c:561
    5284:	a9b77bfd 	stp	x29, x30, [sp, #-144]!
    5288:	910003fd 	mov	x29, sp
    528c:	a90153f3 	stp	x19, x20, [sp, #16]
/home/jayanth/quemu-v8/source/optee_os/lib/libutee/tee_api_arith_mpi.c:568
    5290:	910123f4 	add	x20, sp, #0x48
/home/jayanth/quemu-v8/source/optee_os/lib/libutee/tee_api_arith_mpi.c:561
    5294:	aa0003f3 	mov	x19, x0
    5298:	a9025bf5 	stp	x21, x22, [sp, #32]
    529c:	aa0103f5 	mov	x21, x1
/home/jayanth/quemu-v8/source/optee_os/lib/libutee/tee_api_arith_mpi.c:568
    52a0:	aa0003e1 	mov	x1, x0
    52a4:	aa1403e0 	mov	x0, x20
/home/jayanth/quemu-v8/source/optee_os/lib/libutee/tee_api_arith_mpi.c:561
    52a8:	f9001bf7 	str	x23, [sp, #48]
/home/jayanth/quemu-v8/source/optee_os/lib/libutee/tee_api_arith_mpi.c:568
    52ac:	97fffb0a 	bl	3ed4 <get_mpi>
/home/jayanth/quemu-v8/source/optee_os/lib/libutee/tee_api_arith_mpi.c:570
    52b0:	eb15027f 	cmp	x19, x21
    52b4:	910183f3 	add	x19, sp, #0x60
    52b8:	54000260 	b.eq	5304 <TEE_BigIntRelativePrime+0x80>  // b.none
/home/jayanth/quemu-v8/source/optee_os/lib/libutee/tee_api_arith_mpi.c:565
    52bc:	aa1303f6 	mov	x22, x19
/home/jayanth/quemu-v8/source/optee_os/lib/libutee/tee_api_arith_mpi.c:573
    52c0:	aa1503e1 	mov	x1, x21
    52c4:	aa1303e0 	mov	x0, x19
    52c8:	97fffb03 	bl	3ed4 <get_mpi>
get_mpi():
/home/jayanth/quemu-v8/source/optee_os/lib/libutee/tee_api_arith_mpi.c:101
    52cc:	9101e3f5 	add	x21, sp, #0x78
    52d0:	aa1503e0 	mov	x0, x21
    52d4:	9400028b 	bl	5d00 <mbedtls_mpi_init_mempool>
TEE_BigIntRelativePrime():
/home/jayanth/quemu-v8/source/optee_os/lib/libutee/tee_api_arith_mpi.c:577
    52d8:	aa1303e2 	mov	x2, x19
    52dc:	aa1403e1 	mov	x1, x20
    52e0:	aa1503e0 	mov	x0, x21
    52e4:	94000c44 	bl	83f4 <mbedtls_mpi_gcd>
    52e8:	2a0003e2 	mov	w2, w0
    52ec:	34000100 	cbz	w0, 530c <TEE_BigIntRelativePrime+0x88>
/home/jayanth/quemu-v8/source/optee_os/lib/libutee/tee_api_arith_mpi.c:577 (discriminator 1)
    52f0:	f0000020 	adrp	x0, c000 <__func__.4194+0x3e3>
    52f4:	910b4c00 	add	x0, x0, #0x2d3
    52f8:	91036800 	add	x0, x0, #0xda
    52fc:	52804821 	mov	w1, #0x241                 	// #577
    5300:	97fffae9 	bl	3ea4 <mpi_panic>
/home/jayanth/quemu-v8/source/optee_os/lib/libutee/tee_api_arith_mpi.c:571
    5304:	aa1403f6 	mov	x22, x20
    5308:	17fffff1 	b	52cc <TEE_BigIntRelativePrime+0x48>
/home/jayanth/quemu-v8/source/optee_os/lib/libutee/tee_api_arith_mpi.c:579 (discriminator 2)
    530c:	52800021 	mov	w1, #0x1                   	// #1
    5310:	aa1503e0 	mov	x0, x21
    5314:	94000607 	bl	6b30 <mbedtls_mpi_cmp_int>
    5318:	7100001f 	cmp	w0, #0x0
    531c:	1a9f17f7 	cset	w23, eq  // eq = none
/home/jayanth/quemu-v8/source/optee_os/lib/libutee/tee_api_arith_mpi.c:581 (discriminator 2)
    5320:	aa1503e0 	mov	x0, x21
    5324:	94000281 	bl	5d28 <mbedtls_mpi_free>
/home/jayanth/quemu-v8/source/optee_os/lib/libutee/tee_api_arith_mpi.c:582 (discriminator 2)
    5328:	aa1403e0 	mov	x0, x20
    532c:	9400027f 	bl	5d28 <mbedtls_mpi_free>
/home/jayanth/quemu-v8/source/optee_os/lib/libutee/tee_api_arith_mpi.c:583 (discriminator 2)
    5330:	eb1302df 	cmp	x22, x19
    5334:	54000061 	b.ne	5340 <TEE_BigIntRelativePrime+0xbc>  // b.any
/home/jayanth/quemu-v8/source/optee_os/lib/libutee/tee_api_arith_mpi.c:584
    5338:	aa1603e0 	mov	x0, x22
    533c:	9400027b 	bl	5d28 <mbedtls_mpi_free>
/home/jayanth/quemu-v8/source/optee_os/lib/libutee/tee_api_arith_mpi.c:587
    5340:	2a1703e0 	mov	w0, w23
    5344:	a94153f3 	ldp	x19, x20, [sp, #16]
    5348:	a9425bf5 	ldp	x21, x22, [sp, #32]
    534c:	f9401bf7 	ldr	x23, [sp, #48]
    5350:	a8c97bfd 	ldp	x29, x30, [sp], #144
    5354:	d65f03c0 	ret

0000000000005358 <TEE_BigIntComputeExtendedGcd>:
TEE_BigIntComputeExtendedGcd():
/home/jayanth/quemu-v8/source/optee_os/lib/libutee/tee_api_arith_mpi.c:698
    5358:	a9b17bfd 	stp	x29, x30, [sp, #-240]!
    535c:	910003fd 	mov	x29, sp
    5360:	a9025bf5 	stp	x21, x22, [sp, #32]
/home/jayanth/quemu-v8/source/optee_os/lib/libutee/tee_api_arith_mpi.c:704
    5364:	9101e3f5 	add	x21, sp, #0x78
/home/jayanth/quemu-v8/source/optee_os/lib/libutee/tee_api_arith_mpi.c:698
    5368:	aa0303f6 	mov	x22, x3
    536c:	a90153f3 	stp	x19, x20, [sp, #16]
    5370:	aa0403f3 	mov	x19, x4
/home/jayanth/quemu-v8/source/optee_os/lib/libutee/tee_api_arith_mpi.c:705
    5374:	910243f4 	add	x20, sp, #0x90
/home/jayanth/quemu-v8/source/optee_os/lib/libutee/tee_api_arith_mpi.c:698
    5378:	a90363f7 	stp	x23, x24, [sp, #48]
    537c:	aa0003f8 	mov	x24, x0
    5380:	a9046bf9 	stp	x25, x26, [sp, #64]
    5384:	aa0203f9 	mov	x25, x2
    5388:	aa0103fa 	mov	x26, x1
/home/jayanth/quemu-v8/source/optee_os/lib/libutee/tee_api_arith_mpi.c:704
    538c:	aa0003e1 	mov	x1, x0
    5390:	aa1503e0 	mov	x0, x21
/home/jayanth/quemu-v8/source/optee_os/lib/libutee/tee_api_arith_mpi.c:698
    5394:	a90573fb 	stp	x27, x28, [sp, #80]
/home/jayanth/quemu-v8/source/optee_os/lib/libutee/tee_api_arith_mpi.c:704
    5398:	97fffacf 	bl	3ed4 <get_mpi>
/home/jayanth/quemu-v8/source/optee_os/lib/libutee/tee_api_arith_mpi.c:705
    539c:	aa1603e1 	mov	x1, x22
    53a0:	aa1403e0 	mov	x0, x20
    53a4:	97fffacc 	bl	3ed4 <get_mpi>
/home/jayanth/quemu-v8/source/optee_os/lib/libutee/tee_api_arith_mpi.c:707
    53a8:	eb1302df 	cmp	x22, x19
    53ac:	9102a3fb 	add	x27, sp, #0xa8
    53b0:	54000260 	b.eq	53fc <TEE_BigIntComputeExtendedGcd+0xa4>  // b.none
/home/jayanth/quemu-v8/source/optee_os/lib/libutee/tee_api_arith_mpi.c:710
    53b4:	aa1303e1 	mov	x1, x19
/home/jayanth/quemu-v8/source/optee_os/lib/libutee/tee_api_arith_mpi.c:702
    53b8:	aa1b03f3 	mov	x19, x27
/home/jayanth/quemu-v8/source/optee_os/lib/libutee/tee_api_arith_mpi.c:710
    53bc:	aa1b03e0 	mov	x0, x27
    53c0:	97fffac5 	bl	3ed4 <get_mpi>
/home/jayanth/quemu-v8/source/optee_os/lib/libutee/tee_api_arith_mpi.c:712
    53c4:	aa190340 	orr	x0, x26, x25
    53c8:	b50001e0 	cbnz	x0, 5404 <TEE_BigIntComputeExtendedGcd+0xac>
/home/jayanth/quemu-v8/source/optee_os/lib/libutee/tee_api_arith_mpi.c:713
    53cc:	b4000b78 	cbz	x24, 5538 <TEE_BigIntComputeExtendedGcd+0x1e0>
/home/jayanth/quemu-v8/source/optee_os/lib/libutee/tee_api_arith_mpi.c:714
    53d0:	aa1303e2 	mov	x2, x19
    53d4:	aa1403e1 	mov	x1, x20
    53d8:	aa1503e0 	mov	x0, x21
    53dc:	94000c06 	bl	83f4 <mbedtls_mpi_gcd>
    53e0:	2a0003e2 	mov	w2, w0
    53e4:	34000aa0 	cbz	w0, 5538 <TEE_BigIntComputeExtendedGcd+0x1e0>
/home/jayanth/quemu-v8/source/optee_os/lib/libutee/tee_api_arith_mpi.c:714 (discriminator 1)
    53e8:	52805941 	mov	w1, #0x2ca                 	// #714
/home/jayanth/quemu-v8/source/optee_os/lib/libutee/tee_api_arith_mpi.c:731 (discriminator 1)
    53ec:	f0000020 	adrp	x0, c000 <__func__.4194+0x3e3>
    53f0:	910b4c00 	add	x0, x0, #0x2d3
    53f4:	9103c800 	add	x0, x0, #0xf2
    53f8:	97fffaab 	bl	3ea4 <mpi_panic>
/home/jayanth/quemu-v8/source/optee_os/lib/libutee/tee_api_arith_mpi.c:708
    53fc:	aa1403f3 	mov	x19, x20
    5400:	17fffff1 	b	53c4 <TEE_BigIntComputeExtendedGcd+0x6c>
/home/jayanth/quemu-v8/source/optee_os/lib/libutee/tee_api_arith_mpi.c:720
    5404:	39c00260 	ldrsb	w0, [x19]
/home/jayanth/quemu-v8/source/optee_os/lib/libutee/tee_api_arith_mpi.c:726
    5408:	910303f7 	add	x23, sp, #0xc0
/home/jayanth/quemu-v8/source/optee_os/lib/libutee/tee_api_arith_mpi.c:719
    540c:	39c243fc 	ldrsb	w28, [sp, #144]
/home/jayanth/quemu-v8/source/optee_os/lib/libutee/tee_api_arith_mpi.c:726
    5410:	aa1a03e1 	mov	x1, x26
/home/jayanth/quemu-v8/source/optee_os/lib/libutee/tee_api_arith_mpi.c:720
    5414:	b9006fe0 	str	w0, [sp, #108]
/home/jayanth/quemu-v8/source/optee_os/lib/libutee/tee_api_arith_mpi.c:723
    5418:	52800020 	mov	w0, #0x1                   	// #1
    541c:	790123e0 	strh	w0, [sp, #144]
/home/jayanth/quemu-v8/source/optee_os/lib/libutee/tee_api_arith_mpi.c:727
    5420:	910363f6 	add	x22, sp, #0xd8
/home/jayanth/quemu-v8/source/optee_os/lib/libutee/tee_api_arith_mpi.c:724
    5424:	79000260 	strh	w0, [x19]
/home/jayanth/quemu-v8/source/optee_os/lib/libutee/tee_api_arith_mpi.c:726
    5428:	aa1703e0 	mov	x0, x23
    542c:	97fffaaa 	bl	3ed4 <get_mpi>
/home/jayanth/quemu-v8/source/optee_os/lib/libutee/tee_api_arith_mpi.c:727
    5430:	aa1903e1 	mov	x1, x25
    5434:	aa1603e0 	mov	x0, x22
    5438:	97fffaa7 	bl	3ed4 <get_mpi>
/home/jayanth/quemu-v8/source/optee_os/lib/libutee/tee_api_arith_mpi.c:729
    543c:	aa1303e1 	mov	x1, x19
    5440:	aa1403e0 	mov	x0, x20
    5444:	9400052c 	bl	68f4 <mbedtls_mpi_cmp_abs>
/home/jayanth/quemu-v8/source/optee_os/lib/libutee/tee_api_arith_mpi.c:730
    5448:	7100001f 	cmp	w0, #0x0
    544c:	350002c0 	cbnz	w0, 54a4 <TEE_BigIntComputeExtendedGcd+0x14c>
/home/jayanth/quemu-v8/source/optee_os/lib/libutee/tee_api_arith_mpi.c:731
    5450:	aa1403e1 	mov	x1, x20
    5454:	aa1503e0 	mov	x0, x21
    5458:	940002d1 	bl	5f9c <mbedtls_mpi_copy>
    545c:	2a0003e2 	mov	w2, w0
    5460:	34000060 	cbz	w0, 546c <TEE_BigIntComputeExtendedGcd+0x114>
/home/jayanth/quemu-v8/source/optee_os/lib/libutee/tee_api_arith_mpi.c:731 (discriminator 1)
    5464:	52805b61 	mov	w1, #0x2db                 	// #731
    5468:	17ffffe1 	b	53ec <TEE_BigIntComputeExtendedGcd+0x94>
/home/jayanth/quemu-v8/source/optee_os/lib/libutee/tee_api_arith_mpi.c:732 (discriminator 2)
    546c:	aa1703e0 	mov	x0, x23
    5470:	52800021 	mov	w1, #0x1                   	// #1
    5474:	94000377 	bl	6250 <mbedtls_mpi_lset>
    5478:	2a0003e2 	mov	w2, w0
    547c:	34000060 	cbz	w0, 5488 <TEE_BigIntComputeExtendedGcd+0x130>
/home/jayanth/quemu-v8/source/optee_os/lib/libutee/tee_api_arith_mpi.c:732 (discriminator 1)
    5480:	52805b81 	mov	w1, #0x2dc                 	// #732
    5484:	17ffffda 	b	53ec <TEE_BigIntComputeExtendedGcd+0x94>
/home/jayanth/quemu-v8/source/optee_os/lib/libutee/tee_api_arith_mpi.c:733 (discriminator 2)
    5488:	aa1603e0 	mov	x0, x22
    548c:	52800001 	mov	w1, #0x0                   	// #0
    5490:	94000370 	bl	6250 <mbedtls_mpi_lset>
    5494:	2a0003e2 	mov	w2, w0
    5498:	34000140 	cbz	w0, 54c0 <TEE_BigIntComputeExtendedGcd+0x168>
/home/jayanth/quemu-v8/source/optee_os/lib/libutee/tee_api_arith_mpi.c:733 (discriminator 1)
    549c:	52805ba1 	mov	w1, #0x2dd                 	// #733
    54a0:	17ffffd3 	b	53ec <TEE_BigIntComputeExtendedGcd+0x94>
/home/jayanth/quemu-v8/source/optee_os/lib/libutee/tee_api_arith_mpi.c:734
    54a4:	540002ad 	b.le	54f8 <TEE_BigIntComputeExtendedGcd+0x1a0>
/home/jayanth/quemu-v8/source/optee_os/lib/libutee/tee_api_arith_mpi.c:735
    54a8:	aa1303e4 	mov	x4, x19
    54ac:	aa1403e3 	mov	x3, x20
    54b0:	aa1603e2 	mov	x2, x22
    54b4:	aa1703e1 	mov	x1, x23
/home/jayanth/quemu-v8/source/optee_os/lib/libutee/tee_api_arith_mpi.c:737
    54b8:	aa1503e0 	mov	x0, x21
    54bc:	97fffb1d 	bl	4130 <mpi_egcd>
/home/jayanth/quemu-v8/source/optee_os/lib/libutee/tee_api_arith_mpi.c:740
    54c0:	794183e0 	ldrh	w0, [sp, #192]
/home/jayanth/quemu-v8/source/optee_os/lib/libutee/tee_api_arith_mpi.c:741
    54c4:	b9406fe1 	ldr	w1, [sp, #108]
/home/jayanth/quemu-v8/source/optee_os/lib/libutee/tee_api_arith_mpi.c:740
    54c8:	1b007f9c 	mul	w28, w28, w0
/home/jayanth/quemu-v8/source/optee_os/lib/libutee/tee_api_arith_mpi.c:741
    54cc:	7941b3e0 	ldrh	w0, [sp, #216]
/home/jayanth/quemu-v8/source/optee_os/lib/libutee/tee_api_arith_mpi.c:740
    54d0:	790183fc 	strh	w28, [sp, #192]
/home/jayanth/quemu-v8/source/optee_os/lib/libutee/tee_api_arith_mpi.c:741
    54d4:	1b007c20 	mul	w0, w1, w0
/home/jayanth/quemu-v8/source/optee_os/lib/libutee/tee_api_arith_mpi.c:743
    54d8:	aa1a03e1 	mov	x1, x26
/home/jayanth/quemu-v8/source/optee_os/lib/libutee/tee_api_arith_mpi.c:741
    54dc:	7901b3e0 	strh	w0, [sp, #216]
/home/jayanth/quemu-v8/source/optee_os/lib/libutee/tee_api_arith_mpi.c:743
    54e0:	aa1703e0 	mov	x0, x23
    54e4:	97fffaa2 	bl	3f6c <copy_mpi_to_bigint>
    54e8:	2a0003e2 	mov	w2, w0
    54ec:	34000100 	cbz	w0, 550c <TEE_BigIntComputeExtendedGcd+0x1b4>
/home/jayanth/quemu-v8/source/optee_os/lib/libutee/tee_api_arith_mpi.c:743 (discriminator 1)
    54f0:	52805ce1 	mov	w1, #0x2e7                 	// #743
    54f4:	17ffffbe 	b	53ec <TEE_BigIntComputeExtendedGcd+0x94>
/home/jayanth/quemu-v8/source/optee_os/lib/libutee/tee_api_arith_mpi.c:737
    54f8:	aa1403e4 	mov	x4, x20
    54fc:	aa1303e3 	mov	x3, x19
    5500:	aa1703e2 	mov	x2, x23
    5504:	aa1603e1 	mov	x1, x22
    5508:	17ffffec 	b	54b8 <TEE_BigIntComputeExtendedGcd+0x160>
/home/jayanth/quemu-v8/source/optee_os/lib/libutee/tee_api_arith_mpi.c:744 (discriminator 2)
    550c:	aa1903e1 	mov	x1, x25
    5510:	aa1603e0 	mov	x0, x22
    5514:	97fffa96 	bl	3f6c <copy_mpi_to_bigint>
    5518:	2a0003e2 	mov	w2, w0
    551c:	34000060 	cbz	w0, 5528 <TEE_BigIntComputeExtendedGcd+0x1d0>
/home/jayanth/quemu-v8/source/optee_os/lib/libutee/tee_api_arith_mpi.c:744 (discriminator 1)
    5520:	52805d01 	mov	w1, #0x2e8                 	// #744
    5524:	17ffffb2 	b	53ec <TEE_BigIntComputeExtendedGcd+0x94>
/home/jayanth/quemu-v8/source/optee_os/lib/libutee/tee_api_arith_mpi.c:745 (discriminator 2)
    5528:	aa1703e0 	mov	x0, x23
    552c:	940001ff 	bl	5d28 <mbedtls_mpi_free>
/home/jayanth/quemu-v8/source/optee_os/lib/libutee/tee_api_arith_mpi.c:746 (discriminator 2)
    5530:	aa1603e0 	mov	x0, x22
    5534:	940001fd 	bl	5d28 <mbedtls_mpi_free>
/home/jayanth/quemu-v8/source/optee_os/lib/libutee/tee_api_arith_mpi.c:749
    5538:	aa1803e1 	mov	x1, x24
    553c:	aa1503e0 	mov	x0, x21
    5540:	97fffa8b 	bl	3f6c <copy_mpi_to_bigint>
    5544:	2a0003e2 	mov	w2, w0
    5548:	34000060 	cbz	w0, 5554 <TEE_BigIntComputeExtendedGcd+0x1fc>
/home/jayanth/quemu-v8/source/optee_os/lib/libutee/tee_api_arith_mpi.c:749 (discriminator 1)
    554c:	52805da1 	mov	w1, #0x2ed                 	// #749
    5550:	17ffffa7 	b	53ec <TEE_BigIntComputeExtendedGcd+0x94>
/home/jayanth/quemu-v8/source/optee_os/lib/libutee/tee_api_arith_mpi.c:750 (discriminator 2)
    5554:	aa1503e0 	mov	x0, x21
    5558:	940001f4 	bl	5d28 <mbedtls_mpi_free>
/home/jayanth/quemu-v8/source/optee_os/lib/libutee/tee_api_arith_mpi.c:751 (discriminator 2)
    555c:	aa1403e0 	mov	x0, x20
    5560:	940001f2 	bl	5d28 <mbedtls_mpi_free>
/home/jayanth/quemu-v8/source/optee_os/lib/libutee/tee_api_arith_mpi.c:752 (discriminator 2)
    5564:	eb1b027f 	cmp	x19, x27
    5568:	54000061 	b.ne	5574 <TEE_BigIntComputeExtendedGcd+0x21c>  // b.any
/home/jayanth/quemu-v8/source/optee_os/lib/libutee/tee_api_arith_mpi.c:753
    556c:	aa1303e0 	mov	x0, x19
    5570:	940001ee 	bl	5d28 <mbedtls_mpi_free>
/home/jayanth/quemu-v8/source/optee_os/lib/libutee/tee_api_arith_mpi.c:754
    5574:	a94153f3 	ldp	x19, x20, [sp, #16]
    5578:	a9425bf5 	ldp	x21, x22, [sp, #32]
    557c:	a94363f7 	ldp	x23, x24, [sp, #48]
    5580:	a9446bf9 	ldp	x25, x26, [sp, #64]
    5584:	a94573fb 	ldp	x27, x28, [sp, #80]
    5588:	a8cf7bfd 	ldp	x29, x30, [sp], #240
    558c:	d65f03c0 	ret

0000000000005590 <TEE_BigIntIsProbablePrime>:
TEE_BigIntIsProbablePrime():
/home/jayanth/quemu-v8/source/optee_os/lib/libutee/tee_api_arith_mpi.c:765
    5590:	a9bc7bfd 	stp	x29, x30, [sp, #-64]!
/home/jayanth/quemu-v8/source/optee_os/lib/libutee/tee_api_arith_mpi.c:769
    5594:	aa0003e1 	mov	x1, x0
/home/jayanth/quemu-v8/source/optee_os/lib/libutee/tee_api_arith_mpi.c:765
    5598:	910003fd 	mov	x29, sp
    559c:	a90153f3 	stp	x19, x20, [sp, #16]
/home/jayanth/quemu-v8/source/optee_os/lib/libutee/tee_api_arith_mpi.c:769
    55a0:	9100a3f3 	add	x19, sp, #0x28
    55a4:	aa1303e0 	mov	x0, x19
    55a8:	97fffa4b 	bl	3ed4 <get_mpi>
/home/jayanth/quemu-v8/source/optee_os/lib/libutee/tee_api_arith_mpi.c:771
    55ac:	f0ffffe1 	adrp	x1, 4000 <bigint_binary+0x30>
    55b0:	91042021 	add	x1, x1, #0x108
    55b4:	d2800002 	mov	x2, #0x0                   	// #0
    55b8:	aa1303e0 	mov	x0, x19
    55bc:	94000df6 	bl	8d94 <mbedtls_mpi_is_prime>
    55c0:	2a0003f4 	mov	w20, w0
/home/jayanth/quemu-v8/source/optee_os/lib/libutee/tee_api_arith_mpi.c:773
    55c4:	aa1303e0 	mov	x0, x19
    55c8:	940001d8 	bl	5d28 <mbedtls_mpi_free>
/home/jayanth/quemu-v8/source/optee_os/lib/libutee/tee_api_arith_mpi.c:775
    55cc:	7100029f 	cmp	w20, #0x0
/home/jayanth/quemu-v8/source/optee_os/lib/libutee/tee_api_arith_mpi.c:779
    55d0:	1a9f17e0 	cset	w0, eq  // eq = none
    55d4:	a94153f3 	ldp	x19, x20, [sp, #16]
    55d8:	a8c47bfd 	ldp	x29, x30, [sp], #64
    55dc:	d65f03c0 	ret

00000000000055e0 <TEE_BigIntInitFMM>:
TEE_BigIntInitFMM():
/home/jayanth/quemu-v8/source/optee_os/lib/libutee/tee_api_arith_mpi.c:791
    55e0:	17fffc38 	b	46c0 <TEE_BigIntInit>

00000000000055e4 <TEE_BigIntInitFMMContext>:
TEE_BigIntInitFMMContext():
/home/jayanth/quemu-v8/source/optee_os/lib/libutee/tee_api_arith_mpi.c:798
    55e4:	d65f03c0 	ret

00000000000055e8 <TEE_BigIntFMMSizeInU32>:
TEE_BigIntFMMSizeInU32():
/home/jayanth/quemu-v8/source/optee_os/lib/libutee/tee_api_arith_mpi.c:802
    55e8:	11007c00 	add	w0, w0, #0x1f
    55ec:	53057c00 	lsr	w0, w0, #5
/home/jayanth/quemu-v8/source/optee_os/lib/libutee/tee_api_arith_mpi.c:803
    55f0:	11000800 	add	w0, w0, #0x2
    55f4:	d65f03c0 	ret

00000000000055f8 <TEE_BigIntFMMContextSizeInU32>:
TEE_BigIntFMMContextSizeInU32():
/home/jayanth/quemu-v8/source/optee_os/lib/libutee/tee_api_arith_mpi.c:809
    55f8:	52800020 	mov	w0, #0x1                   	// #1
    55fc:	d65f03c0 	ret

0000000000005600 <TEE_BigIntConvertToFMM>:
TEE_BigIntConvertToFMM():
/home/jayanth/quemu-v8/source/optee_os/lib/libutee/tee_api_arith_mpi.c:815
    5600:	17fffeb3 	b	50cc <TEE_BigIntMod>

0000000000005604 <TEE_BigIntConvertFromFMM>:
TEE_BigIntConvertFromFMM():
/home/jayanth/quemu-v8/source/optee_os/lib/libutee/tee_api_arith_mpi.c:821
    5604:	a9ba7bfd 	stp	x29, x30, [sp, #-96]!
    5608:	910003fd 	mov	x29, sp
    560c:	a90153f3 	stp	x19, x20, [sp, #16]
/home/jayanth/quemu-v8/source/optee_os/lib/libutee/tee_api_arith_mpi.c:825
    5610:	9100c3f3 	add	x19, sp, #0x30
/home/jayanth/quemu-v8/source/optee_os/lib/libutee/tee_api_arith_mpi.c:821
    5614:	aa0003f4 	mov	x20, x0
    5618:	a9025bf5 	stp	x21, x22, [sp, #32]
    561c:	aa0103f6 	mov	x22, x1
/home/jayanth/quemu-v8/source/optee_os/lib/libutee/tee_api_arith_mpi.c:826
    5620:	910123f5 	add	x21, sp, #0x48
/home/jayanth/quemu-v8/source/optee_os/lib/libutee/tee_api_arith_mpi.c:825
    5624:	aa0003e1 	mov	x1, x0
    5628:	aa1303e0 	mov	x0, x19
    562c:	97fffa2a 	bl	3ed4 <get_mpi>
/home/jayanth/quemu-v8/source/optee_os/lib/libutee/tee_api_arith_mpi.c:826
    5630:	aa1603e1 	mov	x1, x22
    5634:	aa1503e0 	mov	x0, x21
    5638:	97fffa27 	bl	3ed4 <get_mpi>
/home/jayanth/quemu-v8/source/optee_os/lib/libutee/tee_api_arith_mpi.c:828
    563c:	aa1503e1 	mov	x1, x21
    5640:	aa1303e0 	mov	x0, x19
    5644:	94000256 	bl	5f9c <mbedtls_mpi_copy>
    5648:	340000e0 	cbz	w0, 5664 <TEE_BigIntConvertFromFMM+0x60>
    564c:	2a0003e2 	mov	w2, w0
/home/jayanth/quemu-v8/source/optee_os/lib/libutee/tee_api_arith_mpi.c:828 (discriminator 1)
    5650:	52806781 	mov	w1, #0x33c                 	// #828
/home/jayanth/quemu-v8/source/optee_os/lib/libutee/tee_api_arith_mpi.c:830 (discriminator 1)
    5654:	f0000020 	adrp	x0, c000 <__func__.4194+0x3e3>
    5658:	910b4c00 	add	x0, x0, #0x2d3
    565c:	91043c00 	add	x0, x0, #0x10f
    5660:	97fffa11 	bl	3ea4 <mpi_panic>
/home/jayanth/quemu-v8/source/optee_os/lib/libutee/tee_api_arith_mpi.c:830 (discriminator 2)
    5664:	aa1403e1 	mov	x1, x20
    5668:	aa1303e0 	mov	x0, x19
    566c:	97fffa40 	bl	3f6c <copy_mpi_to_bigint>
    5670:	2a0003e2 	mov	w2, w0
    5674:	34000060 	cbz	w0, 5680 <TEE_BigIntConvertFromFMM+0x7c>
/home/jayanth/quemu-v8/source/optee_os/lib/libutee/tee_api_arith_mpi.c:830 (discriminator 1)
    5678:	528067c1 	mov	w1, #0x33e                 	// #830
    567c:	17fffff6 	b	5654 <TEE_BigIntConvertFromFMM+0x50>
/home/jayanth/quemu-v8/source/optee_os/lib/libutee/tee_api_arith_mpi.c:831 (discriminator 2)
    5680:	aa1303e0 	mov	x0, x19
    5684:	940001a9 	bl	5d28 <mbedtls_mpi_free>
/home/jayanth/quemu-v8/source/optee_os/lib/libutee/tee_api_arith_mpi.c:832 (discriminator 2)
    5688:	aa1503e0 	mov	x0, x21
    568c:	940001a7 	bl	5d28 <mbedtls_mpi_free>
/home/jayanth/quemu-v8/source/optee_os/lib/libutee/tee_api_arith_mpi.c:833 (discriminator 2)
    5690:	a94153f3 	ldp	x19, x20, [sp, #16]
    5694:	a9425bf5 	ldp	x21, x22, [sp, #32]
    5698:	a8c67bfd 	ldp	x29, x30, [sp], #96
    569c:	d65f03c0 	ret

00000000000056a0 <TEE_BigIntComputeFMM>:
TEE_BigIntComputeFMM():
/home/jayanth/quemu-v8/source/optee_os/lib/libutee/tee_api_arith_mpi.c:838
    56a0:	a9b47bfd 	stp	x29, x30, [sp, #-192]!
    56a4:	910003fd 	mov	x29, sp
    56a8:	a90153f3 	stp	x19, x20, [sp, #16]
/home/jayanth/quemu-v8/source/optee_os/lib/libutee/tee_api_arith_mpi.c:845
    56ac:	910123f3 	add	x19, sp, #0x48
/home/jayanth/quemu-v8/source/optee_os/lib/libutee/tee_api_arith_mpi.c:838
    56b0:	aa0003f4 	mov	x20, x0
    56b4:	a9025bf5 	stp	x21, x22, [sp, #32]
    56b8:	aa0303f5 	mov	x21, x3
/home/jayanth/quemu-v8/source/optee_os/lib/libutee/tee_api_arith_mpi.c:846
    56bc:	910183f6 	add	x22, sp, #0x60
/home/jayanth/quemu-v8/source/optee_os/lib/libutee/tee_api_arith_mpi.c:838
    56c0:	a90363f7 	stp	x23, x24, [sp, #48]
    56c4:	aa0203f8 	mov	x24, x2
    56c8:	aa0103f7 	mov	x23, x1
/home/jayanth/quemu-v8/source/optee_os/lib/libutee/tee_api_arith_mpi.c:845
    56cc:	aa0003e1 	mov	x1, x0
    56d0:	aa1303e0 	mov	x0, x19
    56d4:	97fffa00 	bl	3ed4 <get_mpi>
/home/jayanth/quemu-v8/source/optee_os/lib/libutee/tee_api_arith_mpi.c:846
    56d8:	aa1703e1 	mov	x1, x23
    56dc:	aa1603e0 	mov	x0, x22
/home/jayanth/quemu-v8/source/optee_os/lib/libutee/tee_api_arith_mpi.c:847
    56e0:	9101e3f7 	add	x23, sp, #0x78
/home/jayanth/quemu-v8/source/optee_os/lib/libutee/tee_api_arith_mpi.c:846
    56e4:	97fff9fc 	bl	3ed4 <get_mpi>
/home/jayanth/quemu-v8/source/optee_os/lib/libutee/tee_api_arith_mpi.c:847
    56e8:	aa1803e1 	mov	x1, x24
    56ec:	aa1703e0 	mov	x0, x23
    56f0:	97fff9f9 	bl	3ed4 <get_mpi>
/home/jayanth/quemu-v8/source/optee_os/lib/libutee/tee_api_arith_mpi.c:848
    56f4:	910243f8 	add	x24, sp, #0x90
    56f8:	aa1503e1 	mov	x1, x21
    56fc:	aa1803e0 	mov	x0, x24
get_mpi():
/home/jayanth/quemu-v8/source/optee_os/lib/libutee/tee_api_arith_mpi.c:101
    5700:	9102a3f5 	add	x21, sp, #0xa8
TEE_BigIntComputeFMM():
/home/jayanth/quemu-v8/source/optee_os/lib/libutee/tee_api_arith_mpi.c:848
    5704:	97fff9f4 	bl	3ed4 <get_mpi>
get_mpi():
/home/jayanth/quemu-v8/source/optee_os/lib/libutee/tee_api_arith_mpi.c:101
    5708:	aa1503e0 	mov	x0, x21
    570c:	9400017d 	bl	5d00 <mbedtls_mpi_init_mempool>
TEE_BigIntComputeFMM():
/home/jayanth/quemu-v8/source/optee_os/lib/libutee/tee_api_arith_mpi.c:851
    5710:	aa1703e2 	mov	x2, x23
    5714:	aa1603e1 	mov	x1, x22
    5718:	aa1503e0 	mov	x0, x21
    571c:	940005f7 	bl	6ef8 <mbedtls_mpi_mul_mpi>
    5720:	340000e0 	cbz	w0, 573c <TEE_BigIntComputeFMM+0x9c>
    5724:	2a0003e2 	mov	w2, w0
/home/jayanth/quemu-v8/source/optee_os/lib/libutee/tee_api_arith_mpi.c:851 (discriminator 1)
    5728:	52806a61 	mov	w1, #0x353                 	// #851
/home/jayanth/quemu-v8/source/optee_os/lib/libutee/tee_api_arith_mpi.c:852 (discriminator 1)
    572c:	f0000020 	adrp	x0, c000 <__func__.4194+0x3e3>
    5730:	910b4c00 	add	x0, x0, #0x2d3
    5734:	9104a000 	add	x0, x0, #0x128
    5738:	97fff9db 	bl	3ea4 <mpi_panic>
/home/jayanth/quemu-v8/source/optee_os/lib/libutee/tee_api_arith_mpi.c:852 (discriminator 2)
    573c:	aa1803e2 	mov	x2, x24
    5740:	aa1503e1 	mov	x1, x21
    5744:	aa1303e0 	mov	x0, x19
    5748:	94000815 	bl	779c <mbedtls_mpi_mod_mpi>
    574c:	2a0003e2 	mov	w2, w0
    5750:	34000060 	cbz	w0, 575c <TEE_BigIntComputeFMM+0xbc>
/home/jayanth/quemu-v8/source/optee_os/lib/libutee/tee_api_arith_mpi.c:852 (discriminator 1)
    5754:	52806a81 	mov	w1, #0x354                 	// #852
    5758:	17fffff5 	b	572c <TEE_BigIntComputeFMM+0x8c>
/home/jayanth/quemu-v8/source/optee_os/lib/libutee/tee_api_arith_mpi.c:854 (discriminator 2)
    575c:	aa1503e0 	mov	x0, x21
    5760:	94000172 	bl	5d28 <mbedtls_mpi_free>
/home/jayanth/quemu-v8/source/optee_os/lib/libutee/tee_api_arith_mpi.c:855 (discriminator 2)
    5764:	aa1803e0 	mov	x0, x24
    5768:	94000170 	bl	5d28 <mbedtls_mpi_free>
/home/jayanth/quemu-v8/source/optee_os/lib/libutee/tee_api_arith_mpi.c:856 (discriminator 2)
    576c:	aa1703e0 	mov	x0, x23
    5770:	9400016e 	bl	5d28 <mbedtls_mpi_free>
/home/jayanth/quemu-v8/source/optee_os/lib/libutee/tee_api_arith_mpi.c:857 (discriminator 2)
    5774:	aa1603e0 	mov	x0, x22
    5778:	9400016c 	bl	5d28 <mbedtls_mpi_free>
/home/jayanth/quemu-v8/source/optee_os/lib/libutee/tee_api_arith_mpi.c:858 (discriminator 2)
    577c:	aa1403e1 	mov	x1, x20
    5780:	aa1303e0 	mov	x0, x19
    5784:	97fff9fa 	bl	3f6c <copy_mpi_to_bigint>
    5788:	2a0003e2 	mov	w2, w0
    578c:	34000060 	cbz	w0, 5798 <TEE_BigIntComputeFMM+0xf8>
/home/jayanth/quemu-v8/source/optee_os/lib/libutee/tee_api_arith_mpi.c:858 (discriminator 1)
    5790:	52806b41 	mov	w1, #0x35a                 	// #858
    5794:	17ffffe6 	b	572c <TEE_BigIntComputeFMM+0x8c>
/home/jayanth/quemu-v8/source/optee_os/lib/libutee/tee_api_arith_mpi.c:859 (discriminator 2)
    5798:	aa1303e0 	mov	x0, x19
    579c:	94000163 	bl	5d28 <mbedtls_mpi_free>
/home/jayanth/quemu-v8/source/optee_os/lib/libutee/tee_api_arith_mpi.c:860 (discriminator 2)
    57a0:	a94153f3 	ldp	x19, x20, [sp, #16]
    57a4:	a9425bf5 	ldp	x21, x22, [sp, #32]
    57a8:	a94363f7 	ldp	x23, x24, [sp, #48]
    57ac:	a8cc7bfd 	ldp	x29, x30, [sp], #192
    57b0:	d65f03c0 	ret

00000000000057b4 <mpi_get_digit>:
mpi_get_digit():
/home/jayanth/quemu-v8/source/optee_os/lib/libmbedtls/mbedtls/library/bignum.c:491
    57b4:	12001c42 	and	w2, w2, #0xff
/home/jayanth/quemu-v8/source/optee_os/lib/libmbedtls/mbedtls/library/bignum.c:494
    57b8:	5100c043 	sub	w3, w2, #0x30
    57bc:	12001c64 	and	w4, w3, #0xff
    57c0:	7100249f 	cmp	w4, #0x9
    57c4:	540000e8 	b.hi	57e0 <mpi_get_digit+0x2c>  // b.pmore
/home/jayanth/quemu-v8/source/optee_os/lib/libmbedtls/mbedtls/library/bignum.c:494 (discriminator 1)
    57c8:	b9000003 	str	w3, [x0]
/home/jayanth/quemu-v8/source/optee_os/lib/libmbedtls/mbedtls/library/bignum.c:498
    57cc:	b9400000 	ldr	w0, [x0]
/home/jayanth/quemu-v8/source/optee_os/lib/libmbedtls/mbedtls/library/bignum.c:499
    57d0:	6b01001f 	cmp	w0, w1
/home/jayanth/quemu-v8/source/optee_os/lib/libmbedtls/mbedtls/library/bignum.c:502
    57d4:	128000a0 	mov	w0, #0xfffffffa            	// #-6
    57d8:	1a9f2000 	csel	w0, w0, wzr, cs  // cs = hs, nlast
    57dc:	d65f03c0 	ret
/home/jayanth/quemu-v8/source/optee_os/lib/libmbedtls/mbedtls/library/bignum.c:495
    57e0:	51010443 	sub	w3, w2, #0x41
    57e4:	12001c63 	and	w3, w3, #0xff
    57e8:	7100147f 	cmp	w3, #0x5
    57ec:	54000088 	b.hi	57fc <mpi_get_digit+0x48>  // b.pmore
/home/jayanth/quemu-v8/source/optee_os/lib/libmbedtls/mbedtls/library/bignum.c:495 (discriminator 1)
    57f0:	5100dc42 	sub	w2, w2, #0x37
/home/jayanth/quemu-v8/source/optee_os/lib/libmbedtls/mbedtls/library/bignum.c:496
    57f4:	b9000002 	str	w2, [x0]
    57f8:	17fffff5 	b	57cc <mpi_get_digit+0x18>
    57fc:	51018443 	sub	w3, w2, #0x61
    5800:	51015c42 	sub	w2, w2, #0x57
    5804:	12001c63 	and	w3, w3, #0xff
    5808:	7100187f 	cmp	w3, #0x6
    580c:	52801fe3 	mov	w3, #0xff                  	// #255
    5810:	1a833042 	csel	w2, w2, w3, cc  // cc = lo, ul, last
    5814:	17fffff8 	b	57f4 <mpi_get_digit+0x40>

0000000000005818 <mpi_sub_hlp>:
mpi_sub_hlp():
/home/jayanth/quemu-v8/source/optee_os/lib/libmbedtls/mbedtls/library/bignum.c:1387
    5818:	52800005 	mov	w5, #0x0                   	// #0
    581c:	d2800003 	mov	x3, #0x0                   	// #0
/home/jayanth/quemu-v8/source/optee_os/lib/libmbedtls/mbedtls/library/bignum.c:1387 (discriminator 1)
    5820:	eb00007f 	cmp	x3, x0
    5824:	54000081 	b.ne	5834 <mpi_sub_hlp+0x1c>  // b.any
    5828:	8b030843 	add	x3, x2, x3, lsl #2
/home/jayanth/quemu-v8/source/optee_os/lib/libmbedtls/mbedtls/library/bignum.c:1393
    582c:	350001c5 	cbnz	w5, 5864 <mpi_sub_hlp+0x4c>
/home/jayanth/quemu-v8/source/optee_os/lib/libmbedtls/mbedtls/library/bignum.c:1398
    5830:	d65f03c0 	ret
/home/jayanth/quemu-v8/source/optee_os/lib/libmbedtls/mbedtls/library/bignum.c:1389 (discriminator 3)
    5834:	b8637844 	ldr	w4, [x2, x3, lsl #2]
    5838:	6b05009f 	cmp	w4, w5
    583c:	4b050084 	sub	w4, w4, w5
    5840:	b8237844 	str	w4, [x2, x3, lsl #2]
    5844:	1a9f27e7 	cset	w7, cc  // cc = lo, ul, last
/home/jayanth/quemu-v8/source/optee_os/lib/libmbedtls/mbedtls/library/bignum.c:1390 (discriminator 3)
    5848:	b8637826 	ldr	w6, [x1, x3, lsl #2]
    584c:	6b06009f 	cmp	w4, w6
    5850:	4b060084 	sub	w4, w4, w6
    5854:	1a8724e5 	cinc	w5, w7, cc  // cc = lo, ul, last
    5858:	b8237844 	str	w4, [x2, x3, lsl #2]
/home/jayanth/quemu-v8/source/optee_os/lib/libmbedtls/mbedtls/library/bignum.c:1387 (discriminator 3)
    585c:	91000463 	add	x3, x3, #0x1
    5860:	17fffff0 	b	5820 <mpi_sub_hlp+0x8>
/home/jayanth/quemu-v8/source/optee_os/lib/libmbedtls/mbedtls/library/bignum.c:1395
    5864:	b9400060 	ldr	w0, [x3]
    5868:	6b050005 	subs	w5, w0, w5
    586c:	b8004465 	str	w5, [x3], #4
/home/jayanth/quemu-v8/source/optee_os/lib/libmbedtls/mbedtls/library/bignum.c:1396
    5870:	1a9f27e5 	cset	w5, cc  // cc = lo, ul, last
    5874:	17ffffee 	b	582c <mpi_sub_hlp+0x14>

0000000000005878 <mpi_mul_hlp>:
mpi_mul_hlp():
/home/jayanth/quemu-v8/source/optee_os/lib/libmbedtls/mbedtls/library/bignum.c:1582
    5878:	aa0203e4 	mov	x4, x2
    587c:	aa0103e6 	mov	x6, x1
    5880:	aa0003e9 	mov	x9, x0
/home/jayanth/quemu-v8/source/optee_os/lib/libmbedtls/mbedtls/library/bignum.c:1565
    5884:	52800005 	mov	w5, #0x0                   	// #0
/home/jayanth/quemu-v8/source/optee_os/lib/libmbedtls/mbedtls/library/bignum.c:1582 (discriminator 1)
    5888:	b940008a 	ldr	w10, [x4]
    588c:	f1003d3f 	cmp	x9, #0xf
    5890:	54000bc8 	b.hi	5a08 <mpi_mul_hlp+0x190>  // b.pmore
    5894:	d344fc04 	lsr	x4, x0, #4
    5898:	928001e6 	mov	x6, #0xfffffffffffffff0    	// #-16
    589c:	d37ae488 	lsl	x8, x4, #6
    58a0:	9b060080 	madd	x0, x4, x6, x0
    58a4:	8b041826 	add	x6, x1, x4, lsl #6
    58a8:	8b041844 	add	x4, x2, x4, lsl #6
/home/jayanth/quemu-v8/source/optee_os/lib/libmbedtls/mbedtls/library/bignum.c:1597
    58ac:	f1001c1f 	cmp	x0, #0x7
    58b0:	54000969 	b.ls	59dc <mpi_mul_hlp+0x164>  // b.plast
/home/jayanth/quemu-v8/source/optee_os/lib/libmbedtls/mbedtls/library/bignum.c:1600
    58b4:	b8686827 	ldr	w7, [x1, x8]
/home/jayanth/quemu-v8/source/optee_os/lib/libmbedtls/mbedtls/library/bignum.c:1597
    58b8:	d1002000 	sub	x0, x0, #0x8
/home/jayanth/quemu-v8/source/optee_os/lib/libmbedtls/mbedtls/library/bignum.c:1604
    58bc:	910080c6 	add	x6, x6, #0x20
    58c0:	91008084 	add	x4, x4, #0x20
/home/jayanth/quemu-v8/source/optee_os/lib/libmbedtls/mbedtls/library/bignum.c:1600
    58c4:	9ba77c67 	umull	x7, w3, w7
    58c8:	d360fce1 	lsr	x1, x7, #32
    58cc:	2b0700a7 	adds	w7, w5, w7
    58d0:	1a813421 	cinc	w1, w1, cs  // cs = hs, nlast
    58d4:	2b070145 	adds	w5, w10, w7
    58d8:	b8286845 	str	w5, [x2, x8]
    58dc:	1a813421 	cinc	w1, w1, cs  // cs = hs, nlast
    58e0:	b85e40c5 	ldur	w5, [x6, #-28]
    58e4:	9ba57c65 	umull	x5, w3, w5
    58e8:	2b050021 	adds	w1, w1, w5
    58ec:	d360fca2 	lsr	x2, x5, #32
    58f0:	b85e4085 	ldur	w5, [x4, #-28]
    58f4:	1a823442 	cinc	w2, w2, cs  // cs = hs, nlast
    58f8:	2b050021 	adds	w1, w1, w5
    58fc:	b81e4081 	stur	w1, [x4, #-28]
    5900:	1a823442 	cinc	w2, w2, cs  // cs = hs, nlast
/home/jayanth/quemu-v8/source/optee_os/lib/libmbedtls/mbedtls/library/bignum.c:1601
    5904:	b85e80c5 	ldur	w5, [x6, #-24]
    5908:	9ba57c65 	umull	x5, w3, w5
    590c:	2b050042 	adds	w2, w2, w5
    5910:	d360fca1 	lsr	x1, x5, #32
    5914:	b85e8085 	ldur	w5, [x4, #-24]
    5918:	1a813421 	cinc	w1, w1, cs  // cs = hs, nlast
    591c:	2b050042 	adds	w2, w2, w5
    5920:	b81e8082 	stur	w2, [x4, #-24]
    5924:	1a813421 	cinc	w1, w1, cs  // cs = hs, nlast
    5928:	b85ec0c5 	ldur	w5, [x6, #-20]
    592c:	9ba57c65 	umull	x5, w3, w5
    5930:	2b050021 	adds	w1, w1, w5
    5934:	d360fca2 	lsr	x2, x5, #32
    5938:	b85ec085 	ldur	w5, [x4, #-20]
    593c:	1a823442 	cinc	w2, w2, cs  // cs = hs, nlast
    5940:	2b050021 	adds	w1, w1, w5
    5944:	b81ec081 	stur	w1, [x4, #-20]
    5948:	1a823442 	cinc	w2, w2, cs  // cs = hs, nlast
/home/jayanth/quemu-v8/source/optee_os/lib/libmbedtls/mbedtls/library/bignum.c:1603
    594c:	b85f00c5 	ldur	w5, [x6, #-16]
    5950:	9ba57c65 	umull	x5, w3, w5
    5954:	2b050042 	adds	w2, w2, w5
    5958:	d360fca1 	lsr	x1, x5, #32
    595c:	b85f0085 	ldur	w5, [x4, #-16]
    5960:	1a813421 	cinc	w1, w1, cs  // cs = hs, nlast
    5964:	2b050042 	adds	w2, w2, w5
    5968:	b81f0082 	stur	w2, [x4, #-16]
    596c:	1a813421 	cinc	w1, w1, cs  // cs = hs, nlast
    5970:	b85f40c5 	ldur	w5, [x6, #-12]
    5974:	9ba57c65 	umull	x5, w3, w5
    5978:	2b050021 	adds	w1, w1, w5
    597c:	d360fca2 	lsr	x2, x5, #32
    5980:	b85f4085 	ldur	w5, [x4, #-12]
    5984:	1a823442 	cinc	w2, w2, cs  // cs = hs, nlast
    5988:	2b050021 	adds	w1, w1, w5
    598c:	b81f4081 	stur	w1, [x4, #-12]
    5990:	1a823442 	cinc	w2, w2, cs  // cs = hs, nlast
/home/jayanth/quemu-v8/source/optee_os/lib/libmbedtls/mbedtls/library/bignum.c:1604
    5994:	b85f80c5 	ldur	w5, [x6, #-8]
    5998:	9ba57c65 	umull	x5, w3, w5
    599c:	2b050042 	adds	w2, w2, w5
    59a0:	d360fca1 	lsr	x1, x5, #32
    59a4:	b85f8085 	ldur	w5, [x4, #-8]
    59a8:	1a813421 	cinc	w1, w1, cs  // cs = hs, nlast
    59ac:	2b050042 	adds	w2, w2, w5
    59b0:	b81f8082 	stur	w2, [x4, #-8]
    59b4:	1a813421 	cinc	w1, w1, cs  // cs = hs, nlast
    59b8:	b85fc0c2 	ldur	w2, [x6, #-4]
    59bc:	9ba27c62 	umull	x2, w3, w2
    59c0:	2b020021 	adds	w1, w1, w2
    59c4:	d360fc45 	lsr	x5, x2, #32
    59c8:	b85fc082 	ldur	w2, [x4, #-4]
    59cc:	1a8534a5 	cinc	w5, w5, cs  // cs = hs, nlast
    59d0:	2b020021 	adds	w1, w1, w2
    59d4:	b81fc081 	stur	w1, [x4, #-4]
    59d8:	1a8534a5 	cinc	w5, w5, cs  // cs = hs, nlast
/home/jayanth/quemu-v8/source/optee_os/lib/libmbedtls/mbedtls/library/bignum.c:1604 (discriminator 1)
    59dc:	d2800001 	mov	x1, #0x0                   	// #0
/home/jayanth/quemu-v8/source/optee_os/lib/libmbedtls/mbedtls/library/bignum.c:1608 (discriminator 1)
    59e0:	b8617887 	ldr	w7, [x4, x1, lsl #2]
    59e4:	eb00003f 	cmp	x1, x0
    59e8:	54001361 	b.ne	5c54 <mpi_mul_hlp+0x3dc>  // b.any
    59ec:	8b010884 	add	x4, x4, x1, lsl #2
/home/jayanth/quemu-v8/source/optee_os/lib/libmbedtls/mbedtls/library/bignum.c:1619 (discriminator 1)
    59f0:	b9400080 	ldr	w0, [x4]
    59f4:	2b050005 	adds	w5, w0, w5
    59f8:	b8004485 	str	w5, [x4], #4
    59fc:	52800025 	mov	w5, #0x1                   	// #1
/home/jayanth/quemu-v8/source/optee_os/lib/libmbedtls/mbedtls/library/bignum.c:1621 (discriminator 1)
    5a00:	54ffff82 	b.cs	59f0 <mpi_mul_hlp+0x178>  // b.hs, b.nlast
/home/jayanth/quemu-v8/source/optee_os/lib/libmbedtls/mbedtls/library/bignum.c:1622
    5a04:	d65f03c0 	ret
/home/jayanth/quemu-v8/source/optee_os/lib/libmbedtls/mbedtls/library/bignum.c:1585 (discriminator 2)
    5a08:	b94000c7 	ldr	w7, [x6]
    5a0c:	910100c6 	add	x6, x6, #0x40
    5a10:	91010084 	add	x4, x4, #0x40
/home/jayanth/quemu-v8/source/optee_os/lib/libmbedtls/mbedtls/library/bignum.c:1582 (discriminator 2)
    5a14:	d1004129 	sub	x9, x9, #0x10
/home/jayanth/quemu-v8/source/optee_os/lib/libmbedtls/mbedtls/library/bignum.c:1585 (discriminator 2)
    5a18:	9ba77c67 	umull	x7, w3, w7
    5a1c:	2b0700a5 	adds	w5, w5, w7
    5a20:	d360fce8 	lsr	x8, x7, #32
    5a24:	1a883508 	cinc	w8, w8, cs  // cs = hs, nlast
    5a28:	2b0a00a5 	adds	w5, w5, w10
    5a2c:	b81c0085 	stur	w5, [x4, #-64]
    5a30:	b85c40c7 	ldur	w7, [x6, #-60]
    5a34:	9ba77c6a 	umull	x10, w3, w7
    5a38:	1a883507 	cinc	w7, w8, cs  // cs = hs, nlast
    5a3c:	2b0a00e7 	adds	w7, w7, w10
    5a40:	d360fd45 	lsr	x5, x10, #32
    5a44:	1a8534a8 	cinc	w8, w5, cs  // cs = hs, nlast
    5a48:	b85c4085 	ldur	w5, [x4, #-60]
    5a4c:	2b0700a7 	adds	w7, w5, w7
    5a50:	b81c4087 	stur	w7, [x4, #-60]
/home/jayanth/quemu-v8/source/optee_os/lib/libmbedtls/mbedtls/library/bignum.c:1586 (discriminator 2)
    5a54:	b85c80c5 	ldur	w5, [x6, #-56]
    5a58:	9ba57c6a 	umull	x10, w3, w5
/home/jayanth/quemu-v8/source/optee_os/lib/libmbedtls/mbedtls/library/bignum.c:1585 (discriminator 2)
    5a5c:	1a883505 	cinc	w5, w8, cs  // cs = hs, nlast
    5a60:	2b0a00a5 	adds	w5, w5, w10
/home/jayanth/quemu-v8/source/optee_os/lib/libmbedtls/mbedtls/library/bignum.c:1586 (discriminator 2)
    5a64:	d360fd47 	lsr	x7, x10, #32
    5a68:	1a8734e8 	cinc	w8, w7, cs  // cs = hs, nlast
    5a6c:	b85c8087 	ldur	w7, [x4, #-56]
    5a70:	2b0500e5 	adds	w5, w7, w5
    5a74:	b81c8085 	stur	w5, [x4, #-56]
    5a78:	b85cc0c7 	ldur	w7, [x6, #-52]
    5a7c:	9ba77c6a 	umull	x10, w3, w7
    5a80:	1a883507 	cinc	w7, w8, cs  // cs = hs, nlast
    5a84:	2b0a00e7 	adds	w7, w7, w10
    5a88:	d360fd45 	lsr	x5, x10, #32
    5a8c:	1a8534a8 	cinc	w8, w5, cs  // cs = hs, nlast
    5a90:	b85cc085 	ldur	w5, [x4, #-52]
    5a94:	2b0700a7 	adds	w7, w5, w7
    5a98:	b81cc087 	stur	w7, [x4, #-52]
/home/jayanth/quemu-v8/source/optee_os/lib/libmbedtls/mbedtls/library/bignum.c:1587 (discriminator 2)
    5a9c:	b85d00c5 	ldur	w5, [x6, #-48]
    5aa0:	9ba57c6a 	umull	x10, w3, w5
/home/jayanth/quemu-v8/source/optee_os/lib/libmbedtls/mbedtls/library/bignum.c:1586 (discriminator 2)
    5aa4:	1a883505 	cinc	w5, w8, cs  // cs = hs, nlast
    5aa8:	2b0a00a5 	adds	w5, w5, w10
/home/jayanth/quemu-v8/source/optee_os/lib/libmbedtls/mbedtls/library/bignum.c:1587 (discriminator 2)
    5aac:	d360fd47 	lsr	x7, x10, #32
    5ab0:	1a8734e8 	cinc	w8, w7, cs  // cs = hs, nlast
    5ab4:	b85d0087 	ldur	w7, [x4, #-48]
    5ab8:	2b0500e5 	adds	w5, w7, w5
    5abc:	b81d0085 	stur	w5, [x4, #-48]
    5ac0:	b85d40c7 	ldur	w7, [x6, #-44]
    5ac4:	9ba77c6a 	umull	x10, w3, w7
    5ac8:	1a883507 	cinc	w7, w8, cs  // cs = hs, nlast
    5acc:	2b0a00e7 	adds	w7, w7, w10
    5ad0:	d360fd45 	lsr	x5, x10, #32
    5ad4:	1a8534a8 	cinc	w8, w5, cs  // cs = hs, nlast
    5ad8:	b85d4085 	ldur	w5, [x4, #-44]
    5adc:	2b0700a7 	adds	w7, w5, w7
    5ae0:	b81d4087 	stur	w7, [x4, #-44]
/home/jayanth/quemu-v8/source/optee_os/lib/libmbedtls/mbedtls/library/bignum.c:1588 (discriminator 2)
    5ae4:	b85d80c5 	ldur	w5, [x6, #-40]
    5ae8:	9ba57c6a 	umull	x10, w3, w5
/home/jayanth/quemu-v8/source/optee_os/lib/libmbedtls/mbedtls/library/bignum.c:1587 (discriminator 2)
    5aec:	1a883505 	cinc	w5, w8, cs  // cs = hs, nlast
    5af0:	2b0a00a5 	adds	w5, w5, w10
/home/jayanth/quemu-v8/source/optee_os/lib/libmbedtls/mbedtls/library/bignum.c:1588 (discriminator 2)
    5af4:	d360fd47 	lsr	x7, x10, #32
    5af8:	1a8734e8 	cinc	w8, w7, cs  // cs = hs, nlast
    5afc:	b85d8087 	ldur	w7, [x4, #-40]
    5b00:	2b0500e5 	adds	w5, w7, w5
    5b04:	b81d8085 	stur	w5, [x4, #-40]
    5b08:	b85dc0c7 	ldur	w7, [x6, #-36]
    5b0c:	9ba77c6a 	umull	x10, w3, w7
    5b10:	1a883507 	cinc	w7, w8, cs  // cs = hs, nlast
    5b14:	2b0a00e7 	adds	w7, w7, w10
    5b18:	d360fd45 	lsr	x5, x10, #32
    5b1c:	1a8534a8 	cinc	w8, w5, cs  // cs = hs, nlast
    5b20:	b85dc085 	ldur	w5, [x4, #-36]
    5b24:	2b0700a7 	adds	w7, w5, w7
    5b28:	b81dc087 	stur	w7, [x4, #-36]
/home/jayanth/quemu-v8/source/optee_os/lib/libmbedtls/mbedtls/library/bignum.c:1590 (discriminator 2)
    5b2c:	b85e00c5 	ldur	w5, [x6, #-32]
    5b30:	9ba57c6a 	umull	x10, w3, w5
/home/jayanth/quemu-v8/source/optee_os/lib/libmbedtls/mbedtls/library/bignum.c:1588 (discriminator 2)
    5b34:	1a883505 	cinc	w5, w8, cs  // cs = hs, nlast
    5b38:	2b0a00a5 	adds	w5, w5, w10
/home/jayanth/quemu-v8/source/optee_os/lib/libmbedtls/mbedtls/library/bignum.c:1590 (discriminator 2)
    5b3c:	d360fd47 	lsr	x7, x10, #32
    5b40:	1a8734e8 	cinc	w8, w7, cs  // cs = hs, nlast
    5b44:	b85e0087 	ldur	w7, [x4, #-32]
    5b48:	2b0500e5 	adds	w5, w7, w5
    5b4c:	b81e0085 	stur	w5, [x4, #-32]
    5b50:	b85e40c7 	ldur	w7, [x6, #-28]
    5b54:	9ba77c6a 	umull	x10, w3, w7
    5b58:	1a883507 	cinc	w7, w8, cs  // cs = hs, nlast
    5b5c:	2b0a00e7 	adds	w7, w7, w10
    5b60:	d360fd45 	lsr	x5, x10, #32
    5b64:	1a8534a8 	cinc	w8, w5, cs  // cs = hs, nlast
    5b68:	b85e4085 	ldur	w5, [x4, #-28]
    5b6c:	2b0700a7 	adds	w7, w5, w7
    5b70:	b81e4087 	stur	w7, [x4, #-28]
/home/jayanth/quemu-v8/source/optee_os/lib/libmbedtls/mbedtls/library/bignum.c:1591 (discriminator 2)
    5b74:	b85e80c5 	ldur	w5, [x6, #-24]
    5b78:	9ba57c6a 	umull	x10, w3, w5
/home/jayanth/quemu-v8/source/optee_os/lib/libmbedtls/mbedtls/library/bignum.c:1590 (discriminator 2)
    5b7c:	1a883505 	cinc	w5, w8, cs  // cs = hs, nlast
    5b80:	2b0a00a5 	adds	w5, w5, w10
/home/jayanth/quemu-v8/source/optee_os/lib/libmbedtls/mbedtls/library/bignum.c:1591 (discriminator 2)
    5b84:	d360fd47 	lsr	x7, x10, #32
    5b88:	1a8734e8 	cinc	w8, w7, cs  // cs = hs, nlast
    5b8c:	b85e8087 	ldur	w7, [x4, #-24]
    5b90:	2b0500e5 	adds	w5, w7, w5
    5b94:	b81e8085 	stur	w5, [x4, #-24]
    5b98:	b85ec0c7 	ldur	w7, [x6, #-20]
    5b9c:	9ba77c6a 	umull	x10, w3, w7
    5ba0:	1a883507 	cinc	w7, w8, cs  // cs = hs, nlast
    5ba4:	2b0a00e7 	adds	w7, w7, w10
    5ba8:	d360fd45 	lsr	x5, x10, #32
    5bac:	1a8534a8 	cinc	w8, w5, cs  // cs = hs, nlast
    5bb0:	b85ec085 	ldur	w5, [x4, #-20]
    5bb4:	2b0700a7 	adds	w7, w5, w7
    5bb8:	b81ec087 	stur	w7, [x4, #-20]
/home/jayanth/quemu-v8/source/optee_os/lib/libmbedtls/mbedtls/library/bignum.c:1592 (discriminator 2)
    5bbc:	b85f00c5 	ldur	w5, [x6, #-16]
    5bc0:	9ba57c6a 	umull	x10, w3, w5
/home/jayanth/quemu-v8/source/optee_os/lib/libmbedtls/mbedtls/library/bignum.c:1591 (discriminator 2)
    5bc4:	1a883505 	cinc	w5, w8, cs  // cs = hs, nlast
    5bc8:	2b0a00a5 	adds	w5, w5, w10
/home/jayanth/quemu-v8/source/optee_os/lib/libmbedtls/mbedtls/library/bignum.c:1592 (discriminator 2)
    5bcc:	d360fd47 	lsr	x7, x10, #32
    5bd0:	1a8734e8 	cinc	w8, w7, cs  // cs = hs, nlast
    5bd4:	b85f0087 	ldur	w7, [x4, #-16]
    5bd8:	2b0500e5 	adds	w5, w7, w5
    5bdc:	b81f0085 	stur	w5, [x4, #-16]
    5be0:	b85f40c7 	ldur	w7, [x6, #-12]
    5be4:	9ba77c6a 	umull	x10, w3, w7
    5be8:	1a883507 	cinc	w7, w8, cs  // cs = hs, nlast
    5bec:	2b0a00e7 	adds	w7, w7, w10
    5bf0:	d360fd45 	lsr	x5, x10, #32
    5bf4:	1a8534a8 	cinc	w8, w5, cs  // cs = hs, nlast
    5bf8:	b85f4085 	ldur	w5, [x4, #-12]
    5bfc:	2b0700a7 	adds	w7, w5, w7
    5c00:	b81f4087 	stur	w7, [x4, #-12]
/home/jayanth/quemu-v8/source/optee_os/lib/libmbedtls/mbedtls/library/bignum.c:1593 (discriminator 2)
    5c04:	b85f80c5 	ldur	w5, [x6, #-8]
    5c08:	9ba57c6a 	umull	x10, w3, w5
/home/jayanth/quemu-v8/source/optee_os/lib/libmbedtls/mbedtls/library/bignum.c:1592 (discriminator 2)
    5c0c:	1a883505 	cinc	w5, w8, cs  // cs = hs, nlast
    5c10:	2b0a00a5 	adds	w5, w5, w10
/home/jayanth/quemu-v8/source/optee_os/lib/libmbedtls/mbedtls/library/bignum.c:1593 (discriminator 2)
    5c14:	d360fd47 	lsr	x7, x10, #32
    5c18:	1a8734e8 	cinc	w8, w7, cs  // cs = hs, nlast
    5c1c:	b85f8087 	ldur	w7, [x4, #-8]
    5c20:	2b0500e5 	adds	w5, w7, w5
    5c24:	b81f8085 	stur	w5, [x4, #-8]
    5c28:	b85fc0c7 	ldur	w7, [x6, #-4]
    5c2c:	9ba77c6a 	umull	x10, w3, w7
    5c30:	1a883507 	cinc	w7, w8, cs  // cs = hs, nlast
    5c34:	b85fc088 	ldur	w8, [x4, #-4]
    5c38:	2b0a00e7 	adds	w7, w7, w10
    5c3c:	d360fd45 	lsr	x5, x10, #32
    5c40:	1a8534a5 	cinc	w5, w5, cs  // cs = hs, nlast
    5c44:	2b070107 	adds	w7, w8, w7
    5c48:	1a8534a5 	cinc	w5, w5, cs  // cs = hs, nlast
    5c4c:	b81fc087 	stur	w7, [x4, #-4]
/home/jayanth/quemu-v8/source/optee_os/lib/libmbedtls/mbedtls/library/bignum.c:1582 (discriminator 2)
    5c50:	17ffff0e 	b	5888 <mpi_mul_hlp+0x10>
/home/jayanth/quemu-v8/source/optee_os/lib/libmbedtls/mbedtls/library/bignum.c:1611 (discriminator 2)
    5c54:	b86178c2 	ldr	w2, [x6, x1, lsl #2]
    5c58:	9ba27c62 	umull	x2, w3, w2
    5c5c:	d360fc48 	lsr	x8, x2, #32
    5c60:	2b0200a2 	adds	w2, w5, w2
    5c64:	1a883505 	cinc	w5, w8, cs  // cs = hs, nlast
    5c68:	2b0200e2 	adds	w2, w7, w2
    5c6c:	1a8534a5 	cinc	w5, w5, cs  // cs = hs, nlast
    5c70:	b8217882 	str	w2, [x4, x1, lsl #2]
/home/jayanth/quemu-v8/source/optee_os/lib/libmbedtls/mbedtls/library/bignum.c:1608 (discriminator 2)
    5c74:	91000421 	add	x1, x1, #0x1
    5c78:	17ffff5a 	b	59e0 <mpi_mul_hlp+0x168>

0000000000005c7c <mpi_bigendian_to_host.part.0>:
mpi_bigendian_to_host():
/home/jayanth/quemu-v8/source/optee_os/lib/libmbedtls/mbedtls/library/bignum.c:849
    5c7c:	d10043ff 	sub	sp, sp, #0x10
/home/jayanth/quemu-v8/source/optee_os/lib/libmbedtls/mbedtls/library/bignum.c:865
    5c80:	8b010801 	add	x1, x0, x1, lsl #2
    5c84:	d1001021 	sub	x1, x1, #0x4
mpi_uint_bigendian_to_host_c():
/home/jayanth/quemu-v8/source/optee_os/lib/libmbedtls/mbedtls/library/bignum.c:800
    5c88:	910033e5 	add	x5, sp, #0xc
mpi_bigendian_to_host():
/home/jayanth/quemu-v8/source/optee_os/lib/libmbedtls/mbedtls/library/bignum.c:865
    5c8c:	eb01001f 	cmp	x0, x1
    5c90:	54000069 	b.ls	5c9c <mpi_bigendian_to_host.part.0+0x20>  // b.plast
/home/jayanth/quemu-v8/source/optee_os/lib/libmbedtls/mbedtls/library/bignum.c:876
    5c94:	910043ff 	add	sp, sp, #0x10
    5c98:	d65f03c0 	ret
mpi_uint_bigendian_to_host():
/home/jayanth/quemu-v8/source/optee_os/lib/libmbedtls/mbedtls/library/bignum.c:846
    5c9c:	b9400002 	ldr	w2, [x0]
mpi_uint_bigendian_to_host_c():
/home/jayanth/quemu-v8/source/optee_os/lib/libmbedtls/mbedtls/library/bignum.c:795
    5ca0:	52800003 	mov	w3, #0x0                   	// #0
    5ca4:	b9000fe2 	str	w2, [sp, #12]
mpi_bigendian_to_host():
/home/jayanth/quemu-v8/source/optee_os/lib/libmbedtls/mbedtls/library/bignum.c:872
    5ca8:	d2800002 	mov	x2, #0x0                   	// #0
mpi_uint_bigendian_to_host_c():
/home/jayanth/quemu-v8/source/optee_os/lib/libmbedtls/mbedtls/library/bignum.c:800
    5cac:	38656844 	ldrb	w4, [x2, x5]
    5cb0:	91000442 	add	x2, x2, #0x1
/home/jayanth/quemu-v8/source/optee_os/lib/libmbedtls/mbedtls/library/bignum.c:797
    5cb4:	f100105f 	cmp	x2, #0x4
/home/jayanth/quemu-v8/source/optee_os/lib/libmbedtls/mbedtls/library/bignum.c:800
    5cb8:	2a032083 	orr	w3, w4, w3, lsl #8
/home/jayanth/quemu-v8/source/optee_os/lib/libmbedtls/mbedtls/library/bignum.c:797
    5cbc:	54ffff81 	b.ne	5cac <mpi_bigendian_to_host.part.0+0x30>  // b.any
mpi_uint_bigendian_to_host():
/home/jayanth/quemu-v8/source/optee_os/lib/libmbedtls/mbedtls/library/bignum.c:846
    5cc0:	b9400022 	ldr	w2, [x1]
mpi_uint_bigendian_to_host_c():
/home/jayanth/quemu-v8/source/optee_os/lib/libmbedtls/mbedtls/library/bignum.c:795
    5cc4:	52800004 	mov	w4, #0x0                   	// #0
    5cc8:	b9000fe2 	str	w2, [sp, #12]
mpi_bigendian_to_host():
/home/jayanth/quemu-v8/source/optee_os/lib/libmbedtls/mbedtls/library/bignum.c:873
    5ccc:	d2800002 	mov	x2, #0x0                   	// #0
mpi_uint_bigendian_to_host_c():
/home/jayanth/quemu-v8/source/optee_os/lib/libmbedtls/mbedtls/library/bignum.c:800
    5cd0:	386268a6 	ldrb	w6, [x5, x2]
    5cd4:	91000442 	add	x2, x2, #0x1
/home/jayanth/quemu-v8/source/optee_os/lib/libmbedtls/mbedtls/library/bignum.c:797
    5cd8:	f100105f 	cmp	x2, #0x4
/home/jayanth/quemu-v8/source/optee_os/lib/libmbedtls/mbedtls/library/bignum.c:800
    5cdc:	2a0420c4 	orr	w4, w6, w4, lsl #8
/home/jayanth/quemu-v8/source/optee_os/lib/libmbedtls/mbedtls/library/bignum.c:797
    5ce0:	54ffff81 	b.ne	5cd0 <mpi_bigendian_to_host.part.0+0x54>  // b.any
mpi_bigendian_to_host():
/home/jayanth/quemu-v8/source/optee_os/lib/libmbedtls/mbedtls/library/bignum.c:873
    5ce4:	b8004404 	str	w4, [x0], #4
/home/jayanth/quemu-v8/source/optee_os/lib/libmbedtls/mbedtls/library/bignum.c:874
    5ce8:	b81fc423 	str	w3, [x1], #-4
/home/jayanth/quemu-v8/source/optee_os/lib/libmbedtls/mbedtls/library/bignum.c:867
    5cec:	17ffffe8 	b	5c8c <mpi_bigendian_to_host.part.0+0x10>

0000000000005cf0 <mbedtls_mpi_init>:
mpi_init():
/home/jayanth/quemu-v8/source/optee_os/lib/libmbedtls/mbedtls/library/bignum.c:99
    5cf0:	52800021 	mov	w1, #0x1                   	// #1
    5cf4:	b9000001 	str	w1, [x0]
/home/jayanth/quemu-v8/source/optee_os/lib/libmbedtls/mbedtls/library/bignum.c:102
    5cf8:	a900fc1f 	stp	xzr, xzr, [x0, #8]
mbedtls_mpi_init():
/home/jayanth/quemu-v8/source/optee_os/lib/libmbedtls/mbedtls/library/bignum.c:108
    5cfc:	d65f03c0 	ret

0000000000005d00 <mbedtls_mpi_init_mempool>:
mbedtls_mpi_init_mempool():
/home/jayanth/quemu-v8/source/optee_os/lib/libmbedtls/mbedtls/library/bignum.c:112
    5d00:	90000041 	adrp	x1, d000 <_DYNAMIC>
mpi_init():
/home/jayanth/quemu-v8/source/optee_os/lib/libmbedtls/mbedtls/library/bignum.c:99
    5d04:	52800022 	mov	w2, #0x1                   	// #1
/home/jayanth/quemu-v8/source/optee_os/lib/libmbedtls/mbedtls/library/bignum.c:102
    5d08:	a900fc1f 	stp	xzr, xzr, [x0, #8]
mbedtls_mpi_init_mempool():
/home/jayanth/quemu-v8/source/optee_os/lib/libmbedtls/mbedtls/library/bignum.c:112
    5d0c:	f940c821 	ldr	x1, [x1, #400]
    5d10:	f9400021 	ldr	x1, [x1]
mpi_init():
/home/jayanth/quemu-v8/source/optee_os/lib/libmbedtls/mbedtls/library/bignum.c:99
    5d14:	79000002 	strh	w2, [x0]
mbedtls_mpi_init_mempool():
/home/jayanth/quemu-v8/source/optee_os/lib/libmbedtls/mbedtls/library/bignum.c:112
    5d18:	f100003f 	cmp	x1, #0x0
    5d1c:	1a9f07e1 	cset	w1, ne  // ne = any
mpi_init():
/home/jayanth/quemu-v8/source/optee_os/lib/libmbedtls/mbedtls/library/bignum.c:100
    5d20:	79000401 	strh	w1, [x0, #2]
mbedtls_mpi_init_mempool():
/home/jayanth/quemu-v8/source/optee_os/lib/libmbedtls/mbedtls/library/bignum.c:113
    5d24:	d65f03c0 	ret

0000000000005d28 <mbedtls_mpi_free>:
mbedtls_mpi_free():
/home/jayanth/quemu-v8/source/optee_os/lib/libmbedtls/mbedtls/library/bignum.c:120
    5d28:	b4000340 	cbz	x0, 5d90 <mbedtls_mpi_free+0x68>
/home/jayanth/quemu-v8/source/optee_os/lib/libmbedtls/mbedtls/library/bignum.c:119
    5d2c:	a9be7bfd 	stp	x29, x30, [sp, #-32]!
    5d30:	910003fd 	mov	x29, sp
    5d34:	f9000bf3 	str	x19, [sp, #16]
    5d38:	aa0003f3 	mov	x19, x0
/home/jayanth/quemu-v8/source/optee_os/lib/libmbedtls/mbedtls/library/bignum.c:123
    5d3c:	f9400800 	ldr	x0, [x0, #16]
    5d40:	b4000160 	cbz	x0, 5d6c <mbedtls_mpi_free+0x44>
mbedtls_mpi_zeroize():
/home/jayanth/quemu-v8/source/optee_os/lib/libmbedtls/mbedtls/library/bignum.c:89
    5d44:	f9400661 	ldr	x1, [x19, #8]
    5d48:	d37ef421 	lsl	x1, x1, #2
    5d4c:	94000dd9 	bl	94b0 <mbedtls_platform_zeroize>
mbedtls_mpi_free():
/home/jayanth/quemu-v8/source/optee_os/lib/libmbedtls/mbedtls/library/bignum.c:126
    5d50:	79c00660 	ldrsh	w0, [x19, #2]
    5d54:	34000180 	cbz	w0, 5d84 <mbedtls_mpi_free+0x5c>
/home/jayanth/quemu-v8/source/optee_os/lib/libmbedtls/mbedtls/library/bignum.c:127
    5d58:	90000040 	adrp	x0, d000 <_DYNAMIC>
    5d5c:	f9400a61 	ldr	x1, [x19, #16]
    5d60:	f940c800 	ldr	x0, [x0, #400]
    5d64:	f9400000 	ldr	x0, [x0]
    5d68:	94000e97 	bl	97c4 <mempool_free>
/home/jayanth/quemu-v8/source/optee_os/lib/libmbedtls/mbedtls/library/bignum.c:132
    5d6c:	52800020 	mov	w0, #0x1                   	// #1
    5d70:	79000260 	strh	w0, [x19]
/home/jayanth/quemu-v8/source/optee_os/lib/libmbedtls/mbedtls/library/bignum.c:134
    5d74:	a900fe7f 	stp	xzr, xzr, [x19, #8]
/home/jayanth/quemu-v8/source/optee_os/lib/libmbedtls/mbedtls/library/bignum.c:135
    5d78:	f9400bf3 	ldr	x19, [sp, #16]
    5d7c:	a8c27bfd 	ldp	x29, x30, [sp], #32
    5d80:	d65f03c0 	ret
/home/jayanth/quemu-v8/source/optee_os/lib/libmbedtls/mbedtls/library/bignum.c:129
    5d84:	f9400a60 	ldr	x0, [x19, #16]
    5d88:	97ffecc7 	bl	10a4 <free>
    5d8c:	17fffff8 	b	5d6c <mbedtls_mpi_free+0x44>
    5d90:	d65f03c0 	ret

0000000000005d94 <mbedtls_mpi_grow>:
mbedtls_mpi_grow():
/home/jayanth/quemu-v8/source/optee_os/lib/libmbedtls/mbedtls/library/bignum.c:141
    5d94:	a9bd7bfd 	stp	x29, x30, [sp, #-48]!
    5d98:	910003fd 	mov	x29, sp
    5d9c:	a90153f3 	stp	x19, x20, [sp, #16]
    5da0:	aa0003f3 	mov	x19, x0
/home/jayanth/quemu-v8/source/optee_os/lib/libmbedtls/mbedtls/library/bignum.c:145
    5da4:	d284e200 	mov	x0, #0x2710                	// #10000
/home/jayanth/quemu-v8/source/optee_os/lib/libmbedtls/mbedtls/library/bignum.c:141
    5da8:	a9025bf5 	stp	x21, x22, [sp, #32]
/home/jayanth/quemu-v8/source/optee_os/lib/libmbedtls/mbedtls/library/bignum.c:145
    5dac:	eb00003f 	cmp	x1, x0
    5db0:	540000c9 	b.ls	5dc8 <mbedtls_mpi_grow+0x34>  // b.plast
/home/jayanth/quemu-v8/source/optee_os/lib/libmbedtls/mbedtls/library/bignum.c:146
    5db4:	128001e0 	mov	w0, #0xfffffff0            	// #-16
/home/jayanth/quemu-v8/source/optee_os/lib/libmbedtls/mbedtls/library/bignum.c:179
    5db8:	a94153f3 	ldp	x19, x20, [sp, #16]
    5dbc:	a9425bf5 	ldp	x21, x22, [sp, #32]
    5dc0:	a8c37bfd 	ldp	x29, x30, [sp], #48
    5dc4:	d65f03c0 	ret
/home/jayanth/quemu-v8/source/optee_os/lib/libmbedtls/mbedtls/library/bignum.c:148
    5dc8:	f9400660 	ldr	x0, [x19, #8]
    5dcc:	aa0103f5 	mov	x21, x1
    5dd0:	eb01001f 	cmp	x0, x1
    5dd4:	540003e2 	b.cs	5e50 <mbedtls_mpi_grow+0xbc>  // b.hs, b.nlast
/home/jayanth/quemu-v8/source/optee_os/lib/libmbedtls/mbedtls/library/bignum.c:150
    5dd8:	79c00660 	ldrsh	w0, [x19, #2]
    5ddc:	340003e0 	cbz	w0, 5e58 <mbedtls_mpi_grow+0xc4>
/home/jayanth/quemu-v8/source/optee_os/lib/libmbedtls/mbedtls/library/bignum.c:152
    5de0:	90000040 	adrp	x0, d000 <_DYNAMIC>
    5de4:	d37ef436 	lsl	x22, x1, #2
    5de8:	aa1603e1 	mov	x1, x22
    5dec:	f940c800 	ldr	x0, [x0, #400]
    5df0:	f9400000 	ldr	x0, [x0]
    5df4:	94000e35 	bl	96c8 <mempool_alloc>
    5df8:	aa0003f4 	mov	x20, x0
/home/jayanth/quemu-v8/source/optee_os/lib/libmbedtls/mbedtls/library/bignum.c:153
    5dfc:	b4fffdc0 	cbz	x0, 5db4 <mbedtls_mpi_grow+0x20>
/home/jayanth/quemu-v8/source/optee_os/lib/libmbedtls/mbedtls/library/bignum.c:155
    5e00:	aa1603e2 	mov	x2, x22
    5e04:	52800001 	mov	w1, #0x0                   	// #0
    5e08:	97ffed74 	bl	13d8 <memset>
/home/jayanth/quemu-v8/source/optee_os/lib/libmbedtls/mbedtls/library/bignum.c:164
    5e0c:	f9400a61 	ldr	x1, [x19, #16]
    5e10:	b40001e1 	cbz	x1, 5e4c <mbedtls_mpi_grow+0xb8>
/home/jayanth/quemu-v8/source/optee_os/lib/libmbedtls/mbedtls/library/bignum.c:166
    5e14:	f9400662 	ldr	x2, [x19, #8]
    5e18:	aa1403e0 	mov	x0, x20
    5e1c:	d37ef442 	lsl	x2, x2, #2
    5e20:	97ffe880 	bl	20 <memcpy>
mbedtls_mpi_zeroize():
/home/jayanth/quemu-v8/source/optee_os/lib/libmbedtls/mbedtls/library/bignum.c:89
    5e24:	a9408261 	ldp	x1, x0, [x19, #8]
    5e28:	d37ef421 	lsl	x1, x1, #2
    5e2c:	94000da1 	bl	94b0 <mbedtls_platform_zeroize>
mbedtls_mpi_grow():
/home/jayanth/quemu-v8/source/optee_os/lib/libmbedtls/mbedtls/library/bignum.c:168
    5e30:	79c00660 	ldrsh	w0, [x19, #2]
    5e34:	340001e0 	cbz	w0, 5e70 <mbedtls_mpi_grow+0xdc>
/home/jayanth/quemu-v8/source/optee_os/lib/libmbedtls/mbedtls/library/bignum.c:169
    5e38:	90000040 	adrp	x0, d000 <_DYNAMIC>
    5e3c:	f9400a61 	ldr	x1, [x19, #16]
    5e40:	f940c800 	ldr	x0, [x0, #400]
    5e44:	f9400000 	ldr	x0, [x0]
    5e48:	94000e5f 	bl	97c4 <mempool_free>
/home/jayanth/quemu-v8/source/optee_os/lib/libmbedtls/mbedtls/library/bignum.c:175
    5e4c:	a900d275 	stp	x21, x20, [x19, #8]
/home/jayanth/quemu-v8/source/optee_os/lib/libmbedtls/mbedtls/library/bignum.c:178
    5e50:	52800000 	mov	w0, #0x0                   	// #0
    5e54:	17ffffd9 	b	5db8 <mbedtls_mpi_grow+0x24>
/home/jayanth/quemu-v8/source/optee_os/lib/libmbedtls/mbedtls/library/bignum.c:159
    5e58:	aa1503e0 	mov	x0, x21
    5e5c:	d2800081 	mov	x1, #0x4                   	// #4
    5e60:	97ffec43 	bl	f6c <calloc>
    5e64:	aa0003f4 	mov	x20, x0
/home/jayanth/quemu-v8/source/optee_os/lib/libmbedtls/mbedtls/library/bignum.c:160
    5e68:	b5fffd20 	cbnz	x0, 5e0c <mbedtls_mpi_grow+0x78>
    5e6c:	17ffffd2 	b	5db4 <mbedtls_mpi_grow+0x20>
/home/jayanth/quemu-v8/source/optee_os/lib/libmbedtls/mbedtls/library/bignum.c:171
    5e70:	f9400a60 	ldr	x0, [x19, #16]
    5e74:	97ffec8c 	bl	10a4 <free>
    5e78:	17fffff5 	b	5e4c <mbedtls_mpi_grow+0xb8>

0000000000005e7c <mbedtls_mpi_shrink>:
mbedtls_mpi_shrink():
/home/jayanth/quemu-v8/source/optee_os/lib/libmbedtls/mbedtls/library/bignum.c:191
    5e7c:	d284e202 	mov	x2, #0x2710                	// #10000
    5e80:	eb02003f 	cmp	x1, x2
    5e84:	54000069 	b.ls	5e90 <mbedtls_mpi_shrink+0x14>  // b.plast
/home/jayanth/quemu-v8/source/optee_os/lib/libmbedtls/mbedtls/library/bignum.c:192
    5e88:	128001e0 	mov	w0, #0xfffffff0            	// #-16
/home/jayanth/quemu-v8/source/optee_os/lib/libmbedtls/mbedtls/library/bignum.c:235
    5e8c:	d65f03c0 	ret
/home/jayanth/quemu-v8/source/optee_os/lib/libmbedtls/mbedtls/library/bignum.c:186
    5e90:	a9bd7bfd 	stp	x29, x30, [sp, #-48]!
    5e94:	910003fd 	mov	x29, sp
/home/jayanth/quemu-v8/source/optee_os/lib/libmbedtls/mbedtls/library/bignum.c:195
    5e98:	f9400402 	ldr	x2, [x0, #8]
/home/jayanth/quemu-v8/source/optee_os/lib/libmbedtls/mbedtls/library/bignum.c:186
    5e9c:	a90153f3 	stp	x19, x20, [sp, #16]
    5ea0:	aa0003f3 	mov	x19, x0
    5ea4:	a9025bf5 	stp	x21, x22, [sp, #32]
    5ea8:	aa0103f4 	mov	x20, x1
/home/jayanth/quemu-v8/source/optee_os/lib/libmbedtls/mbedtls/library/bignum.c:195
    5eac:	eb01005f 	cmp	x2, x1
    5eb0:	540000a8 	b.hi	5ec4 <mbedtls_mpi_shrink+0x48>  // b.pmore
/home/jayanth/quemu-v8/source/optee_os/lib/libmbedtls/mbedtls/library/bignum.c:235
    5eb4:	a94153f3 	ldp	x19, x20, [sp, #16]
    5eb8:	a9425bf5 	ldp	x21, x22, [sp, #32]
    5ebc:	a8c37bfd 	ldp	x29, x30, [sp], #48
/home/jayanth/quemu-v8/source/optee_os/lib/libmbedtls/mbedtls/library/bignum.c:196
    5ec0:	17ffffb5 	b	5d94 <mbedtls_mpi_grow>
/home/jayanth/quemu-v8/source/optee_os/lib/libmbedtls/mbedtls/library/bignum.c:199
    5ec4:	d1000440 	sub	x0, x2, #0x1
/home/jayanth/quemu-v8/source/optee_os/lib/libmbedtls/mbedtls/library/bignum.c:199 (discriminator 1)
    5ec8:	b5000460 	cbnz	x0, 5f54 <mbedtls_mpi_shrink+0xd8>
/home/jayanth/quemu-v8/source/optee_os/lib/libmbedtls/mbedtls/library/bignum.c:202
    5ecc:	91000400 	add	x0, x0, #0x1
/home/jayanth/quemu-v8/source/optee_os/lib/libmbedtls/mbedtls/library/bignum.c:204
    5ed0:	eb00029f 	cmp	x20, x0
    5ed4:	9a802294 	csel	x20, x20, x0, cs  // cs = hs, nlast
/home/jayanth/quemu-v8/source/optee_os/lib/libmbedtls/mbedtls/library/bignum.c:207
    5ed8:	79c00660 	ldrsh	w0, [x19, #2]
    5edc:	34000460 	cbz	w0, 5f68 <mbedtls_mpi_shrink+0xec>
/home/jayanth/quemu-v8/source/optee_os/lib/libmbedtls/mbedtls/library/bignum.c:209
    5ee0:	90000040 	adrp	x0, d000 <_DYNAMIC>
    5ee4:	d37ef696 	lsl	x22, x20, #2
    5ee8:	aa1603e1 	mov	x1, x22
    5eec:	f940c800 	ldr	x0, [x0, #400]
    5ef0:	f9400000 	ldr	x0, [x0]
    5ef4:	94000df5 	bl	96c8 <mempool_alloc>
    5ef8:	aa0003f5 	mov	x21, x0
/home/jayanth/quemu-v8/source/optee_os/lib/libmbedtls/mbedtls/library/bignum.c:210
    5efc:	b4000400 	cbz	x0, 5f7c <mbedtls_mpi_shrink+0x100>
/home/jayanth/quemu-v8/source/optee_os/lib/libmbedtls/mbedtls/library/bignum.c:212
    5f00:	aa1603e2 	mov	x2, x22
    5f04:	52800001 	mov	w1, #0x0                   	// #0
    5f08:	97ffed34 	bl	13d8 <memset>
/home/jayanth/quemu-v8/source/optee_os/lib/libmbedtls/mbedtls/library/bignum.c:221
    5f0c:	f9400a61 	ldr	x1, [x19, #16]
    5f10:	b40001c1 	cbz	x1, 5f48 <mbedtls_mpi_shrink+0xcc>
/home/jayanth/quemu-v8/source/optee_os/lib/libmbedtls/mbedtls/library/bignum.c:223
    5f14:	d37ef682 	lsl	x2, x20, #2
    5f18:	aa1503e0 	mov	x0, x21
    5f1c:	97ffe841 	bl	20 <memcpy>
mbedtls_mpi_zeroize():
/home/jayanth/quemu-v8/source/optee_os/lib/libmbedtls/mbedtls/library/bignum.c:89
    5f20:	a9408261 	ldp	x1, x0, [x19, #8]
    5f24:	d37ef421 	lsl	x1, x1, #2
    5f28:	94000d62 	bl	94b0 <mbedtls_platform_zeroize>
mbedtls_mpi_shrink():
/home/jayanth/quemu-v8/source/optee_os/lib/libmbedtls/mbedtls/library/bignum.c:225
    5f2c:	79c00660 	ldrsh	w0, [x19, #2]
    5f30:	34000300 	cbz	w0, 5f90 <mbedtls_mpi_shrink+0x114>
/home/jayanth/quemu-v8/source/optee_os/lib/libmbedtls/mbedtls/library/bignum.c:226
    5f34:	90000040 	adrp	x0, d000 <_DYNAMIC>
    5f38:	f9400a61 	ldr	x1, [x19, #16]
    5f3c:	f940c800 	ldr	x0, [x0, #400]
    5f40:	f9400000 	ldr	x0, [x0]
    5f44:	94000e20 	bl	97c4 <mempool_free>
/home/jayanth/quemu-v8/source/optee_os/lib/libmbedtls/mbedtls/library/bignum.c:234
    5f48:	52800000 	mov	w0, #0x0                   	// #0
/home/jayanth/quemu-v8/source/optee_os/lib/libmbedtls/mbedtls/library/bignum.c:232
    5f4c:	a900d674 	stp	x20, x21, [x19, #8]
/home/jayanth/quemu-v8/source/optee_os/lib/libmbedtls/mbedtls/library/bignum.c:234
    5f50:	1400000c 	b	5f80 <mbedtls_mpi_shrink+0x104>
/home/jayanth/quemu-v8/source/optee_os/lib/libmbedtls/mbedtls/library/bignum.c:200
    5f54:	f9400a61 	ldr	x1, [x19, #16]
    5f58:	b8607821 	ldr	w1, [x1, x0, lsl #2]
    5f5c:	35fffb81 	cbnz	w1, 5ecc <mbedtls_mpi_shrink+0x50>
/home/jayanth/quemu-v8/source/optee_os/lib/libmbedtls/mbedtls/library/bignum.c:199 (discriminator 2)
    5f60:	d1000400 	sub	x0, x0, #0x1
    5f64:	17ffffd9 	b	5ec8 <mbedtls_mpi_shrink+0x4c>
/home/jayanth/quemu-v8/source/optee_os/lib/libmbedtls/mbedtls/library/bignum.c:216
    5f68:	aa1403e0 	mov	x0, x20
    5f6c:	d2800081 	mov	x1, #0x4                   	// #4
    5f70:	97ffebff 	bl	f6c <calloc>
    5f74:	aa0003f5 	mov	x21, x0
/home/jayanth/quemu-v8/source/optee_os/lib/libmbedtls/mbedtls/library/bignum.c:217
    5f78:	b5fffca0 	cbnz	x0, 5f0c <mbedtls_mpi_shrink+0x90>
/home/jayanth/quemu-v8/source/optee_os/lib/libmbedtls/mbedtls/library/bignum.c:192
    5f7c:	128001e0 	mov	w0, #0xfffffff0            	// #-16
/home/jayanth/quemu-v8/source/optee_os/lib/libmbedtls/mbedtls/library/bignum.c:235
    5f80:	a94153f3 	ldp	x19, x20, [sp, #16]
    5f84:	a9425bf5 	ldp	x21, x22, [sp, #32]
    5f88:	a8c37bfd 	ldp	x29, x30, [sp], #48
    5f8c:	d65f03c0 	ret
/home/jayanth/quemu-v8/source/optee_os/lib/libmbedtls/mbedtls/library/bignum.c:228
    5f90:	f9400a60 	ldr	x0, [x19, #16]
    5f94:	97ffec44 	bl	10a4 <free>
    5f98:	17ffffec 	b	5f48 <mbedtls_mpi_shrink+0xcc>

0000000000005f9c <mbedtls_mpi_copy>:
mbedtls_mpi_copy():
/home/jayanth/quemu-v8/source/optee_os/lib/libmbedtls/mbedtls/library/bignum.c:247
    5f9c:	eb01001f 	cmp	x0, x1
    5fa0:	54000540 	b.eq	6048 <mbedtls_mpi_copy+0xac>  // b.none
/home/jayanth/quemu-v8/source/optee_os/lib/libmbedtls/mbedtls/library/bignum.c:241
    5fa4:	a9bd7bfd 	stp	x29, x30, [sp, #-48]!
    5fa8:	910003fd 	mov	x29, sp
    5fac:	a90153f3 	stp	x19, x20, [sp, #16]
/home/jayanth/quemu-v8/source/optee_os/lib/libmbedtls/mbedtls/library/bignum.c:250
    5fb0:	f9400433 	ldr	x19, [x1, #8]
/home/jayanth/quemu-v8/source/optee_os/lib/libmbedtls/mbedtls/library/bignum.c:241
    5fb4:	f90013f5 	str	x21, [sp, #32]
    5fb8:	aa0103f5 	mov	x21, x1
/home/jayanth/quemu-v8/source/optee_os/lib/libmbedtls/mbedtls/library/bignum.c:250
    5fbc:	b5000093 	cbnz	x19, 5fcc <mbedtls_mpi_copy+0x30>
/home/jayanth/quemu-v8/source/optee_os/lib/libmbedtls/mbedtls/library/bignum.c:252
    5fc0:	97ffff5a 	bl	5d28 <mbedtls_mpi_free>
/home/jayanth/quemu-v8/source/optee_os/lib/libmbedtls/mbedtls/library/bignum.c:272
    5fc4:	52800000 	mov	w0, #0x0                   	// #0
    5fc8:	14000011 	b	600c <mbedtls_mpi_copy+0x70>
    5fcc:	aa0003f4 	mov	x20, x0
/home/jayanth/quemu-v8/source/optee_os/lib/libmbedtls/mbedtls/library/bignum.c:256 (discriminator 2)
    5fd0:	d1000673 	sub	x19, x19, #0x1
    5fd4:	b4000093 	cbz	x19, 5fe4 <mbedtls_mpi_copy+0x48>
/home/jayanth/quemu-v8/source/optee_os/lib/libmbedtls/mbedtls/library/bignum.c:257
    5fd8:	f9400aa0 	ldr	x0, [x21, #16]
    5fdc:	b8737800 	ldr	w0, [x0, x19, lsl #2]
    5fe0:	34ffff80 	cbz	w0, 5fd0 <mbedtls_mpi_copy+0x34>
/home/jayanth/quemu-v8/source/optee_os/lib/libmbedtls/mbedtls/library/bignum.c:261
    5fe4:	79c002a0 	ldrsh	w0, [x21]
/home/jayanth/quemu-v8/source/optee_os/lib/libmbedtls/mbedtls/library/bignum.c:259
    5fe8:	91000673 	add	x19, x19, #0x1
/home/jayanth/quemu-v8/source/optee_os/lib/libmbedtls/mbedtls/library/bignum.c:263
    5fec:	f9400682 	ldr	x2, [x20, #8]
/home/jayanth/quemu-v8/source/optee_os/lib/libmbedtls/mbedtls/library/bignum.c:261
    5ff0:	79000280 	strh	w0, [x20]
/home/jayanth/quemu-v8/source/optee_os/lib/libmbedtls/mbedtls/library/bignum.c:263
    5ff4:	eb13005f 	cmp	x2, x19
    5ff8:	54000122 	b.cs	601c <mbedtls_mpi_copy+0x80>  // b.hs, b.nlast
/home/jayanth/quemu-v8/source/optee_os/lib/libmbedtls/mbedtls/library/bignum.c:265
    5ffc:	aa1303e1 	mov	x1, x19
    6000:	aa1403e0 	mov	x0, x20
    6004:	97ffff64 	bl	5d94 <mbedtls_mpi_grow>
    6008:	34000160 	cbz	w0, 6034 <mbedtls_mpi_copy+0x98>
/home/jayanth/quemu-v8/source/optee_os/lib/libmbedtls/mbedtls/library/bignum.c:277
    600c:	a94153f3 	ldp	x19, x20, [sp, #16]
    6010:	f94013f5 	ldr	x21, [sp, #32]
    6014:	a8c37bfd 	ldp	x29, x30, [sp], #48
    6018:	d65f03c0 	ret
/home/jayanth/quemu-v8/source/optee_os/lib/libmbedtls/mbedtls/library/bignum.c:269
    601c:	f9400a80 	ldr	x0, [x20, #16]
    6020:	cb130042 	sub	x2, x2, x19
    6024:	52800001 	mov	w1, #0x0                   	// #0
    6028:	d37ef442 	lsl	x2, x2, #2
    602c:	8b130800 	add	x0, x0, x19, lsl #2
    6030:	97ffecea 	bl	13d8 <memset>
/home/jayanth/quemu-v8/source/optee_os/lib/libmbedtls/mbedtls/library/bignum.c:272
    6034:	f9400a80 	ldr	x0, [x20, #16]
    6038:	d37ef662 	lsl	x2, x19, #2
    603c:	f9400aa1 	ldr	x1, [x21, #16]
    6040:	97ffe7f8 	bl	20 <memcpy>
    6044:	17ffffe0 	b	5fc4 <mbedtls_mpi_copy+0x28>
/home/jayanth/quemu-v8/source/optee_os/lib/libmbedtls/mbedtls/library/bignum.c:248
    6048:	52800000 	mov	w0, #0x0                   	// #0
/home/jayanth/quemu-v8/source/optee_os/lib/libmbedtls/mbedtls/library/bignum.c:277
    604c:	d65f03c0 	ret

0000000000006050 <mbedtls_mpi_swap>:
mbedtls_mpi_swap():
/home/jayanth/quemu-v8/source/optee_os/lib/libmbedtls/mbedtls/library/bignum.c:283
    6050:	a9bb7bfd 	stp	x29, x30, [sp, #-80]!
    6054:	910003fd 	mov	x29, sp
    6058:	a90153f3 	stp	x19, x20, [sp, #16]
/home/jayanth/quemu-v8/source/optee_os/lib/libmbedtls/mbedtls/library/bignum.c:288
    605c:	9100e3f4 	add	x20, sp, #0x38
/home/jayanth/quemu-v8/source/optee_os/lib/libmbedtls/mbedtls/library/bignum.c:283
    6060:	aa0103f3 	mov	x19, x1
/home/jayanth/quemu-v8/source/optee_os/lib/libmbedtls/mbedtls/library/bignum.c:288
    6064:	aa0003e1 	mov	x1, x0
/home/jayanth/quemu-v8/source/optee_os/lib/libmbedtls/mbedtls/library/bignum.c:283
    6068:	a9025bf5 	stp	x21, x22, [sp, #32]
/home/jayanth/quemu-v8/source/optee_os/lib/libmbedtls/mbedtls/library/bignum.c:288
    606c:	d2800316 	mov	x22, #0x18                  	// #24
/home/jayanth/quemu-v8/source/optee_os/lib/libmbedtls/mbedtls/library/bignum.c:283
    6070:	aa0003f5 	mov	x21, x0
/home/jayanth/quemu-v8/source/optee_os/lib/libmbedtls/mbedtls/library/bignum.c:288
    6074:	aa1603e2 	mov	x2, x22
    6078:	aa1403e0 	mov	x0, x20
    607c:	97ffe7e9 	bl	20 <memcpy>
/home/jayanth/quemu-v8/source/optee_os/lib/libmbedtls/mbedtls/library/bignum.c:289
    6080:	aa1603e2 	mov	x2, x22
    6084:	aa1303e1 	mov	x1, x19
    6088:	aa1503e0 	mov	x0, x21
    608c:	97ffe7e5 	bl	20 <memcpy>
/home/jayanth/quemu-v8/source/optee_os/lib/libmbedtls/mbedtls/library/bignum.c:290
    6090:	aa1603e2 	mov	x2, x22
    6094:	aa1403e1 	mov	x1, x20
    6098:	aa1303e0 	mov	x0, x19
    609c:	97ffe7e1 	bl	20 <memcpy>
/home/jayanth/quemu-v8/source/optee_os/lib/libmbedtls/mbedtls/library/bignum.c:291
    60a0:	a94153f3 	ldp	x19, x20, [sp, #16]
    60a4:	a9425bf5 	ldp	x21, x22, [sp, #32]
    60a8:	a8c57bfd 	ldp	x29, x30, [sp], #80
    60ac:	d65f03c0 	ret

00000000000060b0 <mbedtls_mpi_safe_cond_assign>:
mbedtls_mpi_safe_cond_assign():
/home/jayanth/quemu-v8/source/optee_os/lib/libmbedtls/mbedtls/library/bignum.c:299
    60b0:	a9bd7bfd 	stp	x29, x30, [sp, #-48]!
    60b4:	910003fd 	mov	x29, sp
    60b8:	f90013f5 	str	x21, [sp, #32]
    60bc:	aa0103f5 	mov	x21, x1
/home/jayanth/quemu-v8/source/optee_os/lib/libmbedtls/mbedtls/library/bignum.c:308
    60c0:	f9400421 	ldr	x1, [x1, #8]
/home/jayanth/quemu-v8/source/optee_os/lib/libmbedtls/mbedtls/library/bignum.c:299
    60c4:	a90153f3 	stp	x19, x20, [sp, #16]
    60c8:	aa0003f4 	mov	x20, x0
    60cc:	12001c53 	and	w19, w2, #0xff
/home/jayanth/quemu-v8/source/optee_os/lib/libmbedtls/mbedtls/library/bignum.c:308
    60d0:	97ffff31 	bl	5d94 <mbedtls_mpi_grow>
    60d4:	35000240 	cbnz	w0, 611c <mbedtls_mpi_safe_cond_assign+0x6c>
/home/jayanth/quemu-v8/source/optee_os/lib/libmbedtls/mbedtls/library/bignum.c:306 (discriminator 2)
    60d8:	4b1303e2 	neg	w2, w19
/home/jayanth/quemu-v8/source/optee_os/lib/libmbedtls/mbedtls/library/bignum.c:310 (discriminator 2)
    60dc:	794002a4 	ldrh	w4, [x21]
/home/jayanth/quemu-v8/source/optee_os/lib/libmbedtls/mbedtls/library/bignum.c:306 (discriminator 2)
    60e0:	2a020262 	orr	w2, w19, w2
/home/jayanth/quemu-v8/source/optee_os/lib/libmbedtls/mbedtls/library/bignum.c:310 (discriminator 2)
    60e4:	79400283 	ldrh	w3, [x20]
    60e8:	52800021 	mov	w1, #0x1                   	// #1
/home/jayanth/quemu-v8/source/optee_os/lib/libmbedtls/mbedtls/library/bignum.c:306 (discriminator 2)
    60ec:	d3471c42 	ubfx	x2, x2, #7, #1
/home/jayanth/quemu-v8/source/optee_os/lib/libmbedtls/mbedtls/library/bignum.c:310 (discriminator 2)
    60f0:	4b020021 	sub	w1, w1, w2
/home/jayanth/quemu-v8/source/optee_os/lib/libmbedtls/mbedtls/library/bignum.c:312 (discriminator 2)
    60f4:	f94006a8 	ldr	x8, [x21, #8]
/home/jayanth/quemu-v8/source/optee_os/lib/libmbedtls/mbedtls/library/bignum.c:310 (discriminator 2)
    60f8:	1b047c44 	mul	w4, w2, w4
    60fc:	1b031023 	madd	w3, w1, w3, w4
    6100:	79000283 	strh	w3, [x20]
/home/jayanth/quemu-v8/source/optee_os/lib/libmbedtls/mbedtls/library/bignum.c:312 (discriminator 2)
    6104:	d2800003 	mov	x3, #0x0                   	// #0
/home/jayanth/quemu-v8/source/optee_os/lib/libmbedtls/mbedtls/library/bignum.c:312 (discriminator 1)
    6108:	eb03011f 	cmp	x8, x3
    610c:	54000101 	b.ne	612c <mbedtls_mpi_safe_cond_assign+0x7c>  // b.any
/home/jayanth/quemu-v8/source/optee_os/lib/libmbedtls/mbedtls/library/bignum.c:315
    6110:	f9400686 	ldr	x6, [x20, #8]
/home/jayanth/quemu-v8/source/optee_os/lib/libmbedtls/mbedtls/library/bignum.c:315 (discriminator 1)
    6114:	eb0300df 	cmp	x6, x3
    6118:	540001e8 	b.hi	6154 <mbedtls_mpi_safe_cond_assign+0xa4>  // b.pmore
/home/jayanth/quemu-v8/source/optee_os/lib/libmbedtls/mbedtls/library/bignum.c:320
    611c:	a94153f3 	ldp	x19, x20, [sp, #16]
    6120:	f94013f5 	ldr	x21, [sp, #32]
    6124:	a8c37bfd 	ldp	x29, x30, [sp], #48
    6128:	d65f03c0 	ret
/home/jayanth/quemu-v8/source/optee_os/lib/libmbedtls/mbedtls/library/bignum.c:313 (discriminator 3)
    612c:	f9400a87 	ldr	x7, [x20, #16]
    6130:	d37ef464 	lsl	x4, x3, #2
    6134:	f9400aa5 	ldr	x5, [x21, #16]
/home/jayanth/quemu-v8/source/optee_os/lib/libmbedtls/mbedtls/library/bignum.c:312 (discriminator 3)
    6138:	91000463 	add	x3, x3, #0x1
/home/jayanth/quemu-v8/source/optee_os/lib/libmbedtls/mbedtls/library/bignum.c:313 (discriminator 3)
    613c:	b86468e6 	ldr	w6, [x7, x4]
    6140:	b86468a5 	ldr	w5, [x5, x4]
    6144:	1b067c26 	mul	w6, w1, w6
    6148:	1b051845 	madd	w5, w2, w5, w6
    614c:	b82468e5 	str	w5, [x7, x4]
/home/jayanth/quemu-v8/source/optee_os/lib/libmbedtls/mbedtls/library/bignum.c:312 (discriminator 3)
    6150:	17ffffee 	b	6108 <mbedtls_mpi_safe_cond_assign+0x58>
/home/jayanth/quemu-v8/source/optee_os/lib/libmbedtls/mbedtls/library/bignum.c:316 (discriminator 2)
    6154:	f9400a85 	ldr	x5, [x20, #16]
    6158:	d37ef464 	lsl	x4, x3, #2
/home/jayanth/quemu-v8/source/optee_os/lib/libmbedtls/mbedtls/library/bignum.c:315 (discriminator 2)
    615c:	91000463 	add	x3, x3, #0x1
/home/jayanth/quemu-v8/source/optee_os/lib/libmbedtls/mbedtls/library/bignum.c:316 (discriminator 2)
    6160:	b86468a2 	ldr	w2, [x5, x4]
    6164:	1b017c42 	mul	w2, w2, w1
    6168:	b82468a2 	str	w2, [x5, x4]
/home/jayanth/quemu-v8/source/optee_os/lib/libmbedtls/mbedtls/library/bignum.c:315 (discriminator 2)
    616c:	17ffffea 	b	6114 <mbedtls_mpi_safe_cond_assign+0x64>

0000000000006170 <mbedtls_mpi_safe_cond_swap>:
mbedtls_mpi_safe_cond_swap():
/home/jayanth/quemu-v8/source/optee_os/lib/libmbedtls/mbedtls/library/bignum.c:336
    6170:	eb01001f 	cmp	x0, x1
    6174:	54000061 	b.ne	6180 <mbedtls_mpi_safe_cond_swap+0x10>  // b.any
/home/jayanth/quemu-v8/source/optee_os/lib/libmbedtls/mbedtls/library/bignum.c:337
    6178:	52800000 	mov	w0, #0x0                   	// #0
/home/jayanth/quemu-v8/source/optee_os/lib/libmbedtls/mbedtls/library/bignum.c:359
    617c:	d65f03c0 	ret
/home/jayanth/quemu-v8/source/optee_os/lib/libmbedtls/mbedtls/library/bignum.c:329
    6180:	a9bd7bfd 	stp	x29, x30, [sp, #-48]!
    6184:	910003fd 	mov	x29, sp
    6188:	a90153f3 	stp	x19, x20, [sp, #16]
    618c:	aa0103f4 	mov	x20, x1
    6190:	12001c53 	and	w19, w2, #0xff
/home/jayanth/quemu-v8/source/optee_os/lib/libmbedtls/mbedtls/library/bignum.c:342
    6194:	f9400421 	ldr	x1, [x1, #8]
/home/jayanth/quemu-v8/source/optee_os/lib/libmbedtls/mbedtls/library/bignum.c:329
    6198:	f90013f5 	str	x21, [sp, #32]
    619c:	aa0003f5 	mov	x21, x0
/home/jayanth/quemu-v8/source/optee_os/lib/libmbedtls/mbedtls/library/bignum.c:342
    61a0:	97fffefd 	bl	5d94 <mbedtls_mpi_grow>
    61a4:	35000320 	cbnz	w0, 6208 <mbedtls_mpi_safe_cond_swap+0x98>
/home/jayanth/quemu-v8/source/optee_os/lib/libmbedtls/mbedtls/library/bignum.c:343 (discriminator 2)
    61a8:	f94006a1 	ldr	x1, [x21, #8]
    61ac:	aa1403e0 	mov	x0, x20
    61b0:	97fffef9 	bl	5d94 <mbedtls_mpi_grow>
    61b4:	350002a0 	cbnz	w0, 6208 <mbedtls_mpi_safe_cond_swap+0x98>
/home/jayanth/quemu-v8/source/optee_os/lib/libmbedtls/mbedtls/library/bignum.c:340 (discriminator 2)
    61b8:	4b1303e2 	neg	w2, w19
/home/jayanth/quemu-v8/source/optee_os/lib/libmbedtls/mbedtls/library/bignum.c:346 (discriminator 2)
    61bc:	794002a3 	ldrh	w3, [x21]
/home/jayanth/quemu-v8/source/optee_os/lib/libmbedtls/mbedtls/library/bignum.c:340 (discriminator 2)
    61c0:	2a020262 	orr	w2, w19, w2
/home/jayanth/quemu-v8/source/optee_os/lib/libmbedtls/mbedtls/library/bignum.c:346 (discriminator 2)
    61c4:	52800020 	mov	w0, #0x1                   	// #1
    61c8:	79400284 	ldrh	w4, [x20]
/home/jayanth/quemu-v8/source/optee_os/lib/libmbedtls/mbedtls/library/bignum.c:340 (discriminator 2)
    61cc:	d3471c42 	ubfx	x2, x2, #7, #1
/home/jayanth/quemu-v8/source/optee_os/lib/libmbedtls/mbedtls/library/bignum.c:346 (discriminator 2)
    61d0:	4b020000 	sub	w0, w0, w2
    61d4:	12003c01 	and	w1, w0, #0xffff
/home/jayanth/quemu-v8/source/optee_os/lib/libmbedtls/mbedtls/library/bignum.c:350 (discriminator 2)
    61d8:	f94006a8 	ldr	x8, [x21, #8]
/home/jayanth/quemu-v8/source/optee_os/lib/libmbedtls/mbedtls/library/bignum.c:346 (discriminator 2)
    61dc:	1b017c65 	mul	w5, w3, w1
    61e0:	1b041444 	madd	w4, w2, w4, w5
    61e4:	790002a4 	strh	w4, [x21]
/home/jayanth/quemu-v8/source/optee_os/lib/libmbedtls/mbedtls/library/bignum.c:347 (discriminator 2)
    61e8:	1b027c63 	mul	w3, w3, w2
    61ec:	79400284 	ldrh	w4, [x20]
    61f0:	1b040c21 	madd	w1, w1, w4, w3
/home/jayanth/quemu-v8/source/optee_os/lib/libmbedtls/mbedtls/library/bignum.c:350 (discriminator 2)
    61f4:	d2800003 	mov	x3, #0x0                   	// #0
/home/jayanth/quemu-v8/source/optee_os/lib/libmbedtls/mbedtls/library/bignum.c:347 (discriminator 2)
    61f8:	79000281 	strh	w1, [x20]
/home/jayanth/quemu-v8/source/optee_os/lib/libmbedtls/mbedtls/library/bignum.c:350 (discriminator 1)
    61fc:	eb03011f 	cmp	x8, x3
    6200:	540000c1 	b.ne	6218 <mbedtls_mpi_safe_cond_swap+0xa8>  // b.any
/home/jayanth/quemu-v8/source/optee_os/lib/libmbedtls/mbedtls/library/bignum.c:337
    6204:	52800000 	mov	w0, #0x0                   	// #0
/home/jayanth/quemu-v8/source/optee_os/lib/libmbedtls/mbedtls/library/bignum.c:359
    6208:	a94153f3 	ldp	x19, x20, [sp, #16]
    620c:	f94013f5 	ldr	x21, [sp, #32]
    6210:	a8c37bfd 	ldp	x29, x30, [sp], #48
    6214:	d65f03c0 	ret
/home/jayanth/quemu-v8/source/optee_os/lib/libmbedtls/mbedtls/library/bignum.c:352 (discriminator 3)
    6218:	f9400aa7 	ldr	x7, [x21, #16]
    621c:	d37ef461 	lsl	x1, x3, #2
/home/jayanth/quemu-v8/source/optee_os/lib/libmbedtls/mbedtls/library/bignum.c:353 (discriminator 3)
    6220:	f9400a85 	ldr	x5, [x20, #16]
/home/jayanth/quemu-v8/source/optee_os/lib/libmbedtls/mbedtls/library/bignum.c:350 (discriminator 3)
    6224:	91000463 	add	x3, x3, #0x1
/home/jayanth/quemu-v8/source/optee_os/lib/libmbedtls/mbedtls/library/bignum.c:352 (discriminator 3)
    6228:	b86168e4 	ldr	w4, [x7, x1]
/home/jayanth/quemu-v8/source/optee_os/lib/libmbedtls/mbedtls/library/bignum.c:353 (discriminator 3)
    622c:	b86168a6 	ldr	w6, [x5, x1]
    6230:	1b047c09 	mul	w9, w0, w4
/home/jayanth/quemu-v8/source/optee_os/lib/libmbedtls/mbedtls/library/bignum.c:354 (discriminator 3)
    6234:	1b047c44 	mul	w4, w2, w4
/home/jayanth/quemu-v8/source/optee_os/lib/libmbedtls/mbedtls/library/bignum.c:353 (discriminator 3)
    6238:	1b062446 	madd	w6, w2, w6, w9
    623c:	b82168e6 	str	w6, [x7, x1]
/home/jayanth/quemu-v8/source/optee_os/lib/libmbedtls/mbedtls/library/bignum.c:354 (discriminator 3)
    6240:	b86168a6 	ldr	w6, [x5, x1]
    6244:	1b061004 	madd	w4, w0, w6, w4
    6248:	b82168a4 	str	w4, [x5, x1]
/home/jayanth/quemu-v8/source/optee_os/lib/libmbedtls/mbedtls/library/bignum.c:350 (discriminator 3)
    624c:	17ffffec 	b	61fc <mbedtls_mpi_safe_cond_swap+0x8c>

0000000000006250 <mbedtls_mpi_lset>:
mbedtls_mpi_lset():
/home/jayanth/quemu-v8/source/optee_os/lib/libmbedtls/mbedtls/library/bignum.c:365
    6250:	a9bd7bfd 	stp	x29, x30, [sp, #-48]!
    6254:	910003fd 	mov	x29, sp
    6258:	a90153f3 	stp	x19, x20, [sp, #16]
    625c:	aa0003f3 	mov	x19, x0
    6260:	2a0103f4 	mov	w20, w1
/home/jayanth/quemu-v8/source/optee_os/lib/libmbedtls/mbedtls/library/bignum.c:369
    6264:	d2800021 	mov	x1, #0x1                   	// #1
/home/jayanth/quemu-v8/source/optee_os/lib/libmbedtls/mbedtls/library/bignum.c:365
    6268:	f90013f5 	str	x21, [sp, #32]
/home/jayanth/quemu-v8/source/optee_os/lib/libmbedtls/mbedtls/library/bignum.c:369
    626c:	97fffeca 	bl	5d94 <mbedtls_mpi_grow>
    6270:	2a0003f5 	mov	w21, w0
    6274:	35000180 	cbnz	w0, 62a4 <mbedtls_mpi_lset+0x54>
/home/jayanth/quemu-v8/source/optee_os/lib/libmbedtls/mbedtls/library/bignum.c:370
    6278:	a9408262 	ldp	x2, x0, [x19, #8]
    627c:	52800001 	mov	w1, #0x0                   	// #0
    6280:	d37ef442 	lsl	x2, x2, #2
    6284:	97ffec55 	bl	13d8 <memset>
/home/jayanth/quemu-v8/source/optee_os/lib/libmbedtls/mbedtls/library/bignum.c:372
    6288:	f9400a60 	ldr	x0, [x19, #16]
    628c:	7100029f 	cmp	w20, #0x0
    6290:	5a94a681 	cneg	w1, w20, lt  // lt = tstop
    6294:	b9000001 	str	w1, [x0]
/home/jayanth/quemu-v8/source/optee_os/lib/libmbedtls/mbedtls/library/bignum.c:373
    6298:	52800020 	mov	w0, #0x1                   	// #1
    629c:	5a80a400 	cneg	w0, w0, lt  // lt = tstop
    62a0:	79000260 	strh	w0, [x19]
/home/jayanth/quemu-v8/source/optee_os/lib/libmbedtls/mbedtls/library/bignum.c:378
    62a4:	2a1503e0 	mov	w0, w21
    62a8:	a94153f3 	ldp	x19, x20, [sp, #16]
    62ac:	f94013f5 	ldr	x21, [sp, #32]
    62b0:	a8c37bfd 	ldp	x29, x30, [sp], #48
    62b4:	d65f03c0 	ret

00000000000062b8 <mbedtls_mpi_get_bit>:
mbedtls_mpi_get_bit():
/home/jayanth/quemu-v8/source/optee_os/lib/libmbedtls/mbedtls/library/bignum.c:387
    62b8:	f9400402 	ldr	x2, [x0, #8]
    62bc:	eb02143f 	cmp	x1, x2, lsl #5
    62c0:	540000e2 	b.cs	62dc <mbedtls_mpi_get_bit+0x24>  // b.hs, b.nlast
/home/jayanth/quemu-v8/source/optee_os/lib/libmbedtls/mbedtls/library/bignum.c:390
    62c4:	f9400800 	ldr	x0, [x0, #16]
    62c8:	d345fc22 	lsr	x2, x1, #5
    62cc:	b8627800 	ldr	w0, [x0, x2, lsl #2]
    62d0:	1ac12400 	lsr	w0, w0, w1
    62d4:	12000000 	and	w0, w0, #0x1
/home/jayanth/quemu-v8/source/optee_os/lib/libmbedtls/mbedtls/library/bignum.c:391
    62d8:	d65f03c0 	ret
/home/jayanth/quemu-v8/source/optee_os/lib/libmbedtls/mbedtls/library/bignum.c:388
    62dc:	52800000 	mov	w0, #0x0                   	// #0
    62e0:	17fffffe 	b	62d8 <mbedtls_mpi_get_bit+0x20>

00000000000062e4 <mbedtls_mpi_set_bit>:
mbedtls_mpi_set_bit():
/home/jayanth/quemu-v8/source/optee_os/lib/libmbedtls/mbedtls/library/bignum.c:401
    62e4:	a9bd7bfd 	stp	x29, x30, [sp, #-48]!
    62e8:	910003fd 	mov	x29, sp
    62ec:	a90153f3 	stp	x19, x20, [sp, #16]
    62f0:	a9025bf5 	stp	x21, x22, [sp, #32]
    62f4:	12001c55 	and	w21, w2, #0xff
/home/jayanth/quemu-v8/source/optee_os/lib/libmbedtls/mbedtls/library/bignum.c:407
    62f8:	710006bf 	cmp	w21, #0x1
    62fc:	54000368 	b.hi	6368 <mbedtls_mpi_set_bit+0x84>  // b.pmore
    6300:	aa0103f3 	mov	x19, x1
    6304:	d345fc34 	lsr	x20, x1, #5
/home/jayanth/quemu-v8/source/optee_os/lib/libmbedtls/mbedtls/library/bignum.c:410
    6308:	f9400401 	ldr	x1, [x0, #8]
    630c:	aa0003f6 	mov	x22, x0
    6310:	eb01167f 	cmp	x19, x1, lsl #5
    6314:	540001a2 	b.cs	6348 <mbedtls_mpi_set_bit+0x64>  // b.hs, b.nlast
/home/jayanth/quemu-v8/source/optee_os/lib/libmbedtls/mbedtls/library/bignum.c:418
    6318:	f9400ac1 	ldr	x1, [x22, #16]
    631c:	d37ef694 	lsl	x20, x20, #2
/home/jayanth/quemu-v8/source/optee_os/lib/libmbedtls/mbedtls/library/bignum.c:404
    6320:	92401273 	and	x19, x19, #0x1f
/home/jayanth/quemu-v8/source/optee_os/lib/libmbedtls/mbedtls/library/bignum.c:418
    6324:	52800020 	mov	w0, #0x1                   	// #1
    6328:	b8746822 	ldr	w2, [x1, x20]
    632c:	1ad32000 	lsl	w0, w0, w19
/home/jayanth/quemu-v8/source/optee_os/lib/libmbedtls/mbedtls/library/bignum.c:419
    6330:	1ad322b3 	lsl	w19, w21, w19
/home/jayanth/quemu-v8/source/optee_os/lib/libmbedtls/mbedtls/library/bignum.c:418
    6334:	0a200040 	bic	w0, w2, w0
/home/jayanth/quemu-v8/source/optee_os/lib/libmbedtls/mbedtls/library/bignum.c:419
    6338:	2a130000 	orr	w0, w0, w19
    633c:	b8346820 	str	w0, [x1, x20]
/home/jayanth/quemu-v8/source/optee_os/lib/libmbedtls/mbedtls/library/bignum.c:413
    6340:	52800000 	mov	w0, #0x0                   	// #0
    6344:	14000005 	b	6358 <mbedtls_mpi_set_bit+0x74>
/home/jayanth/quemu-v8/source/optee_os/lib/libmbedtls/mbedtls/library/bignum.c:412
    6348:	34ffffd5 	cbz	w21, 6340 <mbedtls_mpi_set_bit+0x5c>
/home/jayanth/quemu-v8/source/optee_os/lib/libmbedtls/mbedtls/library/bignum.c:415
    634c:	91000681 	add	x1, x20, #0x1
    6350:	97fffe91 	bl	5d94 <mbedtls_mpi_grow>
    6354:	34fffe20 	cbz	w0, 6318 <mbedtls_mpi_set_bit+0x34>
/home/jayanth/quemu-v8/source/optee_os/lib/libmbedtls/mbedtls/library/bignum.c:424
    6358:	a94153f3 	ldp	x19, x20, [sp, #16]
    635c:	a9425bf5 	ldp	x21, x22, [sp, #32]
    6360:	a8c37bfd 	ldp	x29, x30, [sp], #48
    6364:	d65f03c0 	ret
/home/jayanth/quemu-v8/source/optee_os/lib/libmbedtls/mbedtls/library/bignum.c:408
    6368:	12800060 	mov	w0, #0xfffffffc            	// #-4
    636c:	17fffffb 	b	6358 <mbedtls_mpi_set_bit+0x74>

0000000000006370 <mbedtls_mpi_lsb>:
mbedtls_mpi_lsb():
/home/jayanth/quemu-v8/source/optee_os/lib/libmbedtls/mbedtls/library/bignum.c:434
    6370:	f9400405 	ldr	x5, [x0, #8]
/home/jayanth/quemu-v8/source/optee_os/lib/libmbedtls/mbedtls/library/bignum.c:430
    6374:	aa0003e3 	mov	x3, x0
/home/jayanth/quemu-v8/source/optee_os/lib/libmbedtls/mbedtls/library/bignum.c:431
    6378:	d2800004 	mov	x4, #0x0                   	// #0
/home/jayanth/quemu-v8/source/optee_os/lib/libmbedtls/mbedtls/library/bignum.c:434
    637c:	d2800002 	mov	x2, #0x0                   	// #0
/home/jayanth/quemu-v8/source/optee_os/lib/libmbedtls/mbedtls/library/bignum.c:434 (discriminator 1)
    6380:	eb0200bf 	cmp	x5, x2
    6384:	54000061 	b.ne	6390 <mbedtls_mpi_lsb+0x20>  // b.any
/home/jayanth/quemu-v8/source/optee_os/lib/libmbedtls/mbedtls/library/bignum.c:439
    6388:	d2800000 	mov	x0, #0x0                   	// #0
/home/jayanth/quemu-v8/source/optee_os/lib/libmbedtls/mbedtls/library/bignum.c:440
    638c:	d65f03c0 	ret
/home/jayanth/quemu-v8/source/optee_os/lib/libmbedtls/mbedtls/library/bignum.c:436
    6390:	f9400860 	ldr	x0, [x3, #16]
/home/jayanth/quemu-v8/source/optee_os/lib/libmbedtls/mbedtls/library/bignum.c:435
    6394:	d2800001 	mov	x1, #0x0                   	// #0
/home/jayanth/quemu-v8/source/optee_os/lib/libmbedtls/mbedtls/library/bignum.c:436
    6398:	b8627806 	ldr	w6, [x0, x2, lsl #2]
    639c:	8b010080 	add	x0, x4, x1
    63a0:	1ac124c7 	lsr	w7, w6, w1
    63a4:	3707ff47 	tbnz	w7, #0, 638c <mbedtls_mpi_lsb+0x1c>
/home/jayanth/quemu-v8/source/optee_os/lib/libmbedtls/mbedtls/library/bignum.c:435 (discriminator 2)
    63a8:	91000421 	add	x1, x1, #0x1
    63ac:	8b010080 	add	x0, x4, x1
    63b0:	f100803f 	cmp	x1, #0x20
    63b4:	54ffff41 	b.ne	639c <mbedtls_mpi_lsb+0x2c>  // b.any
/home/jayanth/quemu-v8/source/optee_os/lib/libmbedtls/mbedtls/library/bignum.c:434 (discriminator 2)
    63b8:	91000442 	add	x2, x2, #0x1
/home/jayanth/quemu-v8/source/optee_os/lib/libmbedtls/mbedtls/library/bignum.c:435 (discriminator 2)
    63bc:	aa0003e4 	mov	x4, x0
    63c0:	17fffff0 	b	6380 <mbedtls_mpi_lsb+0x10>

00000000000063c4 <mbedtls_mpi_bitlen>:
mbedtls_mpi_bitlen():
/home/jayanth/quemu-v8/source/optee_os/lib/libmbedtls/mbedtls/library/bignum.c:464
    63c4:	aa0003e2 	mov	x2, x0
/home/jayanth/quemu-v8/source/optee_os/lib/libmbedtls/mbedtls/library/bignum.c:467
    63c8:	f9400400 	ldr	x0, [x0, #8]
    63cc:	b4000200 	cbz	x0, 640c <mbedtls_mpi_bitlen+0x48>
/home/jayanth/quemu-v8/source/optee_os/lib/libmbedtls/mbedtls/library/bignum.c:470
    63d0:	d1000401 	sub	x1, x0, #0x1
    63d4:	f9400840 	ldr	x0, [x2, #16]
/home/jayanth/quemu-v8/source/optee_os/lib/libmbedtls/mbedtls/library/bignum.c:470 (discriminator 1)
    63d8:	b50001c1 	cbnz	x1, 6410 <mbedtls_mpi_bitlen+0x4c>
/home/jayanth/quemu-v8/source/optee_os/lib/libmbedtls/mbedtls/library/bignum.c:474
    63dc:	b8617803 	ldr	w3, [x0, x1, lsl #2]
mbedtls_clz():
/home/jayanth/quemu-v8/source/optee_os/lib/libmbedtls/mbedtls/library/bignum.c:448
    63e0:	52b00002 	mov	w2, #0x80000000            	// #-2147483648
/home/jayanth/quemu-v8/source/optee_os/lib/libmbedtls/mbedtls/library/bignum.c:450
    63e4:	d2800000 	mov	x0, #0x0                   	// #0
/home/jayanth/quemu-v8/source/optee_os/lib/libmbedtls/mbedtls/library/bignum.c:452
    63e8:	6a02007f 	tst	w3, w2
    63ec:	540000a1 	b.ne	6400 <mbedtls_mpi_bitlen+0x3c>  // b.any
/home/jayanth/quemu-v8/source/optee_os/lib/libmbedtls/mbedtls/library/bignum.c:450
    63f0:	91000400 	add	x0, x0, #0x1
/home/jayanth/quemu-v8/source/optee_os/lib/libmbedtls/mbedtls/library/bignum.c:454
    63f4:	53017c42 	lsr	w2, w2, #1
/home/jayanth/quemu-v8/source/optee_os/lib/libmbedtls/mbedtls/library/bignum.c:450
    63f8:	f100801f 	cmp	x0, #0x20
    63fc:	54ffff61 	b.ne	63e8 <mbedtls_mpi_bitlen+0x24>  // b.any
mbedtls_mpi_bitlen():
/home/jayanth/quemu-v8/source/optee_os/lib/libmbedtls/mbedtls/library/bignum.c:476
    6400:	91000421 	add	x1, x1, #0x1
    6404:	d37be821 	lsl	x1, x1, #5
    6408:	cb000020 	sub	x0, x1, x0
/home/jayanth/quemu-v8/source/optee_os/lib/libmbedtls/mbedtls/library/bignum.c:477
    640c:	d65f03c0 	ret
/home/jayanth/quemu-v8/source/optee_os/lib/libmbedtls/mbedtls/library/bignum.c:471
    6410:	b8617802 	ldr	w2, [x0, x1, lsl #2]
    6414:	35fffe42 	cbnz	w2, 63dc <mbedtls_mpi_bitlen+0x18>
/home/jayanth/quemu-v8/source/optee_os/lib/libmbedtls/mbedtls/library/bignum.c:470 (discriminator 2)
    6418:	d1000421 	sub	x1, x1, #0x1
    641c:	17ffffef 	b	63d8 <mbedtls_mpi_bitlen+0x14>

0000000000006420 <mbedtls_mpi_size>:
mbedtls_mpi_size():
/home/jayanth/quemu-v8/source/optee_os/lib/libmbedtls/mbedtls/library/bignum.c:483
    6420:	a9bf7bfd 	stp	x29, x30, [sp, #-16]!
    6424:	910003fd 	mov	x29, sp
/home/jayanth/quemu-v8/source/optee_os/lib/libmbedtls/mbedtls/library/bignum.c:484
    6428:	97ffffe7 	bl	63c4 <mbedtls_mpi_bitlen>
    642c:	91001c00 	add	x0, x0, #0x7
/home/jayanth/quemu-v8/source/optee_os/lib/libmbedtls/mbedtls/library/bignum.c:485
    6430:	a8c17bfd 	ldp	x29, x30, [sp], #16
    6434:	d343fc00 	lsr	x0, x0, #3
    6438:	d65f03c0 	ret

000000000000643c <mbedtls_mpi_read_binary_le>:
mbedtls_mpi_read_binary_le():
/home/jayanth/quemu-v8/source/optee_os/lib/libmbedtls/mbedtls/library/bignum.c:883
    643c:	a9bd7bfd 	stp	x29, x30, [sp, #-48]!
/home/jayanth/quemu-v8/source/optee_os/lib/libmbedtls/mbedtls/library/bignum.c:886
    6440:	f240045f 	tst	x2, #0x3
/home/jayanth/quemu-v8/source/optee_os/lib/libmbedtls/mbedtls/library/bignum.c:883
    6444:	910003fd 	mov	x29, sp
    6448:	a9025bf5 	stp	x21, x22, [sp, #32]
    644c:	aa0103f6 	mov	x22, x1
/home/jayanth/quemu-v8/source/optee_os/lib/libmbedtls/mbedtls/library/bignum.c:886
    6450:	d342fc55 	lsr	x21, x2, #2
/home/jayanth/quemu-v8/source/optee_os/lib/libmbedtls/mbedtls/library/bignum.c:889
    6454:	f9400401 	ldr	x1, [x0, #8]
/home/jayanth/quemu-v8/source/optee_os/lib/libmbedtls/mbedtls/library/bignum.c:883
    6458:	a90153f3 	stp	x19, x20, [sp, #16]
/home/jayanth/quemu-v8/source/optee_os/lib/libmbedtls/mbedtls/library/bignum.c:886
    645c:	9a9506b5 	cinc	x21, x21, ne  // ne = any
/home/jayanth/quemu-v8/source/optee_os/lib/libmbedtls/mbedtls/library/bignum.c:883
    6460:	aa0003f3 	mov	x19, x0
    6464:	aa0203f4 	mov	x20, x2
/home/jayanth/quemu-v8/source/optee_os/lib/libmbedtls/mbedtls/library/bignum.c:889
    6468:	eb15003f 	cmp	x1, x21
    646c:	54000241 	b.ne	64b4 <mbedtls_mpi_read_binary_le+0x78>  // b.any
/home/jayanth/quemu-v8/source/optee_os/lib/libmbedtls/mbedtls/library/bignum.c:896
    6470:	aa1303e0 	mov	x0, x19
    6474:	52800001 	mov	w1, #0x0                   	// #0
    6478:	97ffff76 	bl	6250 <mbedtls_mpi_lset>
    647c:	350002a0 	cbnz	w0, 64d0 <mbedtls_mpi_read_binary_le+0x94>
/home/jayanth/quemu-v8/source/optee_os/lib/libmbedtls/mbedtls/library/bignum.c:898
    6480:	d2800003 	mov	x3, #0x0                   	// #0
/home/jayanth/quemu-v8/source/optee_os/lib/libmbedtls/mbedtls/library/bignum.c:898 (discriminator 1)
    6484:	eb14007f 	cmp	x3, x20
    6488:	54000240 	b.eq	64d0 <mbedtls_mpi_read_binary_le+0x94>  // b.none
/home/jayanth/quemu-v8/source/optee_os/lib/libmbedtls/mbedtls/library/bignum.c:899 (discriminator 3)
    648c:	f9400a65 	ldr	x5, [x19, #16]
    6490:	927ef464 	and	x4, x3, #0xfffffffffffffffc
    6494:	38636ac1 	ldrb	w1, [x22, x3]
    6498:	531d0462 	ubfiz	w2, w3, #3, #2
/home/jayanth/quemu-v8/source/optee_os/lib/libmbedtls/mbedtls/library/bignum.c:898 (discriminator 3)
    649c:	91000463 	add	x3, x3, #0x1
/home/jayanth/quemu-v8/source/optee_os/lib/libmbedtls/mbedtls/library/bignum.c:899 (discriminator 3)
    64a0:	1ac22022 	lsl	w2, w1, w2
    64a4:	b86468a1 	ldr	w1, [x5, x4]
    64a8:	2a020021 	orr	w1, w1, w2
    64ac:	b82468a1 	str	w1, [x5, x4]
/home/jayanth/quemu-v8/source/optee_os/lib/libmbedtls/mbedtls/library/bignum.c:898 (discriminator 3)
    64b0:	17fffff5 	b	6484 <mbedtls_mpi_read_binary_le+0x48>
/home/jayanth/quemu-v8/source/optee_os/lib/libmbedtls/mbedtls/library/bignum.c:891
    64b4:	97fffe1d 	bl	5d28 <mbedtls_mpi_free>
/home/jayanth/quemu-v8/source/optee_os/lib/libmbedtls/mbedtls/library/bignum.c:892
    64b8:	aa1303e0 	mov	x0, x19
    64bc:	97fffe0d 	bl	5cf0 <mbedtls_mpi_init>
/home/jayanth/quemu-v8/source/optee_os/lib/libmbedtls/mbedtls/library/bignum.c:893
    64c0:	aa1503e1 	mov	x1, x21
    64c4:	aa1303e0 	mov	x0, x19
    64c8:	97fffe33 	bl	5d94 <mbedtls_mpi_grow>
    64cc:	34fffd20 	cbz	w0, 6470 <mbedtls_mpi_read_binary_le+0x34>
/home/jayanth/quemu-v8/source/optee_os/lib/libmbedtls/mbedtls/library/bignum.c:909
    64d0:	a94153f3 	ldp	x19, x20, [sp, #16]
    64d4:	a9425bf5 	ldp	x21, x22, [sp, #32]
    64d8:	a8c37bfd 	ldp	x29, x30, [sp], #48
    64dc:	d65f03c0 	ret

00000000000064e0 <mbedtls_mpi_read_binary>:
mbedtls_mpi_read_binary():
/home/jayanth/quemu-v8/source/optee_os/lib/libmbedtls/mbedtls/library/bignum.c:915
    64e0:	a9bc7bfd 	stp	x29, x30, [sp, #-64]!
/home/jayanth/quemu-v8/source/optee_os/lib/libmbedtls/mbedtls/library/bignum.c:917
    64e4:	f240045f 	tst	x2, #0x3
/home/jayanth/quemu-v8/source/optee_os/lib/libmbedtls/mbedtls/library/bignum.c:915
    64e8:	910003fd 	mov	x29, sp
    64ec:	f9001bf7 	str	x23, [sp, #48]
    64f0:	aa0103f7 	mov	x23, x1
/home/jayanth/quemu-v8/source/optee_os/lib/libmbedtls/mbedtls/library/bignum.c:925
    64f4:	f9400401 	ldr	x1, [x0, #8]
/home/jayanth/quemu-v8/source/optee_os/lib/libmbedtls/mbedtls/library/bignum.c:915
    64f8:	a90153f3 	stp	x19, x20, [sp, #16]
    64fc:	aa0003f3 	mov	x19, x0
    6500:	a9025bf5 	stp	x21, x22, [sp, #32]
/home/jayanth/quemu-v8/source/optee_os/lib/libmbedtls/mbedtls/library/bignum.c:917
    6504:	d342fc55 	lsr	x21, x2, #2
    6508:	9a9506b5 	cinc	x21, x21, ne  // ne = any
/home/jayanth/quemu-v8/source/optee_os/lib/libmbedtls/mbedtls/library/bignum.c:915
    650c:	aa0203f6 	mov	x22, x2
/home/jayanth/quemu-v8/source/optee_os/lib/libmbedtls/mbedtls/library/bignum.c:925
    6510:	eb15003f 	cmp	x1, x21
    6514:	54000181 	b.ne	6544 <mbedtls_mpi_read_binary+0x64>  // b.any
/home/jayanth/quemu-v8/source/optee_os/lib/libmbedtls/mbedtls/library/bignum.c:933
    6518:	aa1303e0 	mov	x0, x19
    651c:	52800001 	mov	w1, #0x0                   	// #0
    6520:	97ffff4c 	bl	6250 <mbedtls_mpi_lset>
    6524:	2a0003f4 	mov	w20, w0
    6528:	34000260 	cbz	w0, 6574 <mbedtls_mpi_read_binary+0x94>
/home/jayanth/quemu-v8/source/optee_os/lib/libmbedtls/mbedtls/library/bignum.c:953
    652c:	2a1403e0 	mov	w0, w20
    6530:	a94153f3 	ldp	x19, x20, [sp, #16]
    6534:	a9425bf5 	ldp	x21, x22, [sp, #32]
    6538:	f9401bf7 	ldr	x23, [sp, #48]
    653c:	a8c47bfd 	ldp	x29, x30, [sp], #64
    6540:	d65f03c0 	ret
/home/jayanth/quemu-v8/source/optee_os/lib/libmbedtls/mbedtls/library/bignum.c:927
    6544:	79c00414 	ldrsh	w20, [x0, #2]
/home/jayanth/quemu-v8/source/optee_os/lib/libmbedtls/mbedtls/library/bignum.c:929
    6548:	97fffdf8 	bl	5d28 <mbedtls_mpi_free>
mpi_init():
/home/jayanth/quemu-v8/source/optee_os/lib/libmbedtls/mbedtls/library/bignum.c:99
    654c:	52800020 	mov	w0, #0x1                   	// #1
    6550:	79000260 	strh	w0, [x19]
/home/jayanth/quemu-v8/source/optee_os/lib/libmbedtls/mbedtls/library/bignum.c:100
    6554:	79000674 	strh	w20, [x19, #2]
mbedtls_mpi_read_binary():
/home/jayanth/quemu-v8/source/optee_os/lib/libmbedtls/mbedtls/library/bignum.c:931
    6558:	aa1503e1 	mov	x1, x21
mpi_init():
/home/jayanth/quemu-v8/source/optee_os/lib/libmbedtls/mbedtls/library/bignum.c:102
    655c:	a900fe7f 	stp	xzr, xzr, [x19, #8]
mbedtls_mpi_read_binary():
/home/jayanth/quemu-v8/source/optee_os/lib/libmbedtls/mbedtls/library/bignum.c:931
    6560:	aa1303e0 	mov	x0, x19
    6564:	97fffe0c 	bl	5d94 <mbedtls_mpi_grow>
    6568:	2a0003f4 	mov	w20, w0
    656c:	34fffd60 	cbz	w0, 6518 <mbedtls_mpi_read_binary+0x38>
    6570:	17ffffef 	b	652c <mbedtls_mpi_read_binary+0x4c>
/home/jayanth/quemu-v8/source/optee_os/lib/libmbedtls/mbedtls/library/bignum.c:937 (discriminator 2)
    6574:	b4fffdd7 	cbz	x23, 652c <mbedtls_mpi_read_binary+0x4c>
/home/jayanth/quemu-v8/source/optee_os/lib/libmbedtls/mbedtls/library/bignum.c:940
    6578:	f9400a63 	ldr	x3, [x19, #16]
/home/jayanth/quemu-v8/source/optee_os/lib/libmbedtls/mbedtls/library/bignum.c:918
    657c:	d37ef6a0 	lsl	x0, x21, #2
    6580:	cb160000 	sub	x0, x0, x22
/home/jayanth/quemu-v8/source/optee_os/lib/libmbedtls/mbedtls/library/bignum.c:940
    6584:	aa1603e2 	mov	x2, x22
    6588:	aa1703e1 	mov	x1, x23
    658c:	8b000060 	add	x0, x3, x0
    6590:	97ffe6a4 	bl	20 <memcpy>
mpi_bigendian_to_host():
/home/jayanth/quemu-v8/source/optee_os/lib/libmbedtls/mbedtls/library/bignum.c:853
    6594:	b4fffcd5 	cbz	x21, 652c <mbedtls_mpi_read_binary+0x4c>
    6598:	f9400a60 	ldr	x0, [x19, #16]
    659c:	aa1503e1 	mov	x1, x21
    65a0:	97fffdb7 	bl	5c7c <mpi_bigendian_to_host.part.0>
mbedtls_mpi_read_binary():
/home/jayanth/quemu-v8/source/optee_os/lib/libmbedtls/mbedtls/library/bignum.c:952
    65a4:	17ffffe2 	b	652c <mbedtls_mpi_read_binary+0x4c>

00000000000065a8 <mbedtls_mpi_write_binary_le>:
mbedtls_mpi_write_binary_le():
/home/jayanth/quemu-v8/source/optee_os/lib/libmbedtls/mbedtls/library/bignum.c:960
    65a8:	aa0103e5 	mov	x5, x1
/home/jayanth/quemu-v8/source/optee_os/lib/libmbedtls/mbedtls/library/bignum.c:961
    65ac:	f9400401 	ldr	x1, [x0, #8]
    65b0:	d37ef424 	lsl	x4, x1, #2
/home/jayanth/quemu-v8/source/optee_os/lib/libmbedtls/mbedtls/library/bignum.c:965
    65b4:	eb01085f 	cmp	x2, x1, lsl #2
    65b8:	54000388 	b.hi	6628 <mbedtls_mpi_write_binary_le+0x80>  // b.pmore
    65bc:	aa0203e3 	mov	x3, x2
/home/jayanth/quemu-v8/source/optee_os/lib/libmbedtls/mbedtls/library/bignum.c:975 (discriminator 1)
    65c0:	eb04007f 	cmp	x3, x4
    65c4:	54000201 	b.ne	6604 <mbedtls_mpi_write_binary_le+0x5c>  // b.any
    65c8:	aa0203e6 	mov	x6, x2
/home/jayanth/quemu-v8/source/optee_os/lib/libmbedtls/mbedtls/library/bignum.c:982
    65cc:	d2800003 	mov	x3, #0x0                   	// #0
/home/jayanth/quemu-v8/source/optee_os/lib/libmbedtls/mbedtls/library/bignum.c:982 (discriminator 1)
    65d0:	eb0300df 	cmp	x6, x3
    65d4:	540002e1 	b.ne	6630 <mbedtls_mpi_write_binary_le+0x88>  // b.any
/home/jayanth/quemu-v8/source/optee_os/lib/libmbedtls/mbedtls/library/bignum.c:985
    65d8:	eb02009f 	cmp	x4, x2
    65dc:	540003e2 	b.cs	6658 <mbedtls_mpi_write_binary_le+0xb0>  // b.hs, b.nlast
/home/jayanth/quemu-v8/source/optee_os/lib/libmbedtls/mbedtls/library/bignum.c:960
    65e0:	a9bf7bfd 	stp	x29, x30, [sp, #-16]!
/home/jayanth/quemu-v8/source/optee_os/lib/libmbedtls/mbedtls/library/bignum.c:988
    65e4:	cb040042 	sub	x2, x2, x4
    65e8:	8b0400a0 	add	x0, x5, x4
/home/jayanth/quemu-v8/source/optee_os/lib/libmbedtls/mbedtls/library/bignum.c:960
    65ec:	910003fd 	mov	x29, sp
/home/jayanth/quemu-v8/source/optee_os/lib/libmbedtls/mbedtls/library/bignum.c:988
    65f0:	52800001 	mov	w1, #0x0                   	// #0
    65f4:	97ffeb79 	bl	13d8 <memset>
/home/jayanth/quemu-v8/source/optee_os/lib/libmbedtls/mbedtls/library/bignum.c:991
    65f8:	52800000 	mov	w0, #0x0                   	// #0
/home/jayanth/quemu-v8/source/optee_os/lib/libmbedtls/mbedtls/library/bignum.c:992
    65fc:	a8c17bfd 	ldp	x29, x30, [sp], #16
    6600:	d65f03c0 	ret
/home/jayanth/quemu-v8/source/optee_os/lib/libmbedtls/mbedtls/library/bignum.c:977
    6604:	f9400807 	ldr	x7, [x0, #16]
    6608:	927ef466 	and	x6, x3, #0xfffffffffffffffc
    660c:	531d0461 	ubfiz	w1, w3, #3, #2
    6610:	b86668e6 	ldr	w6, [x7, x6]
    6614:	1ac124c1 	lsr	w1, w6, w1
    6618:	72001c3f 	tst	w1, #0xff
    661c:	540001a1 	b.ne	6650 <mbedtls_mpi_write_binary_le+0xa8>  // b.any
/home/jayanth/quemu-v8/source/optee_os/lib/libmbedtls/mbedtls/library/bignum.c:975 (discriminator 2)
    6620:	91000463 	add	x3, x3, #0x1
    6624:	17ffffe7 	b	65c0 <mbedtls_mpi_write_binary_le+0x18>
    6628:	aa0403e6 	mov	x6, x4
    662c:	17ffffe8 	b	65cc <mbedtls_mpi_write_binary_le+0x24>
/home/jayanth/quemu-v8/source/optee_os/lib/libmbedtls/mbedtls/library/bignum.c:983 (discriminator 3)
    6630:	f9400808 	ldr	x8, [x0, #16]
    6634:	927ef461 	and	x1, x3, #0xfffffffffffffffc
    6638:	531d0467 	ubfiz	w7, w3, #3, #2
    663c:	b8616901 	ldr	w1, [x8, x1]
    6640:	1ac72421 	lsr	w1, w1, w7
    6644:	382368a1 	strb	w1, [x5, x3]
/home/jayanth/quemu-v8/source/optee_os/lib/libmbedtls/mbedtls/library/bignum.c:982 (discriminator 3)
    6648:	91000463 	add	x3, x3, #0x1
    664c:	17ffffe1 	b	65d0 <mbedtls_mpi_write_binary_le+0x28>
/home/jayanth/quemu-v8/source/optee_os/lib/libmbedtls/mbedtls/library/bignum.c:978
    6650:	128000e0 	mov	w0, #0xfffffff8            	// #-8
    6654:	d65f03c0 	ret
/home/jayanth/quemu-v8/source/optee_os/lib/libmbedtls/mbedtls/library/bignum.c:991
    6658:	52800000 	mov	w0, #0x0                   	// #0
/home/jayanth/quemu-v8/source/optee_os/lib/libmbedtls/mbedtls/library/bignum.c:992
    665c:	d65f03c0 	ret

0000000000006660 <mbedtls_mpi_write_binary>:
mbedtls_mpi_write_binary():
/home/jayanth/quemu-v8/source/optee_os/lib/libmbedtls/mbedtls/library/bignum.c:999
    6660:	a9bd7bfd 	stp	x29, x30, [sp, #-48]!
    6664:	910003fd 	mov	x29, sp
    6668:	a90153f3 	stp	x19, x20, [sp, #16]
    666c:	aa0003f3 	mov	x19, x0
    6670:	aa0103e0 	mov	x0, x1
/home/jayanth/quemu-v8/source/optee_os/lib/libmbedtls/mbedtls/library/bignum.c:1008
    6674:	f9400661 	ldr	x1, [x19, #8]
/home/jayanth/quemu-v8/source/optee_os/lib/libmbedtls/mbedtls/library/bignum.c:999
    6678:	f90013f5 	str	x21, [sp, #32]
/home/jayanth/quemu-v8/source/optee_os/lib/libmbedtls/mbedtls/library/bignum.c:1008
    667c:	d37ef434 	lsl	x20, x1, #2
/home/jayanth/quemu-v8/source/optee_os/lib/libmbedtls/mbedtls/library/bignum.c:1010
    6680:	eb01085f 	cmp	x2, x1, lsl #2
    6684:	54000389 	b.ls	66f4 <mbedtls_mpi_write_binary+0x94>  // b.plast
/home/jayanth/quemu-v8/source/optee_os/lib/libmbedtls/mbedtls/library/bignum.c:1018
    6688:	cb140042 	sub	x2, x2, x20
/home/jayanth/quemu-v8/source/optee_os/lib/libmbedtls/mbedtls/library/bignum.c:1019
    668c:	52800001 	mov	w1, #0x0                   	// #0
/home/jayanth/quemu-v8/source/optee_os/lib/libmbedtls/mbedtls/library/bignum.c:1018
    6690:	8b020015 	add	x21, x0, x2
/home/jayanth/quemu-v8/source/optee_os/lib/libmbedtls/mbedtls/library/bignum.c:1019
    6694:	97ffeb51 	bl	13d8 <memset>
/home/jayanth/quemu-v8/source/optee_os/lib/libmbedtls/mbedtls/library/bignum.c:1018
    6698:	aa1503e0 	mov	x0, x21
    669c:	aa1403e2 	mov	x2, x20
/home/jayanth/quemu-v8/source/optee_os/lib/libmbedtls/mbedtls/library/bignum.c:1034
    66a0:	8b020001 	add	x1, x0, x2
    66a4:	d2800003 	mov	x3, #0x0                   	// #0
/home/jayanth/quemu-v8/source/optee_os/lib/libmbedtls/mbedtls/library/bignum.c:1034 (discriminator 1)
    66a8:	d1000421 	sub	x1, x1, #0x1
    66ac:	eb03005f 	cmp	x2, x3
    66b0:	54000261 	b.ne	66fc <mbedtls_mpi_write_binary+0x9c>  // b.any
/home/jayanth/quemu-v8/source/optee_os/lib/libmbedtls/mbedtls/library/bignum.c:1037
    66b4:	52800000 	mov	w0, #0x0                   	// #0
/home/jayanth/quemu-v8/source/optee_os/lib/libmbedtls/mbedtls/library/bignum.c:1038
    66b8:	a94153f3 	ldp	x19, x20, [sp, #16]
    66bc:	f94013f5 	ldr	x21, [sp, #32]
    66c0:	a8c37bfd 	ldp	x29, x30, [sp], #48
    66c4:	d65f03c0 	ret
/home/jayanth/quemu-v8/source/optee_os/lib/libmbedtls/mbedtls/library/bignum.c:1029
    66c8:	f9400a65 	ldr	x5, [x19, #16]
    66cc:	927ef424 	and	x4, x1, #0xfffffffffffffffc
    66d0:	531d0423 	ubfiz	w3, w1, #3, #2
    66d4:	b86468a4 	ldr	w4, [x5, x4]
    66d8:	1ac32483 	lsr	w3, w4, w3
    66dc:	72001c7f 	tst	w3, #0xff
    66e0:	540001e1 	b.ne	671c <mbedtls_mpi_write_binary+0xbc>  // b.any
/home/jayanth/quemu-v8/source/optee_os/lib/libmbedtls/mbedtls/library/bignum.c:1027 (discriminator 2)
    66e4:	91000421 	add	x1, x1, #0x1
/home/jayanth/quemu-v8/source/optee_os/lib/libmbedtls/mbedtls/library/bignum.c:1027 (discriminator 1)
    66e8:	eb14003f 	cmp	x1, x20
    66ec:	54fffee1 	b.ne	66c8 <mbedtls_mpi_write_binary+0x68>  // b.any
    66f0:	17ffffec 	b	66a0 <mbedtls_mpi_write_binary+0x40>
    66f4:	aa0203e1 	mov	x1, x2
    66f8:	17fffffc 	b	66e8 <mbedtls_mpi_write_binary+0x88>
/home/jayanth/quemu-v8/source/optee_os/lib/libmbedtls/mbedtls/library/bignum.c:1035 (discriminator 3)
    66fc:	f9400a65 	ldr	x5, [x19, #16]
    6700:	927ef460 	and	x0, x3, #0xfffffffffffffffc
    6704:	531d0464 	ubfiz	w4, w3, #3, #2
/home/jayanth/quemu-v8/source/optee_os/lib/libmbedtls/mbedtls/library/bignum.c:1034 (discriminator 3)
    6708:	91000463 	add	x3, x3, #0x1
/home/jayanth/quemu-v8/source/optee_os/lib/libmbedtls/mbedtls/library/bignum.c:1035 (discriminator 3)
    670c:	b86068a0 	ldr	w0, [x5, x0]
    6710:	1ac42400 	lsr	w0, w0, w4
    6714:	39000020 	strb	w0, [x1]
/home/jayanth/quemu-v8/source/optee_os/lib/libmbedtls/mbedtls/library/bignum.c:1034 (discriminator 3)
    6718:	17ffffe4 	b	66a8 <mbedtls_mpi_write_binary+0x48>
/home/jayanth/quemu-v8/source/optee_os/lib/libmbedtls/mbedtls/library/bignum.c:1030
    671c:	128000e0 	mov	w0, #0xfffffff8            	// #-8
    6720:	17ffffe6 	b	66b8 <mbedtls_mpi_write_binary+0x58>

0000000000006724 <mbedtls_mpi_shift_l>:
mbedtls_mpi_shift_l():
/home/jayanth/quemu-v8/source/optee_os/lib/libmbedtls/mbedtls/library/bignum.c:1044
    6724:	a9bd7bfd 	stp	x29, x30, [sp, #-48]!
    6728:	910003fd 	mov	x29, sp
    672c:	a90153f3 	stp	x19, x20, [sp, #16]
    6730:	aa0003f3 	mov	x19, x0
/home/jayanth/quemu-v8/source/optee_os/lib/libmbedtls/mbedtls/library/bignum.c:1050
    6734:	d345fc34 	lsr	x20, x1, #5
/home/jayanth/quemu-v8/source/optee_os/lib/libmbedtls/mbedtls/library/bignum.c:1044
    6738:	a9025bf5 	stp	x21, x22, [sp, #32]
    673c:	aa0103f5 	mov	x21, x1
/home/jayanth/quemu-v8/source/optee_os/lib/libmbedtls/mbedtls/library/bignum.c:1051
    6740:	92401036 	and	x22, x1, #0x1f
/home/jayanth/quemu-v8/source/optee_os/lib/libmbedtls/mbedtls/library/bignum.c:1053
    6744:	97ffff20 	bl	63c4 <mbedtls_mpi_bitlen>
    6748:	8b150000 	add	x0, x0, x21
/home/jayanth/quemu-v8/source/optee_os/lib/libmbedtls/mbedtls/library/bignum.c:1055
    674c:	f9400661 	ldr	x1, [x19, #8]
    6750:	eb01141f 	cmp	x0, x1, lsl #5
    6754:	540000c8 	b.hi	676c <mbedtls_mpi_shift_l+0x48>  // b.pmore
/home/jayanth/quemu-v8/source/optee_os/lib/libmbedtls/mbedtls/library/bignum.c:1063
    6758:	f1007ebf 	cmp	x21, #0x1f
    675c:	540001c8 	b.hi	6794 <mbedtls_mpi_shift_l+0x70>  // b.pmore
/home/jayanth/quemu-v8/source/optee_os/lib/libmbedtls/mbedtls/library/bignum.c:1075
    6760:	b50004d6 	cbnz	x22, 67f8 <mbedtls_mpi_shift_l+0xd4>
/home/jayanth/quemu-v8/source/optee_os/lib/libmbedtls/mbedtls/library/bignum.c:1058
    6764:	52800000 	mov	w0, #0x0                   	// #0
    6768:	14000007 	b	6784 <mbedtls_mpi_shift_l+0x60>
/home/jayanth/quemu-v8/source/optee_os/lib/libmbedtls/mbedtls/library/bignum.c:1056
    676c:	f240101f 	tst	x0, #0x1f
    6770:	d345fc00 	lsr	x0, x0, #5
    6774:	9a800401 	cinc	x1, x0, ne  // ne = any
    6778:	aa1303e0 	mov	x0, x19
    677c:	97fffd86 	bl	5d94 <mbedtls_mpi_grow>
    6780:	34fffec0 	cbz	w0, 6758 <mbedtls_mpi_shift_l+0x34>
/home/jayanth/quemu-v8/source/optee_os/lib/libmbedtls/mbedtls/library/bignum.c:1089
    6784:	a94153f3 	ldp	x19, x20, [sp, #16]
    6788:	a9425bf5 	ldp	x21, x22, [sp, #32]
    678c:	a8c37bfd 	ldp	x29, x30, [sp], #48
    6790:	d65f03c0 	ret
/home/jayanth/quemu-v8/source/optee_os/lib/libmbedtls/mbedtls/library/bignum.c:1065
    6794:	f9400661 	ldr	x1, [x19, #8]
    6798:	92800063 	mov	x3, #0xfffffffffffffffc    	// #-4
    679c:	9b037e83 	mul	x3, x20, x3
    67a0:	aa0103e2 	mov	x2, x1
    67a4:	d37ef420 	lsl	x0, x1, #2
    67a8:	d1001000 	sub	x0, x0, #0x4
/home/jayanth/quemu-v8/source/optee_os/lib/libmbedtls/mbedtls/library/bignum.c:1065 (discriminator 1)
    67ac:	eb14005f 	cmp	x2, x20
    67b0:	54000168 	b.hi	67dc <mbedtls_mpi_shift_l+0xb8>  // b.pmore
    67b4:	eb010280 	subs	x0, x20, x1
    67b8:	9a9f9000 	csel	x0, x0, xzr, ls  // ls = plast
    67bc:	8b000021 	add	x1, x1, x0
    67c0:	d37ef421 	lsl	x1, x1, #2
/home/jayanth/quemu-v8/source/optee_os/lib/libmbedtls/mbedtls/library/bignum.c:1068 (discriminator 2)
    67c4:	d1001021 	sub	x1, x1, #0x4
    67c8:	b100103f 	cmn	x1, #0x4
    67cc:	54fffca0 	b.eq	6760 <mbedtls_mpi_shift_l+0x3c>  // b.none
/home/jayanth/quemu-v8/source/optee_os/lib/libmbedtls/mbedtls/library/bignum.c:1069 (discriminator 2)
    67d0:	f9400a60 	ldr	x0, [x19, #16]
    67d4:	b821681f 	str	wzr, [x0, x1]
    67d8:	17fffffb 	b	67c4 <mbedtls_mpi_shift_l+0xa0>
/home/jayanth/quemu-v8/source/optee_os/lib/libmbedtls/mbedtls/library/bignum.c:1066 (discriminator 3)
    67dc:	f9400a64 	ldr	x4, [x19, #16]
/home/jayanth/quemu-v8/source/optee_os/lib/libmbedtls/mbedtls/library/bignum.c:1065 (discriminator 3)
    67e0:	d1000442 	sub	x2, x2, #0x1
/home/jayanth/quemu-v8/source/optee_os/lib/libmbedtls/mbedtls/library/bignum.c:1066 (discriminator 3)
    67e4:	8b030085 	add	x5, x4, x3
    67e8:	b86068a5 	ldr	w5, [x5, x0]
    67ec:	b8206885 	str	w5, [x4, x0]
/home/jayanth/quemu-v8/source/optee_os/lib/libmbedtls/mbedtls/library/bignum.c:1065 (discriminator 3)
    67f0:	d1001000 	sub	x0, x0, #0x4
    67f4:	17ffffee 	b	67ac <mbedtls_mpi_shift_l+0x88>
/home/jayanth/quemu-v8/source/optee_os/lib/libmbedtls/mbedtls/library/bignum.c:1077
    67f8:	f9400666 	ldr	x6, [x19, #8]
/home/jayanth/quemu-v8/source/optee_os/lib/libmbedtls/mbedtls/library/bignum.c:1079
    67fc:	52800400 	mov	w0, #0x20                  	// #32
    6800:	4b160000 	sub	w0, w0, w22
/home/jayanth/quemu-v8/source/optee_os/lib/libmbedtls/mbedtls/library/bignum.c:1047
    6804:	52800002 	mov	w2, #0x0                   	// #0
/home/jayanth/quemu-v8/source/optee_os/lib/libmbedtls/mbedtls/library/bignum.c:1077 (discriminator 1)
    6808:	eb1400df 	cmp	x6, x20
    680c:	54fffac9 	b.ls	6764 <mbedtls_mpi_shift_l+0x40>  // b.plast
/home/jayanth/quemu-v8/source/optee_os/lib/libmbedtls/mbedtls/library/bignum.c:1079 (discriminator 3)
    6810:	f9400a65 	ldr	x5, [x19, #16]
    6814:	d37ef684 	lsl	x4, x20, #2
/home/jayanth/quemu-v8/source/optee_os/lib/libmbedtls/mbedtls/library/bignum.c:1077 (discriminator 3)
    6818:	91000694 	add	x20, x20, #0x1
/home/jayanth/quemu-v8/source/optee_os/lib/libmbedtls/mbedtls/library/bignum.c:1079 (discriminator 3)
    681c:	b86468a3 	ldr	w3, [x5, x4]
/home/jayanth/quemu-v8/source/optee_os/lib/libmbedtls/mbedtls/library/bignum.c:1080 (discriminator 3)
    6820:	1ad62061 	lsl	w1, w3, w22
/home/jayanth/quemu-v8/source/optee_os/lib/libmbedtls/mbedtls/library/bignum.c:1081 (discriminator 3)
    6824:	2a020021 	orr	w1, w1, w2
/home/jayanth/quemu-v8/source/optee_os/lib/libmbedtls/mbedtls/library/bignum.c:1082 (discriminator 3)
    6828:	1ac02462 	lsr	w2, w3, w0
/home/jayanth/quemu-v8/source/optee_os/lib/libmbedtls/mbedtls/library/bignum.c:1081 (discriminator 3)
    682c:	b82468a1 	str	w1, [x5, x4]
/home/jayanth/quemu-v8/source/optee_os/lib/libmbedtls/mbedtls/library/bignum.c:1077 (discriminator 3)
    6830:	17fffff6 	b	6808 <mbedtls_mpi_shift_l+0xe4>

0000000000006834 <mbedtls_mpi_shift_r>:
mbedtls_mpi_shift_r():
/home/jayanth/quemu-v8/source/optee_os/lib/libmbedtls/mbedtls/library/bignum.c:1103
    6834:	f9400402 	ldr	x2, [x0, #8]
/home/jayanth/quemu-v8/source/optee_os/lib/libmbedtls/mbedtls/library/bignum.c:1100
    6838:	d345fc26 	lsr	x6, x1, #5
/home/jayanth/quemu-v8/source/optee_os/lib/libmbedtls/mbedtls/library/bignum.c:1101
    683c:	92401024 	and	x4, x1, #0x1f
/home/jayanth/quemu-v8/source/optee_os/lib/libmbedtls/mbedtls/library/bignum.c:1103
    6840:	eb06005f 	cmp	x2, x6
    6844:	54000063 	b.cc	6850 <mbedtls_mpi_shift_r+0x1c>  // b.lo, b.ul, b.last
/home/jayanth/quemu-v8/source/optee_os/lib/libmbedtls/mbedtls/library/bignum.c:1103 (discriminator 1)
    6848:	54000081 	b.ne	6858 <mbedtls_mpi_shift_r+0x24>  // b.any
/home/jayanth/quemu-v8/source/optee_os/lib/libmbedtls/mbedtls/library/bignum.c:1103 (discriminator 2)
    684c:	b40004a4 	cbz	x4, 68e0 <mbedtls_mpi_shift_r+0xac>
/home/jayanth/quemu-v8/source/optee_os/lib/libmbedtls/mbedtls/library/bignum.c:1104
    6850:	52800001 	mov	w1, #0x0                   	// #0
    6854:	17fffe7f 	b	6250 <mbedtls_mpi_lset>
/home/jayanth/quemu-v8/source/optee_os/lib/libmbedtls/mbedtls/library/bignum.c:1109
    6858:	f1007c3f 	cmp	x1, #0x1f
    685c:	54000468 	b.hi	68e8 <mbedtls_mpi_shift_r+0xb4>  // b.pmore
/home/jayanth/quemu-v8/source/optee_os/lib/libmbedtls/mbedtls/library/bignum.c:1121
    6860:	b5000384 	cbnz	x4, 68d0 <mbedtls_mpi_shift_r+0x9c>
/home/jayanth/quemu-v8/source/optee_os/lib/libmbedtls/mbedtls/library/bignum.c:1133
    6864:	52800000 	mov	w0, #0x0                   	// #0
    6868:	d65f03c0 	ret
/home/jayanth/quemu-v8/source/optee_os/lib/libmbedtls/mbedtls/library/bignum.c:1112 (discriminator 3)
    686c:	f9400801 	ldr	x1, [x0, #16]
    6870:	b8656827 	ldr	w7, [x1, x5]
    6874:	910010a5 	add	x5, x5, #0x4
    6878:	b8237827 	str	w7, [x1, x3, lsl #2]
/home/jayanth/quemu-v8/source/optee_os/lib/libmbedtls/mbedtls/library/bignum.c:1111 (discriminator 3)
    687c:	91000463 	add	x3, x3, #0x1
/home/jayanth/quemu-v8/source/optee_os/lib/libmbedtls/mbedtls/library/bignum.c:1111 (discriminator 1)
    6880:	cb060041 	sub	x1, x2, x6
    6884:	eb03003f 	cmp	x1, x3
    6888:	54ffff28 	b.hi	686c <mbedtls_mpi_shift_r+0x38>  // b.pmore
/home/jayanth/quemu-v8/source/optee_os/lib/libmbedtls/mbedtls/library/bignum.c:1114 (discriminator 1)
    688c:	eb01005f 	cmp	x2, x1
    6890:	54fffe89 	b.ls	6860 <mbedtls_mpi_shift_r+0x2c>  // b.plast
/home/jayanth/quemu-v8/source/optee_os/lib/libmbedtls/mbedtls/library/bignum.c:1115 (discriminator 2)
    6894:	f9400803 	ldr	x3, [x0, #16]
    6898:	b821787f 	str	wzr, [x3, x1, lsl #2]
/home/jayanth/quemu-v8/source/optee_os/lib/libmbedtls/mbedtls/library/bignum.c:1114 (discriminator 2)
    689c:	91000421 	add	x1, x1, #0x1
    68a0:	17fffffb 	b	688c <mbedtls_mpi_shift_r+0x58>
/home/jayanth/quemu-v8/source/optee_os/lib/libmbedtls/mbedtls/library/bignum.c:1125 (discriminator 3)
    68a4:	f9400808 	ldr	x8, [x0, #16]
    68a8:	d37ef441 	lsl	x1, x2, #2
    68ac:	b8616907 	ldr	w7, [x8, x1]
/home/jayanth/quemu-v8/source/optee_os/lib/libmbedtls/mbedtls/library/bignum.c:1126 (discriminator 3)
    68b0:	1ac424e5 	lsr	w5, w7, w4
/home/jayanth/quemu-v8/source/optee_os/lib/libmbedtls/mbedtls/library/bignum.c:1127 (discriminator 3)
    68b4:	2a0600a5 	orr	w5, w5, w6
/home/jayanth/quemu-v8/source/optee_os/lib/libmbedtls/mbedtls/library/bignum.c:1128 (discriminator 3)
    68b8:	1ac320e6 	lsl	w6, w7, w3
/home/jayanth/quemu-v8/source/optee_os/lib/libmbedtls/mbedtls/library/bignum.c:1127 (discriminator 3)
    68bc:	b8216905 	str	w5, [x8, x1]
/home/jayanth/quemu-v8/source/optee_os/lib/libmbedtls/mbedtls/library/bignum.c:1123 (discriminator 1)
    68c0:	d1000442 	sub	x2, x2, #0x1
    68c4:	b100045f 	cmn	x2, #0x1
    68c8:	54fffee1 	b.ne	68a4 <mbedtls_mpi_shift_r+0x70>  // b.any
    68cc:	17ffffe6 	b	6864 <mbedtls_mpi_shift_r+0x30>
/home/jayanth/quemu-v8/source/optee_os/lib/libmbedtls/mbedtls/library/bignum.c:1125
    68d0:	52800403 	mov	w3, #0x20                  	// #32
/home/jayanth/quemu-v8/source/optee_os/lib/libmbedtls/mbedtls/library/bignum.c:1097
    68d4:	52800006 	mov	w6, #0x0                   	// #0
/home/jayanth/quemu-v8/source/optee_os/lib/libmbedtls/mbedtls/library/bignum.c:1125
    68d8:	4b040063 	sub	w3, w3, w4
    68dc:	17fffff9 	b	68c0 <mbedtls_mpi_shift_r+0x8c>
/home/jayanth/quemu-v8/source/optee_os/lib/libmbedtls/mbedtls/library/bignum.c:1109
    68e0:	f1007c3f 	cmp	x1, #0x1f
    68e4:	54fffc09 	b.ls	6864 <mbedtls_mpi_shift_r+0x30>  // b.plast
    68e8:	d37ef4c5 	lsl	x5, x6, #2
/home/jayanth/quemu-v8/source/optee_os/lib/libmbedtls/mbedtls/library/bignum.c:1095 (discriminator 1)
    68ec:	d2800003 	mov	x3, #0x0                   	// #0
    68f0:	17ffffe4 	b	6880 <mbedtls_mpi_shift_r+0x4c>

00000000000068f4 <mbedtls_mpi_cmp_abs>:
mbedtls_mpi_cmp_abs():
/home/jayanth/quemu-v8/source/optee_os/lib/libmbedtls/mbedtls/library/bignum.c:1144
    68f4:	f9400402 	ldr	x2, [x0, #8]
/home/jayanth/quemu-v8/source/optee_os/lib/libmbedtls/mbedtls/library/bignum.c:1144 (discriminator 1)
    68f8:	b50000c2 	cbnz	x2, 6910 <mbedtls_mpi_cmp_abs+0x1c>
/home/jayanth/quemu-v8/source/optee_os/lib/libmbedtls/mbedtls/library/bignum.c:1148
    68fc:	f9400423 	ldr	x3, [x1, #8]
/home/jayanth/quemu-v8/source/optee_os/lib/libmbedtls/mbedtls/library/bignum.c:1148 (discriminator 1)
    6900:	b5000143 	cbnz	x3, 6928 <mbedtls_mpi_cmp_abs+0x34>
/home/jayanth/quemu-v8/source/optee_os/lib/libmbedtls/mbedtls/library/bignum.c:1152
    6904:	f100005f 	cmp	x2, #0x0
    6908:	1a9f07e0 	cset	w0, ne  // ne = any
/home/jayanth/quemu-v8/source/optee_os/lib/libmbedtls/mbedtls/library/bignum.c:1165
    690c:	d65f03c0 	ret
/home/jayanth/quemu-v8/source/optee_os/lib/libmbedtls/mbedtls/library/bignum.c:1145
    6910:	f9400803 	ldr	x3, [x0, #16]
    6914:	8b020863 	add	x3, x3, x2, lsl #2
    6918:	b85fc063 	ldur	w3, [x3, #-4]
    691c:	35ffff03 	cbnz	w3, 68fc <mbedtls_mpi_cmp_abs+0x8>
/home/jayanth/quemu-v8/source/optee_os/lib/libmbedtls/mbedtls/library/bignum.c:1144 (discriminator 2)
    6920:	d1000442 	sub	x2, x2, #0x1
    6924:	17fffff5 	b	68f8 <mbedtls_mpi_cmp_abs+0x4>
/home/jayanth/quemu-v8/source/optee_os/lib/libmbedtls/mbedtls/library/bignum.c:1149
    6928:	f9400824 	ldr	x4, [x1, #16]
    692c:	8b030885 	add	x5, x4, x3, lsl #2
    6930:	b85fc0a5 	ldur	w5, [x5, #-4]
    6934:	340000a5 	cbz	w5, 6948 <mbedtls_mpi_cmp_abs+0x54>
/home/jayanth/quemu-v8/source/optee_os/lib/libmbedtls/mbedtls/library/bignum.c:1155
    6938:	eb03005f 	cmp	x2, x3
    693c:	540000a9 	b.ls	6950 <mbedtls_mpi_cmp_abs+0x5c>  // b.plast
    6940:	52800020 	mov	w0, #0x1                   	// #1
    6944:	17fffff2 	b	690c <mbedtls_mpi_cmp_abs+0x18>
/home/jayanth/quemu-v8/source/optee_os/lib/libmbedtls/mbedtls/library/bignum.c:1148 (discriminator 2)
    6948:	d1000463 	sub	x3, x3, #0x1
    694c:	17ffffed 	b	6900 <mbedtls_mpi_cmp_abs+0xc>
/home/jayanth/quemu-v8/source/optee_os/lib/libmbedtls/mbedtls/library/bignum.c:1156
    6950:	540001c3 	b.cc	6988 <mbedtls_mpi_cmp_abs+0x94>  // b.lo, b.ul, b.last
    6954:	d1000442 	sub	x2, x2, #0x1
/home/jayanth/quemu-v8/source/optee_os/lib/libmbedtls/mbedtls/library/bignum.c:1158 (discriminator 1)
    6958:	b100045f 	cmn	x2, #0x1
    695c:	54000061 	b.ne	6968 <mbedtls_mpi_cmp_abs+0x74>  // b.any
/home/jayanth/quemu-v8/source/optee_os/lib/libmbedtls/mbedtls/library/bignum.c:1153
    6960:	52800000 	mov	w0, #0x0                   	// #0
    6964:	17ffffea 	b	690c <mbedtls_mpi_cmp_abs+0x18>
/home/jayanth/quemu-v8/source/optee_os/lib/libmbedtls/mbedtls/library/bignum.c:1160
    6968:	f9400803 	ldr	x3, [x0, #16]
    696c:	d37ef441 	lsl	x1, x2, #2
    6970:	b8616863 	ldr	w3, [x3, x1]
    6974:	b8616881 	ldr	w1, [x4, x1]
    6978:	6b01007f 	cmp	w3, w1
    697c:	54fffe28 	b.hi	6940 <mbedtls_mpi_cmp_abs+0x4c>  // b.pmore
/home/jayanth/quemu-v8/source/optee_os/lib/libmbedtls/mbedtls/library/bignum.c:1161
    6980:	d1000442 	sub	x2, x2, #0x1
    6984:	54fffea2 	b.cs	6958 <mbedtls_mpi_cmp_abs+0x64>  // b.hs, b.nlast
/home/jayanth/quemu-v8/source/optee_os/lib/libmbedtls/mbedtls/library/bignum.c:1156
    6988:	12800000 	mov	w0, #0xffffffff            	// #-1
    698c:	17ffffe0 	b	690c <mbedtls_mpi_cmp_abs+0x18>

0000000000006990 <mbedtls_mpi_cmp_mpi>:
mbedtls_mpi_cmp_mpi():
/home/jayanth/quemu-v8/source/optee_os/lib/libmbedtls/mbedtls/library/bignum.c:1176
    6990:	f9400402 	ldr	x2, [x0, #8]
/home/jayanth/quemu-v8/source/optee_os/lib/libmbedtls/mbedtls/library/bignum.c:1171
    6994:	aa0003e3 	mov	x3, x0
/home/jayanth/quemu-v8/source/optee_os/lib/libmbedtls/mbedtls/library/bignum.c:1176 (discriminator 1)
    6998:	b5000102 	cbnz	x2, 69b8 <mbedtls_mpi_cmp_mpi+0x28>
/home/jayanth/quemu-v8/source/optee_os/lib/libmbedtls/mbedtls/library/bignum.c:1180
    699c:	f9400420 	ldr	x0, [x1, #8]
/home/jayanth/quemu-v8/source/optee_os/lib/libmbedtls/mbedtls/library/bignum.c:1180 (discriminator 1)
    69a0:	b5000180 	cbnz	x0, 69d0 <mbedtls_mpi_cmp_mpi+0x40>
/home/jayanth/quemu-v8/source/optee_os/lib/libmbedtls/mbedtls/library/bignum.c:1184
    69a4:	b40005c2 	cbz	x2, 6a5c <mbedtls_mpi_cmp_mpi+0xcc>
/home/jayanth/quemu-v8/source/optee_os/lib/libmbedtls/mbedtls/library/bignum.c:1187
    69a8:	eb00005f 	cmp	x2, x0
    69ac:	540001e9 	b.ls	69e8 <mbedtls_mpi_cmp_mpi+0x58>  // b.plast
/home/jayanth/quemu-v8/source/optee_os/lib/libmbedtls/mbedtls/library/bignum.c:1187 (discriminator 1)
    69b0:	79c00060 	ldrsh	w0, [x3]
/home/jayanth/quemu-v8/source/optee_os/lib/libmbedtls/mbedtls/library/bignum.c:1200
    69b4:	d65f03c0 	ret
/home/jayanth/quemu-v8/source/optee_os/lib/libmbedtls/mbedtls/library/bignum.c:1177
    69b8:	f9400860 	ldr	x0, [x3, #16]
    69bc:	8b020800 	add	x0, x0, x2, lsl #2
    69c0:	b85fc000 	ldur	w0, [x0, #-4]
    69c4:	35fffec0 	cbnz	w0, 699c <mbedtls_mpi_cmp_mpi+0xc>
/home/jayanth/quemu-v8/source/optee_os/lib/libmbedtls/mbedtls/library/bignum.c:1176 (discriminator 2)
    69c8:	d1000442 	sub	x2, x2, #0x1
    69cc:	17fffff3 	b	6998 <mbedtls_mpi_cmp_mpi+0x8>
/home/jayanth/quemu-v8/source/optee_os/lib/libmbedtls/mbedtls/library/bignum.c:1181
    69d0:	f9400824 	ldr	x4, [x1, #16]
    69d4:	8b000884 	add	x4, x4, x0, lsl #2
    69d8:	b85fc084 	ldur	w4, [x4, #-4]
    69dc:	35fffe64 	cbnz	w4, 69a8 <mbedtls_mpi_cmp_mpi+0x18>
/home/jayanth/quemu-v8/source/optee_os/lib/libmbedtls/mbedtls/library/bignum.c:1180 (discriminator 2)
    69e0:	d1000400 	sub	x0, x0, #0x1
    69e4:	17ffffef 	b	69a0 <mbedtls_mpi_cmp_mpi+0x10>
/home/jayanth/quemu-v8/source/optee_os/lib/libmbedtls/mbedtls/library/bignum.c:1188
    69e8:	79c00024 	ldrsh	w4, [x1]
    69ec:	54000062 	b.cs	69f8 <mbedtls_mpi_cmp_mpi+0x68>  // b.hs, b.nlast
/home/jayanth/quemu-v8/source/optee_os/lib/libmbedtls/mbedtls/library/bignum.c:1188 (discriminator 1)
    69f0:	4b0403e0 	neg	w0, w4
    69f4:	17fffff0 	b	69b4 <mbedtls_mpi_cmp_mpi+0x24>
/home/jayanth/quemu-v8/source/optee_os/lib/libmbedtls/mbedtls/library/bignum.c:1190
    69f8:	79c00060 	ldrsh	w0, [x3]
    69fc:	7100001f 	cmp	w0, #0x0
    6a00:	5400008d 	b.le	6a10 <mbedtls_mpi_cmp_mpi+0x80>
/home/jayanth/quemu-v8/source/optee_os/lib/libmbedtls/mbedtls/library/bignum.c:1190 (discriminator 1)
    6a04:	36f80264 	tbz	w4, #31, 6a50 <mbedtls_mpi_cmp_mpi+0xc0>
/home/jayanth/quemu-v8/source/optee_os/lib/libmbedtls/mbedtls/library/bignum.c:1190
    6a08:	52800020 	mov	w0, #0x1                   	// #1
    6a0c:	17ffffea 	b	69b4 <mbedtls_mpi_cmp_mpi+0x24>
/home/jayanth/quemu-v8/source/optee_os/lib/libmbedtls/mbedtls/library/bignum.c:1191
    6a10:	7100009f 	cmp	w4, #0x0
    6a14:	540001ed 	b.le	6a50 <mbedtls_mpi_cmp_mpi+0xc0>
/home/jayanth/quemu-v8/source/optee_os/lib/libmbedtls/mbedtls/library/bignum.c:1191 (discriminator 1)
    6a18:	340001c0 	cbz	w0, 6a50 <mbedtls_mpi_cmp_mpi+0xc0>
/home/jayanth/quemu-v8/source/optee_os/lib/libmbedtls/mbedtls/library/bignum.c:1191
    6a1c:	12800000 	mov	w0, #0xffffffff            	// #-1
    6a20:	17ffffe5 	b	69b4 <mbedtls_mpi_cmp_mpi+0x24>
/home/jayanth/quemu-v8/source/optee_os/lib/libmbedtls/mbedtls/library/bignum.c:1195
    6a24:	f9400826 	ldr	x6, [x1, #16]
    6a28:	d37ef444 	lsl	x4, x2, #2
    6a2c:	f9400865 	ldr	x5, [x3, #16]
    6a30:	b86468a5 	ldr	w5, [x5, x4]
    6a34:	b86468c4 	ldr	w4, [x6, x4]
    6a38:	6b0400bf 	cmp	w5, w4
    6a3c:	54fffbc8 	b.hi	69b4 <mbedtls_mpi_cmp_mpi+0x24>  // b.pmore
/home/jayanth/quemu-v8/source/optee_os/lib/libmbedtls/mbedtls/library/bignum.c:1196
    6a40:	d1000442 	sub	x2, x2, #0x1
    6a44:	54000082 	b.cs	6a54 <mbedtls_mpi_cmp_mpi+0xc4>  // b.hs, b.nlast
/home/jayanth/quemu-v8/source/optee_os/lib/libmbedtls/mbedtls/library/bignum.c:1196 (discriminator 1)
    6a48:	4b0003e0 	neg	w0, w0
    6a4c:	17ffffda 	b	69b4 <mbedtls_mpi_cmp_mpi+0x24>
    6a50:	d1000442 	sub	x2, x2, #0x1
/home/jayanth/quemu-v8/source/optee_os/lib/libmbedtls/mbedtls/library/bignum.c:1193 (discriminator 1)
    6a54:	b100045f 	cmn	x2, #0x1
    6a58:	54fffe61 	b.ne	6a24 <mbedtls_mpi_cmp_mpi+0x94>  // b.any
/home/jayanth/quemu-v8/source/optee_os/lib/libmbedtls/mbedtls/library/bignum.c:1185
    6a5c:	52800000 	mov	w0, #0x0                   	// #0
    6a60:	17ffffd5 	b	69b4 <mbedtls_mpi_cmp_mpi+0x24>

0000000000006a64 <mbedtls_mpi_lt_mpi_ct>:
mbedtls_mpi_lt_mpi_ct():
/home/jayanth/quemu-v8/source/optee_os/lib/libmbedtls/mbedtls/library/bignum.c:1251
    6a64:	f9400407 	ldr	x7, [x0, #8]
    6a68:	f9400423 	ldr	x3, [x1, #8]
    6a6c:	eb0300ff 	cmp	x7, x3
    6a70:	540005c1 	b.ne	6b28 <mbedtls_mpi_lt_mpi_ct+0xc4>  // b.any
/home/jayanth/quemu-v8/source/optee_os/lib/libmbedtls/mbedtls/library/bignum.c:1258
    6a74:	79400005 	ldrh	w5, [x0]
/home/jayanth/quemu-v8/source/optee_os/lib/libmbedtls/mbedtls/library/bignum.c:1285
    6a78:	5280002a 	mov	w10, #0x1                   	// #1
/home/jayanth/quemu-v8/source/optee_os/lib/libmbedtls/mbedtls/library/bignum.c:1259
    6a7c:	79400023 	ldrh	w3, [x1]
/home/jayanth/quemu-v8/source/optee_os/lib/libmbedtls/mbedtls/library/bignum.c:1258
    6a80:	d34104a9 	ubfx	x9, x5, #1, #1
/home/jayanth/quemu-v8/source/optee_os/lib/libmbedtls/mbedtls/library/bignum.c:1266
    6a84:	ca0300a5 	eor	x5, x5, x3
/home/jayanth/quemu-v8/source/optee_os/lib/libmbedtls/mbedtls/library/bignum.c:1296
    6a88:	4b09014c 	sub	w12, w10, w9
/home/jayanth/quemu-v8/source/optee_os/lib/libmbedtls/mbedtls/library/bignum.c:1266
    6a8c:	d34104a3 	ubfx	x3, x5, #1, #1
/home/jayanth/quemu-v8/source/optee_os/lib/libmbedtls/mbedtls/library/bignum.c:1267
    6a90:	0a450525 	and	w5, w9, w5, lsr #1
    6a94:	b9000045 	str	w5, [x2]
/home/jayanth/quemu-v8/source/optee_os/lib/libmbedtls/mbedtls/library/bignum.c:1275 (discriminator 1)
    6a98:	d10004e7 	sub	x7, x7, #0x1
    6a9c:	b10004ff 	cmn	x7, #0x1
    6aa0:	54000061 	b.ne	6aac <mbedtls_mpi_lt_mpi_ct+0x48>  // b.any
/home/jayanth/quemu-v8/source/optee_os/lib/libmbedtls/mbedtls/library/bignum.c:1300
    6aa4:	52800000 	mov	w0, #0x0                   	// #0
/home/jayanth/quemu-v8/source/optee_os/lib/libmbedtls/mbedtls/library/bignum.c:1301
    6aa8:	d65f03c0 	ret
/home/jayanth/quemu-v8/source/optee_os/lib/libmbedtls/mbedtls/library/bignum.c:1284 (discriminator 3)
    6aac:	f940080d 	ldr	x13, [x0, #16]
    6ab0:	d37ef4e8 	lsl	x8, x7, #2
    6ab4:	f940082b 	ldr	x11, [x1, #16]
    6ab8:	b86869a4 	ldr	w4, [x13, x8]
    6abc:	b8686965 	ldr	w5, [x11, x8]
ct_lt_mpi_uint():
/home/jayanth/quemu-v8/source/optee_os/lib/libmbedtls/mbedtls/library/bignum.c:1223 (discriminator 3)
    6ac0:	4b0400a6 	sub	w6, w5, w4
/home/jayanth/quemu-v8/source/optee_os/lib/libmbedtls/mbedtls/library/bignum.c:1218 (discriminator 3)
    6ac4:	4a0400a5 	eor	w5, w5, w4
/home/jayanth/quemu-v8/source/optee_os/lib/libmbedtls/mbedtls/library/bignum.c:1229 (discriminator 3)
    6ac8:	4a060084 	eor	w4, w4, w6
    6acc:	0a0400a4 	and	w4, w5, w4
    6ad0:	4a060084 	eor	w4, w4, w6
mbedtls_mpi_lt_mpi_ct():
/home/jayanth/quemu-v8/source/optee_os/lib/libmbedtls/mbedtls/library/bignum.c:1285 (discriminator 3)
    6ad4:	4b030146 	sub	w6, w10, w3
    6ad8:	0a447d25 	and	w5, w9, w4, lsr #31
    6adc:	0a0500c6 	and	w6, w6, w5
    6ae0:	b9400045 	ldr	w5, [x2]
    6ae4:	2a0500c6 	orr	w6, w6, w5
    6ae8:	b9000046 	str	w6, [x2]
/home/jayanth/quemu-v8/source/optee_os/lib/libmbedtls/mbedtls/library/bignum.c:1286 (discriminator 3)
    6aec:	2a447c65 	orr	w5, w3, w4, lsr #31
/home/jayanth/quemu-v8/source/optee_os/lib/libmbedtls/mbedtls/library/bignum.c:1295 (discriminator 3)
    6af0:	b8686963 	ldr	w3, [x11, x8]
    6af4:	b86869a4 	ldr	w4, [x13, x8]
ct_lt_mpi_uint():
/home/jayanth/quemu-v8/source/optee_os/lib/libmbedtls/mbedtls/library/bignum.c:1223 (discriminator 3)
    6af8:	4b030088 	sub	w8, w4, w3
/home/jayanth/quemu-v8/source/optee_os/lib/libmbedtls/mbedtls/library/bignum.c:1218 (discriminator 3)
    6afc:	4a030084 	eor	w4, w4, w3
/home/jayanth/quemu-v8/source/optee_os/lib/libmbedtls/mbedtls/library/bignum.c:1229 (discriminator 3)
    6b00:	4a080063 	eor	w3, w3, w8
    6b04:	0a030083 	and	w3, w4, w3
    6b08:	4a080063 	eor	w3, w3, w8
mbedtls_mpi_lt_mpi_ct():
/home/jayanth/quemu-v8/source/optee_os/lib/libmbedtls/mbedtls/library/bignum.c:1296 (discriminator 3)
    6b0c:	4b050148 	sub	w8, w10, w5
    6b10:	0a437d84 	and	w4, w12, w3, lsr #31
/home/jayanth/quemu-v8/source/optee_os/lib/libmbedtls/mbedtls/library/bignum.c:1297 (discriminator 3)
    6b14:	2a437ca3 	orr	w3, w5, w3, lsr #31
/home/jayanth/quemu-v8/source/optee_os/lib/libmbedtls/mbedtls/library/bignum.c:1296 (discriminator 3)
    6b18:	0a080084 	and	w4, w4, w8
    6b1c:	2a060086 	orr	w6, w4, w6
    6b20:	b9000046 	str	w6, [x2]
/home/jayanth/quemu-v8/source/optee_os/lib/libmbedtls/mbedtls/library/bignum.c:1275 (discriminator 3)
    6b24:	17ffffdd 	b	6a98 <mbedtls_mpi_lt_mpi_ct+0x34>
/home/jayanth/quemu-v8/source/optee_os/lib/libmbedtls/mbedtls/library/bignum.c:1252
    6b28:	12800060 	mov	w0, #0xfffffffc            	// #-4
    6b2c:	17ffffdf 	b	6aa8 <mbedtls_mpi_lt_mpi_ct+0x44>

0000000000006b30 <mbedtls_mpi_cmp_int>:
mbedtls_mpi_cmp_int():
/home/jayanth/quemu-v8/source/optee_os/lib/libmbedtls/mbedtls/library/bignum.c:1307
    6b30:	a9bd7bfd 	stp	x29, x30, [sp, #-48]!
/home/jayanth/quemu-v8/source/optee_os/lib/libmbedtls/mbedtls/library/bignum.c:1312
    6b34:	7100003f 	cmp	w1, #0x0
    6b38:	5a81a422 	cneg	w2, w1, lt  // lt = tstop
/home/jayanth/quemu-v8/source/optee_os/lib/libmbedtls/mbedtls/library/bignum.c:1307
    6b3c:	910003fd 	mov	x29, sp
/home/jayanth/quemu-v8/source/optee_os/lib/libmbedtls/mbedtls/library/bignum.c:1312
    6b40:	b90013e2 	str	w2, [sp, #16]
/home/jayanth/quemu-v8/source/optee_os/lib/libmbedtls/mbedtls/library/bignum.c:1313
    6b44:	52800022 	mov	w2, #0x1                   	// #1
    6b48:	5a82a442 	cneg	w2, w2, lt  // lt = tstop
/home/jayanth/quemu-v8/source/optee_os/lib/libmbedtls/mbedtls/library/bignum.c:1314
    6b4c:	d2800021 	mov	x1, #0x1                   	// #1
    6b50:	f90013e1 	str	x1, [sp, #32]
/home/jayanth/quemu-v8/source/optee_os/lib/libmbedtls/mbedtls/library/bignum.c:1315
    6b54:	910043e1 	add	x1, sp, #0x10
/home/jayanth/quemu-v8/source/optee_os/lib/libmbedtls/mbedtls/library/bignum.c:1313
    6b58:	790033e2 	strh	w2, [sp, #24]
/home/jayanth/quemu-v8/source/optee_os/lib/libmbedtls/mbedtls/library/bignum.c:1315
    6b5c:	f90017e1 	str	x1, [sp, #40]
/home/jayanth/quemu-v8/source/optee_os/lib/libmbedtls/mbedtls/library/bignum.c:1317
    6b60:	910063e1 	add	x1, sp, #0x18
    6b64:	97ffff8b 	bl	6990 <mbedtls_mpi_cmp_mpi>
/home/jayanth/quemu-v8/source/optee_os/lib/libmbedtls/mbedtls/library/bignum.c:1318
    6b68:	a8c37bfd 	ldp	x29, x30, [sp], #48
    6b6c:	d65f03c0 	ret

0000000000006b70 <mbedtls_mpi_add_abs>:
mbedtls_mpi_add_abs():
/home/jayanth/quemu-v8/source/optee_os/lib/libmbedtls/mbedtls/library/bignum.c:1324
    6b70:	a9bc7bfd 	stp	x29, x30, [sp, #-64]!
/home/jayanth/quemu-v8/source/optee_os/lib/libmbedtls/mbedtls/library/bignum.c:1332
    6b74:	eb02001f 	cmp	x0, x2
/home/jayanth/quemu-v8/source/optee_os/lib/libmbedtls/mbedtls/library/bignum.c:1324
    6b78:	910003fd 	mov	x29, sp
    6b7c:	a90153f3 	stp	x19, x20, [sp, #16]
    6b80:	aa0003f4 	mov	x20, x0
    6b84:	a9025bf5 	stp	x21, x22, [sp, #32]
    6b88:	aa0103f6 	mov	x22, x1
    6b8c:	f9001bf7 	str	x23, [sp, #48]
/home/jayanth/quemu-v8/source/optee_os/lib/libmbedtls/mbedtls/library/bignum.c:1332
    6b90:	540000a0 	b.eq	6ba4 <mbedtls_mpi_add_abs+0x34>  // b.none
    6b94:	aa0203f3 	mov	x19, x2
/home/jayanth/quemu-v8/source/optee_os/lib/libmbedtls/mbedtls/library/bignum.c:1337
    6b98:	eb01001f 	cmp	x0, x1
    6b9c:	54000461 	b.ne	6c28 <mbedtls_mpi_add_abs+0xb8>  // b.any
/home/jayanth/quemu-v8/source/optee_os/lib/libmbedtls/mbedtls/library/bignum.c:1324
    6ba0:	aa1303f6 	mov	x22, x19
/home/jayanth/quemu-v8/source/optee_os/lib/libmbedtls/mbedtls/library/bignum.c:1345 (discriminator 2)
    6ba4:	f94006d3 	ldr	x19, [x22, #8]
/home/jayanth/quemu-v8/source/optee_os/lib/libmbedtls/mbedtls/library/bignum.c:1343 (discriminator 2)
    6ba8:	52800020 	mov	w0, #0x1                   	// #1
    6bac:	79000280 	strh	w0, [x20]
/home/jayanth/quemu-v8/source/optee_os/lib/libmbedtls/mbedtls/library/bignum.c:1345 (discriminator 1)
    6bb0:	b50004f3 	cbnz	x19, 6c4c <mbedtls_mpi_add_abs+0xdc>
/home/jayanth/quemu-v8/source/optee_os/lib/libmbedtls/mbedtls/library/bignum.c:1349
    6bb4:	aa1303e1 	mov	x1, x19
    6bb8:	aa1403e0 	mov	x0, x20
    6bbc:	97fffc76 	bl	5d94 <mbedtls_mpi_grow>
    6bc0:	2a0003f5 	mov	w21, w0
    6bc4:	35000380 	cbnz	w0, 6c34 <mbedtls_mpi_add_abs+0xc4>
/home/jayanth/quemu-v8/source/optee_os/lib/libmbedtls/mbedtls/library/bignum.c:1351 (discriminator 2)
    6bc8:	f9400a82 	ldr	x2, [x20, #16]
/home/jayanth/quemu-v8/source/optee_os/lib/libmbedtls/mbedtls/library/bignum.c:1356 (discriminator 2)
    6bcc:	d2800001 	mov	x1, #0x0                   	// #0
/home/jayanth/quemu-v8/source/optee_os/lib/libmbedtls/mbedtls/library/bignum.c:1351 (discriminator 2)
    6bd0:	f9400ac4 	ldr	x4, [x22, #16]
    6bd4:	52800016 	mov	w22, #0x0                   	// #0
/home/jayanth/quemu-v8/source/optee_os/lib/libmbedtls/mbedtls/library/bignum.c:1356 (discriminator 1)
    6bd8:	eb01027f 	cmp	x19, x1
    6bdc:	54000441 	b.ne	6c64 <mbedtls_mpi_add_abs+0xf4>  // b.any
    6be0:	8b130842 	add	x2, x2, x19, lsl #2
/home/jayanth/quemu-v8/source/optee_os/lib/libmbedtls/mbedtls/library/bignum.c:1363
    6be4:	34000296 	cbz	w22, 6c34 <mbedtls_mpi_add_abs+0xc4>
/home/jayanth/quemu-v8/source/optee_os/lib/libmbedtls/mbedtls/library/bignum.c:1365
    6be8:	f9400680 	ldr	x0, [x20, #8]
    6bec:	91000677 	add	x23, x19, #0x1
    6bf0:	eb13001f 	cmp	x0, x19
    6bf4:	540000e8 	b.hi	6c10 <mbedtls_mpi_add_abs+0xa0>  // b.pmore
/home/jayanth/quemu-v8/source/optee_os/lib/libmbedtls/mbedtls/library/bignum.c:1367
    6bf8:	aa1703e1 	mov	x1, x23
    6bfc:	aa1403e0 	mov	x0, x20
    6c00:	97fffc65 	bl	5d94 <mbedtls_mpi_grow>
    6c04:	35000420 	cbnz	w0, 6c88 <mbedtls_mpi_add_abs+0x118>
/home/jayanth/quemu-v8/source/optee_os/lib/libmbedtls/mbedtls/library/bignum.c:1368 (discriminator 2)
    6c08:	f9400a82 	ldr	x2, [x20, #16]
    6c0c:	8b130842 	add	x2, x2, x19, lsl #2
/home/jayanth/quemu-v8/source/optee_os/lib/libmbedtls/mbedtls/library/bignum.c:1371
    6c10:	b9400040 	ldr	w0, [x2]
    6c14:	aa1703f3 	mov	x19, x23
    6c18:	2b160016 	adds	w22, w0, w22
    6c1c:	b8004456 	str	w22, [x2], #4
    6c20:	1a9f37f6 	cset	w22, cs  // cs = hs, nlast
    6c24:	17fffff0 	b	6be4 <mbedtls_mpi_add_abs+0x74>
/home/jayanth/quemu-v8/source/optee_os/lib/libmbedtls/mbedtls/library/bignum.c:1338
    6c28:	97fffcdd 	bl	5f9c <mbedtls_mpi_copy>
    6c2c:	2a0003f5 	mov	w21, w0
    6c30:	34fffb80 	cbz	w0, 6ba0 <mbedtls_mpi_add_abs+0x30>
/home/jayanth/quemu-v8/source/optee_os/lib/libmbedtls/mbedtls/library/bignum.c:1377
    6c34:	2a1503e0 	mov	w0, w21
    6c38:	a94153f3 	ldp	x19, x20, [sp, #16]
    6c3c:	a9425bf5 	ldp	x21, x22, [sp, #32]
    6c40:	f9401bf7 	ldr	x23, [sp, #48]
    6c44:	a8c47bfd 	ldp	x29, x30, [sp], #64
    6c48:	d65f03c0 	ret
/home/jayanth/quemu-v8/source/optee_os/lib/libmbedtls/mbedtls/library/bignum.c:1346
    6c4c:	f9400ac0 	ldr	x0, [x22, #16]
    6c50:	8b130800 	add	x0, x0, x19, lsl #2
    6c54:	b85fc000 	ldur	w0, [x0, #-4]
    6c58:	35fffae0 	cbnz	w0, 6bb4 <mbedtls_mpi_add_abs+0x44>
/home/jayanth/quemu-v8/source/optee_os/lib/libmbedtls/mbedtls/library/bignum.c:1345 (discriminator 2)
    6c5c:	d1000673 	sub	x19, x19, #0x1
    6c60:	17ffffd4 	b	6bb0 <mbedtls_mpi_add_abs+0x40>
/home/jayanth/quemu-v8/source/optee_os/lib/libmbedtls/mbedtls/library/bignum.c:1358 (discriminator 3)
    6c64:	b8617840 	ldr	w0, [x2, x1, lsl #2]
    6c68:	b8617883 	ldr	w3, [x4, x1, lsl #2]
/home/jayanth/quemu-v8/source/optee_os/lib/libmbedtls/mbedtls/library/bignum.c:1359 (discriminator 3)
    6c6c:	2b160000 	adds	w0, w0, w22
    6c70:	1a9f37f6 	cset	w22, cs  // cs = hs, nlast
/home/jayanth/quemu-v8/source/optee_os/lib/libmbedtls/mbedtls/library/bignum.c:1360 (discriminator 3)
    6c74:	2b030000 	adds	w0, w0, w3
    6c78:	1a9636d6 	cinc	w22, w22, cs  // cs = hs, nlast
    6c7c:	b8217840 	str	w0, [x2, x1, lsl #2]
/home/jayanth/quemu-v8/source/optee_os/lib/libmbedtls/mbedtls/library/bignum.c:1356 (discriminator 3)
    6c80:	91000421 	add	x1, x1, #0x1
    6c84:	17ffffd5 	b	6bd8 <mbedtls_mpi_add_abs+0x68>
/home/jayanth/quemu-v8/source/optee_os/lib/libmbedtls/mbedtls/library/bignum.c:1367
    6c88:	2a0003f5 	mov	w21, w0
/home/jayanth/quemu-v8/source/optee_os/lib/libmbedtls/mbedtls/library/bignum.c:1376
    6c8c:	17ffffea 	b	6c34 <mbedtls_mpi_add_abs+0xc4>

0000000000006c90 <mbedtls_mpi_sub_abs>:
mbedtls_mpi_sub_abs():
/home/jayanth/quemu-v8/source/optee_os/lib/libmbedtls/mbedtls/library/bignum.c:1404
    6c90:	a9ba7bfd 	stp	x29, x30, [sp, #-96]!
    6c94:	910003fd 	mov	x29, sp
    6c98:	a9025bf5 	stp	x21, x22, [sp, #32]
    6c9c:	aa0103f6 	mov	x22, x1
    6ca0:	aa0003f5 	mov	x21, x0
/home/jayanth/quemu-v8/source/optee_os/lib/libmbedtls/mbedtls/library/bignum.c:1412
    6ca4:	aa0203e1 	mov	x1, x2
    6ca8:	aa1603e0 	mov	x0, x22
/home/jayanth/quemu-v8/source/optee_os/lib/libmbedtls/mbedtls/library/bignum.c:1404
    6cac:	a90153f3 	stp	x19, x20, [sp, #16]
    6cb0:	aa0203f4 	mov	x20, x2
    6cb4:	f9001bf7 	str	x23, [sp, #48]
/home/jayanth/quemu-v8/source/optee_os/lib/libmbedtls/mbedtls/library/bignum.c:1412
    6cb8:	97ffff0f 	bl	68f4 <mbedtls_mpi_cmp_abs>
    6cbc:	37f80500 	tbnz	w0, #31, 6d5c <mbedtls_mpi_sub_abs+0xcc>
/home/jayanth/quemu-v8/source/optee_os/lib/libmbedtls/mbedtls/library/bignum.c:1415
    6cc0:	910123f7 	add	x23, sp, #0x48
    6cc4:	aa1703e0 	mov	x0, x23
    6cc8:	97fffc0e 	bl	5d00 <mbedtls_mpi_init_mempool>
/home/jayanth/quemu-v8/source/optee_os/lib/libmbedtls/mbedtls/library/bignum.c:1417
    6ccc:	eb15029f 	cmp	x20, x21
    6cd0:	540000e1 	b.ne	6cec <mbedtls_mpi_sub_abs+0x5c>  // b.any
/home/jayanth/quemu-v8/source/optee_os/lib/libmbedtls/mbedtls/library/bignum.c:1419
    6cd4:	aa1403e1 	mov	x1, x20
    6cd8:	aa1703e0 	mov	x0, x23
    6cdc:	97fffcb0 	bl	5f9c <mbedtls_mpi_copy>
    6ce0:	2a0003f3 	mov	w19, w0
    6ce4:	35000220 	cbnz	w0, 6d28 <mbedtls_mpi_sub_abs+0x98>
/home/jayanth/quemu-v8/source/optee_os/lib/libmbedtls/mbedtls/library/bignum.c:1420
    6ce8:	aa1703f4 	mov	x20, x23
/home/jayanth/quemu-v8/source/optee_os/lib/libmbedtls/mbedtls/library/bignum.c:1423
    6cec:	eb1502df 	cmp	x22, x21
    6cf0:	54000121 	b.ne	6d14 <mbedtls_mpi_sub_abs+0x84>  // b.any
/home/jayanth/quemu-v8/source/optee_os/lib/libmbedtls/mbedtls/library/bignum.c:1429
    6cf4:	52800020 	mov	w0, #0x1                   	// #1
    6cf8:	790002a0 	strh	w0, [x21]
/home/jayanth/quemu-v8/source/optee_os/lib/libmbedtls/mbedtls/library/bignum.c:1433
    6cfc:	a9408680 	ldp	x0, x1, [x20, #8]
/home/jayanth/quemu-v8/source/optee_os/lib/libmbedtls/mbedtls/library/bignum.c:1433 (discriminator 1)
    6d00:	b5000240 	cbnz	x0, 6d48 <mbedtls_mpi_sub_abs+0xb8>
/home/jayanth/quemu-v8/source/optee_os/lib/libmbedtls/mbedtls/library/bignum.c:1437
    6d04:	f9400aa2 	ldr	x2, [x21, #16]
/home/jayanth/quemu-v8/source/optee_os/lib/libmbedtls/mbedtls/library/bignum.c:1431
    6d08:	52800013 	mov	w19, #0x0                   	// #0
/home/jayanth/quemu-v8/source/optee_os/lib/libmbedtls/mbedtls/library/bignum.c:1437
    6d0c:	97fffac3 	bl	5818 <mpi_sub_hlp>
    6d10:	14000006 	b	6d28 <mbedtls_mpi_sub_abs+0x98>
/home/jayanth/quemu-v8/source/optee_os/lib/libmbedtls/mbedtls/library/bignum.c:1424
    6d14:	aa1603e1 	mov	x1, x22
    6d18:	aa1503e0 	mov	x0, x21
    6d1c:	97fffca0 	bl	5f9c <mbedtls_mpi_copy>
    6d20:	2a0003f3 	mov	w19, w0
    6d24:	34fffe80 	cbz	w0, 6cf4 <mbedtls_mpi_sub_abs+0x64>
/home/jayanth/quemu-v8/source/optee_os/lib/libmbedtls/mbedtls/library/bignum.c:1441
    6d28:	aa1703e0 	mov	x0, x23
    6d2c:	97fffbff 	bl	5d28 <mbedtls_mpi_free>
/home/jayanth/quemu-v8/source/optee_os/lib/libmbedtls/mbedtls/library/bignum.c:1444
    6d30:	2a1303e0 	mov	w0, w19
    6d34:	a94153f3 	ldp	x19, x20, [sp, #16]
    6d38:	a9425bf5 	ldp	x21, x22, [sp, #32]
    6d3c:	f9401bf7 	ldr	x23, [sp, #48]
    6d40:	a8c67bfd 	ldp	x29, x30, [sp], #96
    6d44:	d65f03c0 	ret
/home/jayanth/quemu-v8/source/optee_os/lib/libmbedtls/mbedtls/library/bignum.c:1434
    6d48:	8b000822 	add	x2, x1, x0, lsl #2
    6d4c:	b85fc042 	ldur	w2, [x2, #-4]
    6d50:	35fffda2 	cbnz	w2, 6d04 <mbedtls_mpi_sub_abs+0x74>
/home/jayanth/quemu-v8/source/optee_os/lib/libmbedtls/mbedtls/library/bignum.c:1433 (discriminator 2)
    6d54:	d1000400 	sub	x0, x0, #0x1
    6d58:	17ffffea 	b	6d00 <mbedtls_mpi_sub_abs+0x70>
/home/jayanth/quemu-v8/source/optee_os/lib/libmbedtls/mbedtls/library/bignum.c:1413
    6d5c:	12800133 	mov	w19, #0xfffffff6            	// #-10
    6d60:	17fffff4 	b	6d30 <mbedtls_mpi_sub_abs+0xa0>

0000000000006d64 <mbedtls_mpi_add_mpi>:
mbedtls_mpi_add_mpi():
/home/jayanth/quemu-v8/source/optee_os/lib/libmbedtls/mbedtls/library/bignum.c:1450
    6d64:	a9bd7bfd 	stp	x29, x30, [sp, #-48]!
    6d68:	910003fd 	mov	x29, sp
/home/jayanth/quemu-v8/source/optee_os/lib/libmbedtls/mbedtls/library/bignum.c:1457
    6d6c:	79c00043 	ldrsh	w3, [x2]
/home/jayanth/quemu-v8/source/optee_os/lib/libmbedtls/mbedtls/library/bignum.c:1450
    6d70:	a90153f3 	stp	x19, x20, [sp, #16]
    6d74:	aa0003f3 	mov	x19, x0
/home/jayanth/quemu-v8/source/optee_os/lib/libmbedtls/mbedtls/library/bignum.c:1456
    6d78:	79c00034 	ldrsh	w20, [x1]
/home/jayanth/quemu-v8/source/optee_os/lib/libmbedtls/mbedtls/library/bignum.c:1450
    6d7c:	a9025bf5 	stp	x21, x22, [sp, #32]
/home/jayanth/quemu-v8/source/optee_os/lib/libmbedtls/mbedtls/library/bignum.c:1457
    6d80:	1b147c63 	mul	w3, w3, w20
    6d84:	36f80303 	tbz	w3, #31, 6de4 <mbedtls_mpi_add_mpi+0x80>
    6d88:	aa0103f6 	mov	x22, x1
    6d8c:	aa0203f5 	mov	x21, x2
/home/jayanth/quemu-v8/source/optee_os/lib/libmbedtls/mbedtls/library/bignum.c:1459
    6d90:	aa0203e1 	mov	x1, x2
    6d94:	aa1603e0 	mov	x0, x22
    6d98:	97fffed7 	bl	68f4 <mbedtls_mpi_cmp_abs>
    6d9c:	37f80140 	tbnz	w0, #31, 6dc4 <mbedtls_mpi_add_mpi+0x60>
/home/jayanth/quemu-v8/source/optee_os/lib/libmbedtls/mbedtls/library/bignum.c:1461
    6da0:	aa1503e2 	mov	x2, x21
    6da4:	aa1603e1 	mov	x1, x22
    6da8:	aa1303e0 	mov	x0, x19
    6dac:	97ffffb9 	bl	6c90 <mbedtls_mpi_sub_abs>
/home/jayanth/quemu-v8/source/optee_os/lib/libmbedtls/mbedtls/library/bignum.c:1472
    6db0:	34000160 	cbz	w0, 6ddc <mbedtls_mpi_add_mpi+0x78>
/home/jayanth/quemu-v8/source/optee_os/lib/libmbedtls/mbedtls/library/bignum.c:1479
    6db4:	a94153f3 	ldp	x19, x20, [sp, #16]
    6db8:	a9425bf5 	ldp	x21, x22, [sp, #32]
    6dbc:	a8c37bfd 	ldp	x29, x30, [sp], #48
    6dc0:	d65f03c0 	ret
/home/jayanth/quemu-v8/source/optee_os/lib/libmbedtls/mbedtls/library/bignum.c:1466
    6dc4:	aa1603e2 	mov	x2, x22
    6dc8:	aa1503e1 	mov	x1, x21
    6dcc:	aa1303e0 	mov	x0, x19
    6dd0:	97ffffb0 	bl	6c90 <mbedtls_mpi_sub_abs>
    6dd4:	35ffff00 	cbnz	w0, 6db4 <mbedtls_mpi_add_mpi+0x50>
/home/jayanth/quemu-v8/source/optee_os/lib/libmbedtls/mbedtls/library/bignum.c:1467 (discriminator 2)
    6dd8:	4b1403f4 	neg	w20, w20
/home/jayanth/quemu-v8/source/optee_os/lib/libmbedtls/mbedtls/library/bignum.c:1473 (discriminator 2)
    6ddc:	79000274 	strh	w20, [x19]
/home/jayanth/quemu-v8/source/optee_os/lib/libmbedtls/mbedtls/library/bignum.c:1478 (discriminator 2)
    6de0:	17fffff5 	b	6db4 <mbedtls_mpi_add_mpi+0x50>
/home/jayanth/quemu-v8/source/optee_os/lib/libmbedtls/mbedtls/library/bignum.c:1472
    6de4:	97ffff63 	bl	6b70 <mbedtls_mpi_add_abs>
    6de8:	17fffff2 	b	6db0 <mbedtls_mpi_add_mpi+0x4c>

0000000000006dec <mbedtls_mpi_sub_mpi>:
mbedtls_mpi_sub_mpi():
/home/jayanth/quemu-v8/source/optee_os/lib/libmbedtls/mbedtls/library/bignum.c:1485
    6dec:	a9bd7bfd 	stp	x29, x30, [sp, #-48]!
    6df0:	910003fd 	mov	x29, sp
/home/jayanth/quemu-v8/source/optee_os/lib/libmbedtls/mbedtls/library/bignum.c:1492
    6df4:	79c00043 	ldrsh	w3, [x2]
/home/jayanth/quemu-v8/source/optee_os/lib/libmbedtls/mbedtls/library/bignum.c:1485
    6df8:	a90153f3 	stp	x19, x20, [sp, #16]
    6dfc:	aa0003f3 	mov	x19, x0
/home/jayanth/quemu-v8/source/optee_os/lib/libmbedtls/mbedtls/library/bignum.c:1491
    6e00:	79c00034 	ldrsh	w20, [x1]
/home/jayanth/quemu-v8/source/optee_os/lib/libmbedtls/mbedtls/library/bignum.c:1485
    6e04:	a9025bf5 	stp	x21, x22, [sp, #32]
/home/jayanth/quemu-v8/source/optee_os/lib/libmbedtls/mbedtls/library/bignum.c:1492
    6e08:	1b147c63 	mul	w3, w3, w20
    6e0c:	7100007f 	cmp	w3, #0x0
    6e10:	5400030d 	b.le	6e70 <mbedtls_mpi_sub_mpi+0x84>
    6e14:	aa0103f6 	mov	x22, x1
    6e18:	aa0203f5 	mov	x21, x2
/home/jayanth/quemu-v8/source/optee_os/lib/libmbedtls/mbedtls/library/bignum.c:1494
    6e1c:	aa0203e1 	mov	x1, x2
    6e20:	aa1603e0 	mov	x0, x22
    6e24:	97fffeb4 	bl	68f4 <mbedtls_mpi_cmp_abs>
    6e28:	37f80140 	tbnz	w0, #31, 6e50 <mbedtls_mpi_sub_mpi+0x64>
/home/jayanth/quemu-v8/source/optee_os/lib/libmbedtls/mbedtls/library/bignum.c:1496
    6e2c:	aa1503e2 	mov	x2, x21
    6e30:	aa1603e1 	mov	x1, x22
    6e34:	aa1303e0 	mov	x0, x19
    6e38:	97ffff96 	bl	6c90 <mbedtls_mpi_sub_abs>
/home/jayanth/quemu-v8/source/optee_os/lib/libmbedtls/mbedtls/library/bignum.c:1507
    6e3c:	34000160 	cbz	w0, 6e68 <mbedtls_mpi_sub_mpi+0x7c>
/home/jayanth/quemu-v8/source/optee_os/lib/libmbedtls/mbedtls/library/bignum.c:1514
    6e40:	a94153f3 	ldp	x19, x20, [sp, #16]
    6e44:	a9425bf5 	ldp	x21, x22, [sp, #32]
    6e48:	a8c37bfd 	ldp	x29, x30, [sp], #48
    6e4c:	d65f03c0 	ret
/home/jayanth/quemu-v8/source/optee_os/lib/libmbedtls/mbedtls/library/bignum.c:1501
    6e50:	aa1603e2 	mov	x2, x22
    6e54:	aa1503e1 	mov	x1, x21
    6e58:	aa1303e0 	mov	x0, x19
    6e5c:	97ffff8d 	bl	6c90 <mbedtls_mpi_sub_abs>
    6e60:	35ffff00 	cbnz	w0, 6e40 <mbedtls_mpi_sub_mpi+0x54>
/home/jayanth/quemu-v8/source/optee_os/lib/libmbedtls/mbedtls/library/bignum.c:1502 (discriminator 2)
    6e64:	4b1403f4 	neg	w20, w20
/home/jayanth/quemu-v8/source/optee_os/lib/libmbedtls/mbedtls/library/bignum.c:1508 (discriminator 2)
    6e68:	79000274 	strh	w20, [x19]
/home/jayanth/quemu-v8/source/optee_os/lib/libmbedtls/mbedtls/library/bignum.c:1513 (discriminator 2)
    6e6c:	17fffff5 	b	6e40 <mbedtls_mpi_sub_mpi+0x54>
/home/jayanth/quemu-v8/source/optee_os/lib/libmbedtls/mbedtls/library/bignum.c:1507
    6e70:	97ffff40 	bl	6b70 <mbedtls_mpi_add_abs>
    6e74:	17fffff2 	b	6e3c <mbedtls_mpi_sub_mpi+0x50>

0000000000006e78 <mbedtls_mpi_add_int>:
mbedtls_mpi_add_int():
/home/jayanth/quemu-v8/source/optee_os/lib/libmbedtls/mbedtls/library/bignum.c:1520
    6e78:	a9bd7bfd 	stp	x29, x30, [sp, #-48]!
/home/jayanth/quemu-v8/source/optee_os/lib/libmbedtls/mbedtls/library/bignum.c:1526
    6e7c:	7100005f 	cmp	w2, #0x0
    6e80:	5a82a443 	cneg	w3, w2, lt  // lt = tstop
/home/jayanth/quemu-v8/source/optee_os/lib/libmbedtls/mbedtls/library/bignum.c:1520
    6e84:	910003fd 	mov	x29, sp
/home/jayanth/quemu-v8/source/optee_os/lib/libmbedtls/mbedtls/library/bignum.c:1526
    6e88:	b90013e3 	str	w3, [sp, #16]
/home/jayanth/quemu-v8/source/optee_os/lib/libmbedtls/mbedtls/library/bignum.c:1527
    6e8c:	52800023 	mov	w3, #0x1                   	// #1
    6e90:	5a83a463 	cneg	w3, w3, lt  // lt = tstop
/home/jayanth/quemu-v8/source/optee_os/lib/libmbedtls/mbedtls/library/bignum.c:1528
    6e94:	d2800022 	mov	x2, #0x1                   	// #1
    6e98:	f90013e2 	str	x2, [sp, #32]
/home/jayanth/quemu-v8/source/optee_os/lib/libmbedtls/mbedtls/library/bignum.c:1529
    6e9c:	910043e2 	add	x2, sp, #0x10
/home/jayanth/quemu-v8/source/optee_os/lib/libmbedtls/mbedtls/library/bignum.c:1527
    6ea0:	790033e3 	strh	w3, [sp, #24]
/home/jayanth/quemu-v8/source/optee_os/lib/libmbedtls/mbedtls/library/bignum.c:1529
    6ea4:	f90017e2 	str	x2, [sp, #40]
/home/jayanth/quemu-v8/source/optee_os/lib/libmbedtls/mbedtls/library/bignum.c:1531
    6ea8:	910063e2 	add	x2, sp, #0x18
    6eac:	97ffffae 	bl	6d64 <mbedtls_mpi_add_mpi>
/home/jayanth/quemu-v8/source/optee_os/lib/libmbedtls/mbedtls/library/bignum.c:1532
    6eb0:	a8c37bfd 	ldp	x29, x30, [sp], #48
    6eb4:	d65f03c0 	ret

0000000000006eb8 <mbedtls_mpi_sub_int>:
mbedtls_mpi_sub_int():
/home/jayanth/quemu-v8/source/optee_os/lib/libmbedtls/mbedtls/library/bignum.c:1538
    6eb8:	a9bd7bfd 	stp	x29, x30, [sp, #-48]!
/home/jayanth/quemu-v8/source/optee_os/lib/libmbedtls/mbedtls/library/bignum.c:1544
    6ebc:	7100005f 	cmp	w2, #0x0
    6ec0:	5a82a443 	cneg	w3, w2, lt  // lt = tstop
/home/jayanth/quemu-v8/source/optee_os/lib/libmbedtls/mbedtls/library/bignum.c:1538
    6ec4:	910003fd 	mov	x29, sp
/home/jayanth/quemu-v8/source/optee_os/lib/libmbedtls/mbedtls/library/bignum.c:1544
    6ec8:	b90013e3 	str	w3, [sp, #16]
/home/jayanth/quemu-v8/source/optee_os/lib/libmbedtls/mbedtls/library/bignum.c:1545
    6ecc:	52800023 	mov	w3, #0x1                   	// #1
    6ed0:	5a83a463 	cneg	w3, w3, lt  // lt = tstop
/home/jayanth/quemu-v8/source/optee_os/lib/libmbedtls/mbedtls/library/bignum.c:1546
    6ed4:	d2800022 	mov	x2, #0x1                   	// #1
    6ed8:	f90013e2 	str	x2, [sp, #32]
/home/jayanth/quemu-v8/source/optee_os/lib/libmbedtls/mbedtls/library/bignum.c:1547
    6edc:	910043e2 	add	x2, sp, #0x10
/home/jayanth/quemu-v8/source/optee_os/lib/libmbedtls/mbedtls/library/bignum.c:1545
    6ee0:	790033e3 	strh	w3, [sp, #24]
/home/jayanth/quemu-v8/source/optee_os/lib/libmbedtls/mbedtls/library/bignum.c:1547
    6ee4:	f90017e2 	str	x2, [sp, #40]
/home/jayanth/quemu-v8/source/optee_os/lib/libmbedtls/mbedtls/library/bignum.c:1549
    6ee8:	910063e2 	add	x2, sp, #0x18
    6eec:	97ffffc0 	bl	6dec <mbedtls_mpi_sub_mpi>
/home/jayanth/quemu-v8/source/optee_os/lib/libmbedtls/mbedtls/library/bignum.c:1550
    6ef0:	a8c37bfd 	ldp	x29, x30, [sp], #48
    6ef4:	d65f03c0 	ret

0000000000006ef8 <mbedtls_mpi_mul_mpi>:
mbedtls_mpi_mul_mpi():
/home/jayanth/quemu-v8/source/optee_os/lib/libmbedtls/mbedtls/library/bignum.c:1628
    6ef8:	a9b87bfd 	stp	x29, x30, [sp, #-128]!
    6efc:	910003fd 	mov	x29, sp
    6f00:	a90363f7 	stp	x23, x24, [sp, #48]
/home/jayanth/quemu-v8/source/optee_os/lib/libmbedtls/mbedtls/library/bignum.c:1636
    6f04:	910143f7 	add	x23, sp, #0x50
    6f08:	9101a3f8 	add	x24, sp, #0x68
/home/jayanth/quemu-v8/source/optee_os/lib/libmbedtls/mbedtls/library/bignum.c:1628
    6f0c:	a90153f3 	stp	x19, x20, [sp, #16]
    6f10:	aa0003f4 	mov	x20, x0
/home/jayanth/quemu-v8/source/optee_os/lib/libmbedtls/mbedtls/library/bignum.c:1636
    6f14:	aa1703e0 	mov	x0, x23
/home/jayanth/quemu-v8/source/optee_os/lib/libmbedtls/mbedtls/library/bignum.c:1628
    6f18:	a9025bf5 	stp	x21, x22, [sp, #32]
    6f1c:	aa0203f6 	mov	x22, x2
    6f20:	a9046bf9 	stp	x25, x26, [sp, #64]
    6f24:	aa0103f9 	mov	x25, x1
/home/jayanth/quemu-v8/source/optee_os/lib/libmbedtls/mbedtls/library/bignum.c:1636
    6f28:	97fffb76 	bl	5d00 <mbedtls_mpi_init_mempool>
    6f2c:	aa1803e0 	mov	x0, x24
    6f30:	97fffb74 	bl	5d00 <mbedtls_mpi_init_mempool>
/home/jayanth/quemu-v8/source/optee_os/lib/libmbedtls/mbedtls/library/bignum.c:1638
    6f34:	eb19029f 	cmp	x20, x25
    6f38:	540000e1 	b.ne	6f54 <mbedtls_mpi_mul_mpi+0x5c>  // b.any
/home/jayanth/quemu-v8/source/optee_os/lib/libmbedtls/mbedtls/library/bignum.c:1638 (discriminator 1)
    6f3c:	aa1403e1 	mov	x1, x20
    6f40:	aa1703e0 	mov	x0, x23
    6f44:	97fffc16 	bl	5f9c <mbedtls_mpi_copy>
    6f48:	2a0003f3 	mov	w19, w0
    6f4c:	35000300 	cbnz	w0, 6fac <mbedtls_mpi_mul_mpi+0xb4>
/home/jayanth/quemu-v8/source/optee_os/lib/libmbedtls/mbedtls/library/bignum.c:1638
    6f50:	aa1703f9 	mov	x25, x23
/home/jayanth/quemu-v8/source/optee_os/lib/libmbedtls/mbedtls/library/bignum.c:1639
    6f54:	eb16029f 	cmp	x20, x22
    6f58:	540000e1 	b.ne	6f74 <mbedtls_mpi_mul_mpi+0x7c>  // b.any
/home/jayanth/quemu-v8/source/optee_os/lib/libmbedtls/mbedtls/library/bignum.c:1639 (discriminator 1)
    6f5c:	aa1403e1 	mov	x1, x20
    6f60:	aa1803e0 	mov	x0, x24
    6f64:	97fffc0e 	bl	5f9c <mbedtls_mpi_copy>
    6f68:	2a0003f3 	mov	w19, w0
    6f6c:	35000200 	cbnz	w0, 6fac <mbedtls_mpi_mul_mpi+0xb4>
/home/jayanth/quemu-v8/source/optee_os/lib/libmbedtls/mbedtls/library/bignum.c:1639
    6f70:	aa1803f6 	mov	x22, x24
/home/jayanth/quemu-v8/source/optee_os/lib/libmbedtls/mbedtls/library/bignum.c:1641
    6f74:	f940073a 	ldr	x26, [x25, #8]
/home/jayanth/quemu-v8/source/optee_os/lib/libmbedtls/mbedtls/library/bignum.c:1641 (discriminator 1)
    6f78:	b500031a 	cbnz	x26, 6fd8 <mbedtls_mpi_mul_mpi+0xe0>
/home/jayanth/quemu-v8/source/optee_os/lib/libmbedtls/mbedtls/library/bignum.c:1645
    6f7c:	f94006d5 	ldr	x21, [x22, #8]
/home/jayanth/quemu-v8/source/optee_os/lib/libmbedtls/mbedtls/library/bignum.c:1645 (discriminator 1)
    6f80:	b5000395 	cbnz	x21, 6ff0 <mbedtls_mpi_mul_mpi+0xf8>
/home/jayanth/quemu-v8/source/optee_os/lib/libmbedtls/mbedtls/library/bignum.c:1649
    6f84:	8b150341 	add	x1, x26, x21
    6f88:	aa1403e0 	mov	x0, x20
    6f8c:	97fffb82 	bl	5d94 <mbedtls_mpi_grow>
    6f90:	2a0003f3 	mov	w19, w0
    6f94:	350000c0 	cbnz	w0, 6fac <mbedtls_mpi_mul_mpi+0xb4>
/home/jayanth/quemu-v8/source/optee_os/lib/libmbedtls/mbedtls/library/bignum.c:1650 (discriminator 2)
    6f98:	aa1403e0 	mov	x0, x20
    6f9c:	52800001 	mov	w1, #0x0                   	// #0
    6fa0:	97fffcac 	bl	6250 <mbedtls_mpi_lset>
    6fa4:	2a0003f3 	mov	w19, w0
    6fa8:	340003e0 	cbz	w0, 7024 <mbedtls_mpi_mul_mpi+0x12c>
/home/jayanth/quemu-v8/source/optee_os/lib/libmbedtls/mbedtls/library/bignum.c:1659
    6fac:	aa1803e0 	mov	x0, x24
    6fb0:	97fffb5e 	bl	5d28 <mbedtls_mpi_free>
    6fb4:	aa1703e0 	mov	x0, x23
    6fb8:	97fffb5c 	bl	5d28 <mbedtls_mpi_free>
/home/jayanth/quemu-v8/source/optee_os/lib/libmbedtls/mbedtls/library/bignum.c:1662
    6fbc:	2a1303e0 	mov	w0, w19
    6fc0:	a94153f3 	ldp	x19, x20, [sp, #16]
    6fc4:	a9425bf5 	ldp	x21, x22, [sp, #32]
    6fc8:	a94363f7 	ldp	x23, x24, [sp, #48]
    6fcc:	a9446bf9 	ldp	x25, x26, [sp, #64]
    6fd0:	a8c87bfd 	ldp	x29, x30, [sp], #128
    6fd4:	d65f03c0 	ret
/home/jayanth/quemu-v8/source/optee_os/lib/libmbedtls/mbedtls/library/bignum.c:1642
    6fd8:	f9400b20 	ldr	x0, [x25, #16]
    6fdc:	8b1a0800 	add	x0, x0, x26, lsl #2
    6fe0:	b85fc000 	ldur	w0, [x0, #-4]
    6fe4:	35fffcc0 	cbnz	w0, 6f7c <mbedtls_mpi_mul_mpi+0x84>
/home/jayanth/quemu-v8/source/optee_os/lib/libmbedtls/mbedtls/library/bignum.c:1641 (discriminator 2)
    6fe8:	d100075a 	sub	x26, x26, #0x1
    6fec:	17ffffe3 	b	6f78 <mbedtls_mpi_mul_mpi+0x80>
/home/jayanth/quemu-v8/source/optee_os/lib/libmbedtls/mbedtls/library/bignum.c:1646
    6ff0:	f9400ac0 	ldr	x0, [x22, #16]
    6ff4:	8b150800 	add	x0, x0, x21, lsl #2
    6ff8:	b85fc000 	ldur	w0, [x0, #-4]
    6ffc:	35fffc40 	cbnz	w0, 6f84 <mbedtls_mpi_mul_mpi+0x8c>
/home/jayanth/quemu-v8/source/optee_os/lib/libmbedtls/mbedtls/library/bignum.c:1645 (discriminator 2)
    7000:	d10006b5 	sub	x21, x21, #0x1
    7004:	17ffffdf 	b	6f80 <mbedtls_mpi_mul_mpi+0x88>
/home/jayanth/quemu-v8/source/optee_os/lib/libmbedtls/mbedtls/library/bignum.c:1653 (discriminator 2)
    7008:	f9400ac0 	ldr	x0, [x22, #16]
    700c:	f9400a82 	ldr	x2, [x20, #16]
    7010:	b8757803 	ldr	w3, [x0, x21, lsl #2]
    7014:	aa1a03e0 	mov	x0, x26
    7018:	f9400b21 	ldr	x1, [x25, #16]
    701c:	8b150842 	add	x2, x2, x21, lsl #2
    7020:	97fffa16 	bl	5878 <mpi_mul_hlp>
/home/jayanth/quemu-v8/source/optee_os/lib/libmbedtls/mbedtls/library/bignum.c:1652 (discriminator 1)
    7024:	d10006b5 	sub	x21, x21, #0x1
    7028:	b10006bf 	cmn	x21, #0x1
    702c:	54fffee1 	b.ne	7008 <mbedtls_mpi_mul_mpi+0x110>  // b.any
/home/jayanth/quemu-v8/source/optee_os/lib/libmbedtls/mbedtls/library/bignum.c:1655
    7030:	79400320 	ldrh	w0, [x25]
    7034:	794002c1 	ldrh	w1, [x22]
    7038:	1b017c00 	mul	w0, w0, w1
    703c:	79000280 	strh	w0, [x20]
    7040:	17ffffdb 	b	6fac <mbedtls_mpi_mul_mpi+0xb4>

0000000000007044 <mbedtls_mpi_mul_int>:
mbedtls_mpi_mul_int():
/home/jayanth/quemu-v8/source/optee_os/lib/libmbedtls/mbedtls/library/bignum.c:1668
    7044:	a9bd7bfd 	stp	x29, x30, [sp, #-48]!
/home/jayanth/quemu-v8/source/optee_os/lib/libmbedtls/mbedtls/library/bignum.c:1674
    7048:	52800023 	mov	w3, #0x1                   	// #1
/home/jayanth/quemu-v8/source/optee_os/lib/libmbedtls/mbedtls/library/bignum.c:1668
    704c:	910003fd 	mov	x29, sp
/home/jayanth/quemu-v8/source/optee_os/lib/libmbedtls/mbedtls/library/bignum.c:1674
    7050:	790033e3 	strh	w3, [sp, #24]
/home/jayanth/quemu-v8/source/optee_os/lib/libmbedtls/mbedtls/library/bignum.c:1675
    7054:	d2800023 	mov	x3, #0x1                   	// #1
    7058:	f90013e3 	str	x3, [sp, #32]
/home/jayanth/quemu-v8/source/optee_os/lib/libmbedtls/mbedtls/library/bignum.c:1676
    705c:	910043e3 	add	x3, sp, #0x10
/home/jayanth/quemu-v8/source/optee_os/lib/libmbedtls/mbedtls/library/bignum.c:1677
    7060:	b90013e2 	str	w2, [sp, #16]
/home/jayanth/quemu-v8/source/optee_os/lib/libmbedtls/mbedtls/library/bignum.c:1679
    7064:	910063e2 	add	x2, sp, #0x18
/home/jayanth/quemu-v8/source/optee_os/lib/libmbedtls/mbedtls/library/bignum.c:1676
    7068:	f90017e3 	str	x3, [sp, #40]
/home/jayanth/quemu-v8/source/optee_os/lib/libmbedtls/mbedtls/library/bignum.c:1679
    706c:	97ffffa3 	bl	6ef8 <mbedtls_mpi_mul_mpi>
/home/jayanth/quemu-v8/source/optee_os/lib/libmbedtls/mbedtls/library/bignum.c:1680
    7070:	a8c37bfd 	ldp	x29, x30, [sp], #48
    7074:	d65f03c0 	ret

0000000000007078 <mbedtls_mpi_read_string>:
mbedtls_mpi_read_string():
/home/jayanth/quemu-v8/source/optee_os/lib/libmbedtls/mbedtls/library/bignum.c:508
    7078:	a9b87bfd 	stp	x29, x30, [sp, #-128]!
    707c:	910003fd 	mov	x29, sp
    7080:	a90153f3 	stp	x19, x20, [sp, #16]
    7084:	aa0003f4 	mov	x20, x0
/home/jayanth/quemu-v8/source/optee_os/lib/libmbedtls/mbedtls/library/bignum.c:516
    7088:	51000820 	sub	w0, w1, #0x2
/home/jayanth/quemu-v8/source/optee_os/lib/libmbedtls/mbedtls/library/bignum.c:508
    708c:	a9025bf5 	stp	x21, x22, [sp, #32]
/home/jayanth/quemu-v8/source/optee_os/lib/libmbedtls/mbedtls/library/bignum.c:516
    7090:	7100381f 	cmp	w0, #0xe
/home/jayanth/quemu-v8/source/optee_os/lib/libmbedtls/mbedtls/library/bignum.c:508
    7094:	a90363f7 	stp	x23, x24, [sp, #48]
    7098:	a9046bf9 	stp	x25, x26, [sp, #64]
    709c:	f9002bfb 	str	x27, [sp, #80]
/home/jayanth/quemu-v8/source/optee_os/lib/libmbedtls/mbedtls/library/bignum.c:516
    70a0:	54000149 	b.ls	70c8 <mbedtls_mpi_read_string+0x50>  // b.plast
/home/jayanth/quemu-v8/source/optee_os/lib/libmbedtls/mbedtls/library/bignum.c:517
    70a4:	12800073 	mov	w19, #0xfffffffc            	// #-4
/home/jayanth/quemu-v8/source/optee_os/lib/libmbedtls/mbedtls/library/bignum.c:576
    70a8:	2a1303e0 	mov	w0, w19
    70ac:	a94153f3 	ldp	x19, x20, [sp, #16]
    70b0:	a9425bf5 	ldp	x21, x22, [sp, #32]
    70b4:	a94363f7 	ldp	x23, x24, [sp, #48]
    70b8:	a9446bf9 	ldp	x25, x26, [sp, #64]
    70bc:	f9402bfb 	ldr	x27, [sp, #80]
    70c0:	a8c87bfd 	ldp	x29, x30, [sp], #128
    70c4:	d65f03c0 	ret
/home/jayanth/quemu-v8/source/optee_os/lib/libmbedtls/mbedtls/library/bignum.c:519
    70c8:	9101a3f8 	add	x24, sp, #0x68
    70cc:	2a0103f7 	mov	w23, w1
    70d0:	aa0203f6 	mov	x22, x2
    70d4:	aa1803e0 	mov	x0, x24
    70d8:	97fffb0a 	bl	5d00 <mbedtls_mpi_init_mempool>
/home/jayanth/quemu-v8/source/optee_os/lib/libmbedtls/mbedtls/library/bignum.c:521
    70dc:	aa1603e0 	mov	x0, x22
    70e0:	97ffe8c5 	bl	13f4 <strlen>
/home/jayanth/quemu-v8/source/optee_os/lib/libmbedtls/mbedtls/library/bignum.c:523
    70e4:	710042ff 	cmp	w23, #0x10
/home/jayanth/quemu-v8/source/optee_os/lib/libmbedtls/mbedtls/library/bignum.c:521
    70e8:	aa0003f5 	mov	x21, x0
/home/jayanth/quemu-v8/source/optee_os/lib/libmbedtls/mbedtls/library/bignum.c:523
    70ec:	54000621 	b.ne	71b0 <mbedtls_mpi_read_string+0x138>  // b.any
/home/jayanth/quemu-v8/source/optee_os/lib/libmbedtls/mbedtls/library/bignum.c:525
    70f0:	92f80000 	mov	x0, #0x3fffffffffffffff    	// #4611686018427387903
    70f4:	eb0002bf 	cmp	x21, x0
    70f8:	54fffd68 	b.hi	70a4 <mbedtls_mpi_read_string+0x2c>  // b.pmore
/home/jayanth/quemu-v8/source/optee_os/lib/libmbedtls/mbedtls/library/bignum.c:528
    70fc:	d37e0aa0 	ubfiz	x0, x21, #2, #3
    7100:	d343f6a1 	ubfx	x1, x21, #3, #59
    7104:	f100001f 	cmp	x0, #0x0
/home/jayanth/quemu-v8/source/optee_os/lib/libmbedtls/mbedtls/library/bignum.c:530
    7108:	aa1403e0 	mov	x0, x20
    710c:	9a810421 	cinc	x1, x1, ne  // ne = any
    7110:	97fffb21 	bl	5d94 <mbedtls_mpi_grow>
    7114:	2a0003f3 	mov	w19, w0
    7118:	35000240 	cbnz	w0, 7160 <mbedtls_mpi_read_string+0xe8>
/home/jayanth/quemu-v8/source/optee_os/lib/libmbedtls/mbedtls/library/bignum.c:531 (discriminator 2)
    711c:	aa1403e0 	mov	x0, x20
    7120:	52800001 	mov	w1, #0x0                   	// #0
    7124:	97fffc4b 	bl	6250 <mbedtls_mpi_lset>
    7128:	2a0003f3 	mov	w19, w0
    712c:	350001a0 	cbnz	w0, 7160 <mbedtls_mpi_read_string+0xe8>
/home/jayanth/quemu-v8/source/optee_os/lib/libmbedtls/mbedtls/library/bignum.c:541
    7130:	910193e6 	add	x6, sp, #0x64
/home/jayanth/quemu-v8/source/optee_os/lib/libmbedtls/mbedtls/library/bignum.c:533
    7134:	d2800005 	mov	x5, #0x0                   	// #0
/home/jayanth/quemu-v8/source/optee_os/lib/libmbedtls/mbedtls/library/bignum.c:533 (discriminator 2)
    7138:	b5000075 	cbnz	x21, 7144 <mbedtls_mpi_read_string+0xcc>
/home/jayanth/quemu-v8/source/optee_os/lib/libmbedtls/mbedtls/library/bignum.c:541
    713c:	52800013 	mov	w19, #0x0                   	// #0
    7140:	14000008 	b	7160 <mbedtls_mpi_read_string+0xe8>
/home/jayanth/quemu-v8/source/optee_os/lib/libmbedtls/mbedtls/library/bignum.c:535
    7144:	f10006bf 	cmp	x21, #0x1
    7148:	54000121 	b.ne	716c <mbedtls_mpi_read_string+0xf4>  // b.any
/home/jayanth/quemu-v8/source/optee_os/lib/libmbedtls/mbedtls/library/bignum.c:535 (discriminator 1)
    714c:	394002c0 	ldrb	w0, [x22]
    7150:	7100b41f 	cmp	w0, #0x2d
    7154:	540000c1 	b.ne	716c <mbedtls_mpi_read_string+0xf4>  // b.any
/home/jayanth/quemu-v8/source/optee_os/lib/libmbedtls/mbedtls/library/bignum.c:537
    7158:	12800000 	mov	w0, #0xffffffff            	// #-1
    715c:	79000280 	strh	w0, [x20]
/home/jayanth/quemu-v8/source/optee_os/lib/libmbedtls/mbedtls/library/bignum.c:573
    7160:	aa1803e0 	mov	x0, x24
    7164:	97fffaf1 	bl	5d28 <mbedtls_mpi_free>
/home/jayanth/quemu-v8/source/optee_os/lib/libmbedtls/mbedtls/library/bignum.c:575
    7168:	17ffffd0 	b	70a8 <mbedtls_mpi_read_string+0x30>
/home/jayanth/quemu-v8/source/optee_os/lib/libmbedtls/mbedtls/library/bignum.c:541
    716c:	d10006b5 	sub	x21, x21, #0x1
    7170:	aa0603e0 	mov	x0, x6
    7174:	52800201 	mov	w1, #0x10                  	// #16
    7178:	38756ac2 	ldrb	w2, [x22, x21]
    717c:	97fff98e 	bl	57b4 <mpi_get_digit>
    7180:	350006a0 	cbnz	w0, 7254 <mbedtls_mpi_read_string+0x1dc>
/home/jayanth/quemu-v8/source/optee_os/lib/libmbedtls/mbedtls/library/bignum.c:542 (discriminator 2)
    7184:	d343fca0 	lsr	x0, x5, #3
    7188:	b94067e1 	ldr	w1, [sp, #100]
    718c:	f9400a83 	ldr	x3, [x20, #16]
    7190:	d37ef400 	lsl	x0, x0, #2
    7194:	531e08a2 	ubfiz	w2, w5, #2, #3
/home/jayanth/quemu-v8/source/optee_os/lib/libmbedtls/mbedtls/library/bignum.c:533 (discriminator 2)
    7198:	910004a5 	add	x5, x5, #0x1
/home/jayanth/quemu-v8/source/optee_os/lib/libmbedtls/mbedtls/library/bignum.c:542 (discriminator 2)
    719c:	1ac22022 	lsl	w2, w1, w2
    71a0:	b8606861 	ldr	w1, [x3, x0]
    71a4:	2a020021 	orr	w1, w1, w2
    71a8:	b8206861 	str	w1, [x3, x0]
/home/jayanth/quemu-v8/source/optee_os/lib/libmbedtls/mbedtls/library/bignum.c:533 (discriminator 2)
    71ac:	17ffffe3 	b	7138 <mbedtls_mpi_read_string+0xc0>
/home/jayanth/quemu-v8/source/optee_os/lib/libmbedtls/mbedtls/library/bignum.c:547
    71b0:	aa1403e0 	mov	x0, x20
    71b4:	52800001 	mov	w1, #0x0                   	// #0
    71b8:	97fffc26 	bl	6250 <mbedtls_mpi_lset>
    71bc:	2a0003f3 	mov	w19, w0
    71c0:	35fffd00 	cbnz	w0, 7160 <mbedtls_mpi_read_string+0xe8>
/home/jayanth/quemu-v8/source/optee_os/lib/libmbedtls/mbedtls/library/bignum.c:557
    71c4:	910193fa 	add	x26, sp, #0x64
/home/jayanth/quemu-v8/source/optee_os/lib/libmbedtls/mbedtls/library/bignum.c:549
    71c8:	d2800019 	mov	x25, #0x0                   	// #0
/home/jayanth/quemu-v8/source/optee_os/lib/libmbedtls/mbedtls/library/bignum.c:553
    71cc:	1280001b 	mov	w27, #0xffffffff            	// #-1
/home/jayanth/quemu-v8/source/optee_os/lib/libmbedtls/mbedtls/library/bignum.c:549 (discriminator 2)
    71d0:	eb15033f 	cmp	x25, x21
    71d4:	54fffb40 	b.eq	713c <mbedtls_mpi_read_string+0xc4>  // b.none
/home/jayanth/quemu-v8/source/optee_os/lib/libmbedtls/mbedtls/library/bignum.c:551
    71d8:	b50000f9 	cbnz	x25, 71f4 <mbedtls_mpi_read_string+0x17c>
/home/jayanth/quemu-v8/source/optee_os/lib/libmbedtls/mbedtls/library/bignum.c:551 (discriminator 1)
    71dc:	394002c0 	ldrb	w0, [x22]
    71e0:	7100b41f 	cmp	w0, #0x2d
    71e4:	54000081 	b.ne	71f4 <mbedtls_mpi_read_string+0x17c>  // b.any
/home/jayanth/quemu-v8/source/optee_os/lib/libmbedtls/mbedtls/library/bignum.c:553
    71e8:	7900029b 	strh	w27, [x20]
/home/jayanth/quemu-v8/source/optee_os/lib/libmbedtls/mbedtls/library/bignum.c:549 (discriminator 2)
    71ec:	91000739 	add	x25, x25, #0x1
    71f0:	17fffff8 	b	71d0 <mbedtls_mpi_read_string+0x158>
/home/jayanth/quemu-v8/source/optee_os/lib/libmbedtls/mbedtls/library/bignum.c:557
    71f4:	38796ac2 	ldrb	w2, [x22, x25]
    71f8:	2a1703e1 	mov	w1, w23
    71fc:	aa1a03e0 	mov	x0, x26
    7200:	97fff96d 	bl	57b4 <mpi_get_digit>
    7204:	2a0003f3 	mov	w19, w0
    7208:	35fffac0 	cbnz	w0, 7160 <mbedtls_mpi_read_string+0xe8>
/home/jayanth/quemu-v8/source/optee_os/lib/libmbedtls/mbedtls/library/bignum.c:558 (discriminator 2)
    720c:	2a1703e2 	mov	w2, w23
    7210:	aa1403e1 	mov	x1, x20
    7214:	aa1803e0 	mov	x0, x24
    7218:	97ffff8b 	bl	7044 <mbedtls_mpi_mul_int>
    721c:	2a0003f3 	mov	w19, w0
    7220:	35fffa00 	cbnz	w0, 7160 <mbedtls_mpi_read_string+0xe8>
/home/jayanth/quemu-v8/source/optee_os/lib/libmbedtls/mbedtls/library/bignum.c:560 (discriminator 2)
    7224:	79c00280 	ldrsh	w0, [x20]
/home/jayanth/quemu-v8/source/optee_os/lib/libmbedtls/mbedtls/library/bignum.c:562 (discriminator 2)
    7228:	aa1803e1 	mov	x1, x24
    722c:	b94067e2 	ldr	w2, [sp, #100]
/home/jayanth/quemu-v8/source/optee_os/lib/libmbedtls/mbedtls/library/bignum.c:560 (discriminator 2)
    7230:	7100041f 	cmp	w0, #0x1
/home/jayanth/quemu-v8/source/optee_os/lib/libmbedtls/mbedtls/library/bignum.c:562 (discriminator 2)
    7234:	aa1403e0 	mov	x0, x20
/home/jayanth/quemu-v8/source/optee_os/lib/libmbedtls/mbedtls/library/bignum.c:560 (discriminator 2)
    7238:	540000a1 	b.ne	724c <mbedtls_mpi_read_string+0x1d4>  // b.any
/home/jayanth/quemu-v8/source/optee_os/lib/libmbedtls/mbedtls/library/bignum.c:562
    723c:	97ffff0f 	bl	6e78 <mbedtls_mpi_add_int>
/home/jayanth/quemu-v8/source/optee_os/lib/libmbedtls/mbedtls/library/bignum.c:566
    7240:	2a0003f3 	mov	w19, w0
    7244:	34fffd40 	cbz	w0, 71ec <mbedtls_mpi_read_string+0x174>
    7248:	17ffffc6 	b	7160 <mbedtls_mpi_read_string+0xe8>
    724c:	97ffff1b 	bl	6eb8 <mbedtls_mpi_sub_int>
    7250:	17fffffc 	b	7240 <mbedtls_mpi_read_string+0x1c8>
/home/jayanth/quemu-v8/source/optee_os/lib/libmbedtls/mbedtls/library/bignum.c:541
    7254:	2a0003f3 	mov	w19, w0
    7258:	17ffffc2 	b	7160 <mbedtls_mpi_read_string+0xe8>

000000000000725c <mbedtls_mpi_div_mpi>:
mbedtls_mpi_div_mpi():
/home/jayanth/quemu-v8/source/optee_os/lib/libmbedtls/mbedtls/library/bignum.c:1783
    725c:	a9ad7bfd 	stp	x29, x30, [sp, #-304]!
    7260:	910003fd 	mov	x29, sp
    7264:	a90153f3 	stp	x19, x20, [sp, #16]
    7268:	a9025bf5 	stp	x21, x22, [sp, #32]
    726c:	a90363f7 	stp	x23, x24, [sp, #48]
    7270:	aa0103f7 	mov	x23, x1
    7274:	aa0203f8 	mov	x24, x2
/home/jayanth/quemu-v8/source/optee_os/lib/libmbedtls/mbedtls/library/bignum.c:1791
    7278:	52800001 	mov	w1, #0x0                   	// #0
/home/jayanth/quemu-v8/source/optee_os/lib/libmbedtls/mbedtls/library/bignum.c:1783
    727c:	a9046bf9 	stp	x25, x26, [sp, #64]
    7280:	aa0003f9 	mov	x25, x0
/home/jayanth/quemu-v8/source/optee_os/lib/libmbedtls/mbedtls/library/bignum.c:1791
    7284:	aa0303e0 	mov	x0, x3
/home/jayanth/quemu-v8/source/optee_os/lib/libmbedtls/mbedtls/library/bignum.c:1783
    7288:	a90573fb 	stp	x27, x28, [sp, #80]
    728c:	f9003be3 	str	x3, [sp, #112]
/home/jayanth/quemu-v8/source/optee_os/lib/libmbedtls/mbedtls/library/bignum.c:1791
    7290:	97fffe28 	bl	6b30 <mbedtls_mpi_cmp_int>
    7294:	34002600 	cbz	w0, 7754 <mbedtls_mpi_div_mpi+0x4f8>
/home/jayanth/quemu-v8/source/optee_os/lib/libmbedtls/mbedtls/library/bignum.c:1794
    7298:	9102e3f4 	add	x20, sp, #0xb8
    729c:	910343f6 	add	x22, sp, #0xd0
    72a0:	aa1403e0 	mov	x0, x20
    72a4:	97fffa97 	bl	5d00 <mbedtls_mpi_init_mempool>
    72a8:	aa1603e0 	mov	x0, x22
/home/jayanth/quemu-v8/source/optee_os/lib/libmbedtls/mbedtls/library/bignum.c:1795
    72ac:	9103a3fc 	add	x28, sp, #0xe8
/home/jayanth/quemu-v8/source/optee_os/lib/libmbedtls/mbedtls/library/bignum.c:1794
    72b0:	97fffa94 	bl	5d00 <mbedtls_mpi_init_mempool>
/home/jayanth/quemu-v8/source/optee_os/lib/libmbedtls/mbedtls/library/bignum.c:1795
    72b4:	910403f5 	add	x21, sp, #0x100
    72b8:	aa1c03e0 	mov	x0, x28
    72bc:	97fffa91 	bl	5d00 <mbedtls_mpi_init_mempool>
    72c0:	aa1503e0 	mov	x0, x21
    72c4:	97fffa8f 	bl	5d00 <mbedtls_mpi_init_mempool>
/home/jayanth/quemu-v8/source/optee_os/lib/libmbedtls/mbedtls/library/bignum.c:1807
    72c8:	f9403be1 	ldr	x1, [sp, #112]
/home/jayanth/quemu-v8/source/optee_os/lib/libmbedtls/mbedtls/library/bignum.c:1804
    72cc:	d2800060 	mov	x0, #0x3                   	// #3
    72d0:	f90093e0 	str	x0, [sp, #288]
/home/jayanth/quemu-v8/source/optee_os/lib/libmbedtls/mbedtls/library/bignum.c:1805
    72d4:	9102a3e0 	add	x0, sp, #0xa8
/home/jayanth/quemu-v8/source/optee_os/lib/libmbedtls/mbedtls/library/bignum.c:1803
    72d8:	52800033 	mov	w19, #0x1                   	// #1
/home/jayanth/quemu-v8/source/optee_os/lib/libmbedtls/mbedtls/library/bignum.c:1805
    72dc:	f90047e0 	str	x0, [sp, #136]
/home/jayanth/quemu-v8/source/optee_os/lib/libmbedtls/mbedtls/library/bignum.c:1803
    72e0:	790233f3 	strh	w19, [sp, #280]
/home/jayanth/quemu-v8/source/optee_os/lib/libmbedtls/mbedtls/library/bignum.c:1805
    72e4:	f90097e0 	str	x0, [sp, #296]
/home/jayanth/quemu-v8/source/optee_os/lib/libmbedtls/mbedtls/library/bignum.c:1807
    72e8:	aa1803e0 	mov	x0, x24
    72ec:	97fffd82 	bl	68f4 <mbedtls_mpi_cmp_abs>
    72f0:	36f80460 	tbz	w0, #31, 737c <mbedtls_mpi_div_mpi+0x120>
/home/jayanth/quemu-v8/source/optee_os/lib/libmbedtls/mbedtls/library/bignum.c:1809
    72f4:	b5000179 	cbnz	x25, 7320 <mbedtls_mpi_div_mpi+0xc4>
/home/jayanth/quemu-v8/source/optee_os/lib/libmbedtls/mbedtls/library/bignum.c:1810
    72f8:	b5000377 	cbnz	x23, 7364 <mbedtls_mpi_div_mpi+0x108>
/home/jayanth/quemu-v8/source/optee_os/lib/libmbedtls/mbedtls/library/bignum.c:1811
    72fc:	5280001b 	mov	w27, #0x0                   	// #0
/home/jayanth/quemu-v8/source/optee_os/lib/libmbedtls/mbedtls/library/bignum.c:1904
    7300:	2a1b03e0 	mov	w0, w27
    7304:	a94153f3 	ldp	x19, x20, [sp, #16]
    7308:	a9425bf5 	ldp	x21, x22, [sp, #32]
    730c:	a94363f7 	ldp	x23, x24, [sp, #48]
    7310:	a9446bf9 	ldp	x25, x26, [sp, #64]
    7314:	a94573fb 	ldp	x27, x28, [sp, #80]
    7318:	a8d37bfd 	ldp	x29, x30, [sp], #304
    731c:	d65f03c0 	ret
/home/jayanth/quemu-v8/source/optee_os/lib/libmbedtls/mbedtls/library/bignum.c:1809 (discriminator 1)
    7320:	aa1903e0 	mov	x0, x25
    7324:	52800001 	mov	w1, #0x0                   	// #0
    7328:	97fffbca 	bl	6250 <mbedtls_mpi_lset>
    732c:	2a0003fb 	mov	w27, w0
    7330:	34fffe40 	cbz	w0, 72f8 <mbedtls_mpi_div_mpi+0x9c>
/home/jayanth/quemu-v8/source/optee_os/lib/libmbedtls/mbedtls/library/bignum.c:1899
    7334:	aa1403e0 	mov	x0, x20
    7338:	97fffa7c 	bl	5d28 <mbedtls_mpi_free>
    733c:	aa1603e0 	mov	x0, x22
    7340:	97fffa7a 	bl	5d28 <mbedtls_mpi_free>
    7344:	aa1c03e0 	mov	x0, x28
    7348:	97fffa78 	bl	5d28 <mbedtls_mpi_free>
/home/jayanth/quemu-v8/source/optee_os/lib/libmbedtls/mbedtls/library/bignum.c:1900
    734c:	aa1503e0 	mov	x0, x21
    7350:	97fffa76 	bl	5d28 <mbedtls_mpi_free>
/home/jayanth/quemu-v8/source/optee_os/lib/libmbedtls/mbedtls/library/bignum.c:1901
    7354:	f94047e0 	ldr	x0, [sp, #136]
    7358:	d2800181 	mov	x1, #0xc                   	// #12
    735c:	94000855 	bl	94b0 <mbedtls_platform_zeroize>
/home/jayanth/quemu-v8/source/optee_os/lib/libmbedtls/mbedtls/library/bignum.c:1903
    7360:	17ffffe8 	b	7300 <mbedtls_mpi_div_mpi+0xa4>
/home/jayanth/quemu-v8/source/optee_os/lib/libmbedtls/mbedtls/library/bignum.c:1810 (discriminator 1)
    7364:	aa1803e1 	mov	x1, x24
    7368:	aa1703e0 	mov	x0, x23
    736c:	97fffb0c 	bl	5f9c <mbedtls_mpi_copy>
    7370:	2a0003fb 	mov	w27, w0
    7374:	35fffe00 	cbnz	w0, 7334 <mbedtls_mpi_div_mpi+0xd8>
    7378:	17ffffe1 	b	72fc <mbedtls_mpi_div_mpi+0xa0>
/home/jayanth/quemu-v8/source/optee_os/lib/libmbedtls/mbedtls/library/bignum.c:1814
    737c:	aa1803e1 	mov	x1, x24
    7380:	aa1403e0 	mov	x0, x20
    7384:	97fffb06 	bl	5f9c <mbedtls_mpi_copy>
    7388:	2a0003fb 	mov	w27, w0
    738c:	35fffd40 	cbnz	w0, 7334 <mbedtls_mpi_div_mpi+0xd8>
/home/jayanth/quemu-v8/source/optee_os/lib/libmbedtls/mbedtls/library/bignum.c:1815 (discriminator 2)
    7390:	f9403be1 	ldr	x1, [sp, #112]
    7394:	aa1603e0 	mov	x0, x22
    7398:	97fffb01 	bl	5f9c <mbedtls_mpi_copy>
    739c:	2a0003fb 	mov	w27, w0
    73a0:	35fffca0 	cbnz	w0, 7334 <mbedtls_mpi_div_mpi+0xd8>
/home/jayanth/quemu-v8/source/optee_os/lib/libmbedtls/mbedtls/library/bignum.c:1818 (discriminator 2)
    73a4:	f9400701 	ldr	x1, [x24, #8]
    73a8:	aa1c03e0 	mov	x0, x28
/home/jayanth/quemu-v8/source/optee_os/lib/libmbedtls/mbedtls/library/bignum.c:1816 (discriminator 2)
    73ac:	790173f3 	strh	w19, [sp, #184]
/home/jayanth/quemu-v8/source/optee_os/lib/libmbedtls/mbedtls/library/bignum.c:1818 (discriminator 2)
    73b0:	91000821 	add	x1, x1, #0x2
/home/jayanth/quemu-v8/source/optee_os/lib/libmbedtls/mbedtls/library/bignum.c:1816 (discriminator 2)
    73b4:	7901a3f3 	strh	w19, [sp, #208]
/home/jayanth/quemu-v8/source/optee_os/lib/libmbedtls/mbedtls/library/bignum.c:1818 (discriminator 2)
    73b8:	97fffa77 	bl	5d94 <mbedtls_mpi_grow>
    73bc:	2a0003fb 	mov	w27, w0
    73c0:	35fffba0 	cbnz	w0, 7334 <mbedtls_mpi_div_mpi+0xd8>
/home/jayanth/quemu-v8/source/optee_os/lib/libmbedtls/mbedtls/library/bignum.c:1819 (discriminator 2)
    73c4:	aa1c03e0 	mov	x0, x28
    73c8:	52800001 	mov	w1, #0x0                   	// #0
    73cc:	97fffba1 	bl	6250 <mbedtls_mpi_lset>
    73d0:	2a0003fb 	mov	w27, w0
    73d4:	35fffb00 	cbnz	w0, 7334 <mbedtls_mpi_div_mpi+0xd8>
/home/jayanth/quemu-v8/source/optee_os/lib/libmbedtls/mbedtls/library/bignum.c:1820 (discriminator 2)
    73d8:	aa1503e0 	mov	x0, x21
    73dc:	d2800041 	mov	x1, #0x2                   	// #2
    73e0:	97fffa6d 	bl	5d94 <mbedtls_mpi_grow>
    73e4:	2a0003fb 	mov	w27, w0
    73e8:	35fffa60 	cbnz	w0, 7334 <mbedtls_mpi_div_mpi+0xd8>
/home/jayanth/quemu-v8/source/optee_os/lib/libmbedtls/mbedtls/library/bignum.c:1822 (discriminator 2)
    73ec:	aa1603e0 	mov	x0, x22
    73f0:	97fffbf5 	bl	63c4 <mbedtls_mpi_bitlen>
    73f4:	92401000 	and	x0, x0, #0x1f
/home/jayanth/quemu-v8/source/optee_os/lib/libmbedtls/mbedtls/library/bignum.c:1823 (discriminator 2)
    73f8:	f1007c1f 	cmp	x0, #0x1f
    73fc:	54000a20 	b.eq	7540 <mbedtls_mpi_div_mpi+0x2e4>  // b.none
/home/jayanth/quemu-v8/source/optee_os/lib/libmbedtls/mbedtls/library/bignum.c:1825
    7400:	d28003fa 	mov	x26, #0x1f                  	// #31
    7404:	cb00035a 	sub	x26, x26, x0
/home/jayanth/quemu-v8/source/optee_os/lib/libmbedtls/mbedtls/library/bignum.c:1826
    7408:	aa1a03e1 	mov	x1, x26
    740c:	aa1403e0 	mov	x0, x20
    7410:	97fffcc5 	bl	6724 <mbedtls_mpi_shift_l>
    7414:	2a0003fb 	mov	w27, w0
    7418:	35fff8e0 	cbnz	w0, 7334 <mbedtls_mpi_div_mpi+0xd8>
/home/jayanth/quemu-v8/source/optee_os/lib/libmbedtls/mbedtls/library/bignum.c:1827 (discriminator 2)
    741c:	aa1a03e1 	mov	x1, x26
    7420:	aa1603e0 	mov	x0, x22
    7424:	97fffcc0 	bl	6724 <mbedtls_mpi_shift_l>
    7428:	2a0003fb 	mov	w27, w0
    742c:	35fff840 	cbnz	w0, 7334 <mbedtls_mpi_div_mpi+0xd8>
/home/jayanth/quemu-v8/source/optee_os/lib/libmbedtls/mbedtls/library/bignum.c:1831
    7430:	f94063e0 	ldr	x0, [sp, #192]
    7434:	f90037e0 	str	x0, [sp, #104]
/home/jayanth/quemu-v8/source/optee_os/lib/libmbedtls/mbedtls/library/bignum.c:1832
    7438:	f9406fe0 	ldr	x0, [sp, #216]
    743c:	f9003fe0 	str	x0, [sp, #120]
/home/jayanth/quemu-v8/source/optee_os/lib/libmbedtls/mbedtls/library/bignum.c:1833
    7440:	f94037e0 	ldr	x0, [sp, #104]
    7444:	f9403fe1 	ldr	x1, [sp, #120]
    7448:	cb010013 	sub	x19, x0, x1
    744c:	d37bea60 	lsl	x0, x19, #5
    7450:	f90043e0 	str	x0, [sp, #128]
    7454:	aa0003e1 	mov	x1, x0
    7458:	aa1603e0 	mov	x0, x22
    745c:	97fffcb2 	bl	6724 <mbedtls_mpi_shift_l>
    7460:	2a0003fb 	mov	w27, w0
    7464:	35fff680 	cbnz	w0, 7334 <mbedtls_mpi_div_mpi+0xd8>
/home/jayanth/quemu-v8/source/optee_os/lib/libmbedtls/mbedtls/library/bignum.c:1837
    7468:	d37ef673 	lsl	x19, x19, #2
/home/jayanth/quemu-v8/source/optee_os/lib/libmbedtls/mbedtls/library/bignum.c:1835 (discriminator 2)
    746c:	aa1603e1 	mov	x1, x22
    7470:	aa1403e0 	mov	x0, x20
    7474:	97fffd47 	bl	6990 <mbedtls_mpi_cmp_mpi>
    7478:	36f80680 	tbz	w0, #31, 7548 <mbedtls_mpi_div_mpi+0x2ec>
/home/jayanth/quemu-v8/source/optee_os/lib/libmbedtls/mbedtls/library/bignum.c:1840
    747c:	f94043e1 	ldr	x1, [sp, #128]
    7480:	aa1603e0 	mov	x0, x22
    7484:	97fffcec 	bl	6834 <mbedtls_mpi_shift_r>
    7488:	2a0003fb 	mov	w27, w0
    748c:	35fff540 	cbnz	w0, 7334 <mbedtls_mpi_div_mpi+0xd8>
/home/jayanth/quemu-v8/source/optee_os/lib/libmbedtls/mbedtls/library/bignum.c:1831
    7490:	f94037e0 	ldr	x0, [sp, #104]
    7494:	d1001273 	sub	x19, x19, #0x4
    7498:	d1000400 	sub	x0, x0, #0x1
    749c:	f90037e0 	str	x0, [sp, #104]
/home/jayanth/quemu-v8/source/optee_os/lib/libmbedtls/mbedtls/library/bignum.c:1832
    74a0:	f9403fe0 	ldr	x0, [sp, #120]
    74a4:	d1000400 	sub	x0, x0, #0x1
    74a8:	f90043e0 	str	x0, [sp, #128]
/home/jayanth/quemu-v8/source/optee_os/lib/libmbedtls/mbedtls/library/bignum.c:1844
    74ac:	d37ef400 	lsl	x0, x0, #2
    74b0:	f9003fe0 	str	x0, [sp, #120]
/home/jayanth/quemu-v8/source/optee_os/lib/libmbedtls/mbedtls/library/bignum.c:1866
    74b4:	910463e0 	add	x0, sp, #0x118
    74b8:	f9004be0 	str	x0, [sp, #144]
/home/jayanth/quemu-v8/source/optee_os/lib/libmbedtls/mbedtls/library/bignum.c:1842 (discriminator 1)
    74bc:	f94037e0 	ldr	x0, [sp, #104]
    74c0:	f94043e1 	ldr	x1, [sp, #128]
    74c4:	eb01001f 	cmp	x0, x1
    74c8:	54000568 	b.hi	7574 <mbedtls_mpi_div_mpi+0x318>  // b.pmore
/home/jayanth/quemu-v8/source/optee_os/lib/libmbedtls/mbedtls/library/bignum.c:1881
    74cc:	b4000159 	cbz	x25, 74f4 <mbedtls_mpi_div_mpi+0x298>
/home/jayanth/quemu-v8/source/optee_os/lib/libmbedtls/mbedtls/library/bignum.c:1883
    74d0:	aa1c03e1 	mov	x1, x28
    74d4:	aa1903e0 	mov	x0, x25
    74d8:	97fffab1 	bl	5f9c <mbedtls_mpi_copy>
    74dc:	35001380 	cbnz	w0, 774c <mbedtls_mpi_div_mpi+0x4f0>
/home/jayanth/quemu-v8/source/optee_os/lib/libmbedtls/mbedtls/library/bignum.c:1884 (discriminator 2)
    74e0:	f9403be1 	ldr	x1, [sp, #112]
    74e4:	79400300 	ldrh	w0, [x24]
    74e8:	79400021 	ldrh	w1, [x1]
    74ec:	1b017c00 	mul	w0, w0, w1
    74f0:	79000320 	strh	w0, [x25]
/home/jayanth/quemu-v8/source/optee_os/lib/libmbedtls/mbedtls/library/bignum.c:1887
    74f4:	b4fff217 	cbz	x23, 7334 <mbedtls_mpi_div_mpi+0xd8>
/home/jayanth/quemu-v8/source/optee_os/lib/libmbedtls/mbedtls/library/bignum.c:1889
    74f8:	aa1a03e1 	mov	x1, x26
    74fc:	aa1403e0 	mov	x0, x20
    7500:	97fffccd 	bl	6834 <mbedtls_mpi_shift_r>
    7504:	35001240 	cbnz	w0, 774c <mbedtls_mpi_div_mpi+0x4f0>
/home/jayanth/quemu-v8/source/optee_os/lib/libmbedtls/mbedtls/library/bignum.c:1890 (discriminator 2)
    7508:	79400300 	ldrh	w0, [x24]
/home/jayanth/quemu-v8/source/optee_os/lib/libmbedtls/mbedtls/library/bignum.c:1891 (discriminator 2)
    750c:	aa1403e1 	mov	x1, x20
/home/jayanth/quemu-v8/source/optee_os/lib/libmbedtls/mbedtls/library/bignum.c:1890 (discriminator 2)
    7510:	790173e0 	strh	w0, [sp, #184]
/home/jayanth/quemu-v8/source/optee_os/lib/libmbedtls/mbedtls/library/bignum.c:1891 (discriminator 2)
    7514:	aa1703e0 	mov	x0, x23
    7518:	97fffaa1 	bl	5f9c <mbedtls_mpi_copy>
    751c:	35001180 	cbnz	w0, 774c <mbedtls_mpi_div_mpi+0x4f0>
/home/jayanth/quemu-v8/source/optee_os/lib/libmbedtls/mbedtls/library/bignum.c:1893 (discriminator 2)
    7520:	aa1703e0 	mov	x0, x23
    7524:	52800001 	mov	w1, #0x0                   	// #0
    7528:	97fffd82 	bl	6b30 <mbedtls_mpi_cmp_int>
    752c:	35fff040 	cbnz	w0, 7334 <mbedtls_mpi_div_mpi+0xd8>
/home/jayanth/quemu-v8/source/optee_os/lib/libmbedtls/mbedtls/library/bignum.c:1894
    7530:	52800020 	mov	w0, #0x1                   	// #1
/home/jayanth/quemu-v8/source/optee_os/lib/libmbedtls/mbedtls/library/bignum.c:1891
    7534:	5280001b 	mov	w27, #0x0                   	// #0
/home/jayanth/quemu-v8/source/optee_os/lib/libmbedtls/mbedtls/library/bignum.c:1894
    7538:	790002e0 	strh	w0, [x23]
    753c:	17ffff7e 	b	7334 <mbedtls_mpi_div_mpi+0xd8>
/home/jayanth/quemu-v8/source/optee_os/lib/libmbedtls/mbedtls/library/bignum.c:1829
    7540:	d280001a 	mov	x26, #0x0                   	// #0
    7544:	17ffffbb 	b	7430 <mbedtls_mpi_div_mpi+0x1d4>
/home/jayanth/quemu-v8/source/optee_os/lib/libmbedtls/mbedtls/library/bignum.c:1837
    7548:	f9407fe1 	ldr	x1, [sp, #248]
/home/jayanth/quemu-v8/source/optee_os/lib/libmbedtls/mbedtls/library/bignum.c:1838
    754c:	aa1603e2 	mov	x2, x22
/home/jayanth/quemu-v8/source/optee_os/lib/libmbedtls/mbedtls/library/bignum.c:1837
    7550:	b8736820 	ldr	w0, [x1, x19]
    7554:	11000400 	add	w0, w0, #0x1
    7558:	b8336820 	str	w0, [x1, x19]
/home/jayanth/quemu-v8/source/optee_os/lib/libmbedtls/mbedtls/library/bignum.c:1838
    755c:	aa1403e1 	mov	x1, x20
    7560:	aa1403e0 	mov	x0, x20
    7564:	97fffe22 	bl	6dec <mbedtls_mpi_sub_mpi>
    7568:	2a0003fb 	mov	w27, w0
    756c:	34fff800 	cbz	w0, 746c <mbedtls_mpi_div_mpi+0x210>
    7570:	17ffff71 	b	7334 <mbedtls_mpi_div_mpi+0xd8>
/home/jayanth/quemu-v8/source/optee_os/lib/libmbedtls/mbedtls/library/bignum.c:1844
    7574:	f94037e0 	ldr	x0, [sp, #104]
    7578:	f94067e2 	ldr	x2, [sp, #200]
    757c:	d37ef406 	lsl	x6, x0, #2
    7580:	f9403fe3 	ldr	x3, [sp, #120]
    7584:	8b000848 	add	x8, x2, x0, lsl #2
    7588:	f94073e0 	ldr	x0, [sp, #224]
    758c:	d10010c7 	sub	x7, x6, #0x4
    7590:	b8666841 	ldr	w1, [x2, x6]
    7594:	b8636804 	ldr	w4, [x0, x3]
    7598:	f9407fe0 	ldr	x0, [sp, #248]
    759c:	6b04003f 	cmp	w1, w4
    75a0:	8b130005 	add	x5, x0, x19
    75a4:	54000b23 	b.cc	7708 <mbedtls_mpi_div_mpi+0x4ac>  // b.lo, b.ul, b.last
/home/jayanth/quemu-v8/source/optee_os/lib/libmbedtls/mbedtls/library/bignum.c:1845
    75a8:	12800001 	mov	w1, #0xffffffff            	// #-1
    75ac:	b8336801 	str	w1, [x0, x19]
/home/jayanth/quemu-v8/source/optee_os/lib/libmbedtls/mbedtls/library/bignum.c:1852
    75b0:	f94037e0 	ldr	x0, [sp, #104]
    75b4:	f100041f 	cmp	x0, #0x1
    75b8:	54000c20 	b.eq	773c <mbedtls_mpi_div_mpi+0x4e0>  // b.none
/home/jayanth/quemu-v8/source/optee_os/lib/libmbedtls/mbedtls/library/bignum.c:1852 (discriminator 1)
    75bc:	b85f8101 	ldur	w1, [x8, #-8]
/home/jayanth/quemu-v8/source/optee_os/lib/libmbedtls/mbedtls/library/bignum.c:1852 (discriminator 4)
    75c0:	f94097e0 	ldr	x0, [sp, #296]
    75c4:	b9000001 	str	w1, [x0]
/home/jayanth/quemu-v8/source/optee_os/lib/libmbedtls/mbedtls/library/bignum.c:1853 (discriminator 4)
    75c8:	b8676841 	ldr	w1, [x2, x7]
    75cc:	b9000401 	str	w1, [x0, #4]
/home/jayanth/quemu-v8/source/optee_os/lib/libmbedtls/mbedtls/library/bignum.c:1854 (discriminator 4)
    75d0:	b8666841 	ldr	w1, [x2, x6]
    75d4:	b9000801 	str	w1, [x0, #8]
/home/jayanth/quemu-v8/source/optee_os/lib/libmbedtls/mbedtls/library/bignum.c:1856 (discriminator 4)
    75d8:	b94000a0 	ldr	w0, [x5]
    75dc:	11000400 	add	w0, w0, #0x1
    75e0:	b90000a0 	str	w0, [x5]
/home/jayanth/quemu-v8/source/optee_os/lib/libmbedtls/mbedtls/library/bignum.c:1859
    75e4:	f9407fe1 	ldr	x1, [sp, #248]
    75e8:	b8736820 	ldr	w0, [x1, x19]
    75ec:	51000400 	sub	w0, w0, #0x1
    75f0:	b8336820 	str	w0, [x1, x19]
/home/jayanth/quemu-v8/source/optee_os/lib/libmbedtls/mbedtls/library/bignum.c:1861
    75f4:	aa1503e0 	mov	x0, x21
    75f8:	52800001 	mov	w1, #0x0                   	// #0
    75fc:	97fffb15 	bl	6250 <mbedtls_mpi_lset>
    7600:	35000a60 	cbnz	w0, 774c <mbedtls_mpi_div_mpi+0x4f0>
/home/jayanth/quemu-v8/source/optee_os/lib/libmbedtls/mbedtls/library/bignum.c:1862 (discriminator 2)
    7604:	f94043e0 	ldr	x0, [sp, #128]
    7608:	f94073e1 	ldr	x1, [sp, #224]
    760c:	b40009c0 	cbz	x0, 7744 <mbedtls_mpi_div_mpi+0x4e8>
/home/jayanth/quemu-v8/source/optee_os/lib/libmbedtls/mbedtls/library/bignum.c:1862 (discriminator 1)
    7610:	f9403fe0 	ldr	x0, [sp, #120]
    7614:	8b000020 	add	x0, x1, x0
    7618:	b85fc002 	ldur	w2, [x0, #-4]
/home/jayanth/quemu-v8/source/optee_os/lib/libmbedtls/mbedtls/library/bignum.c:1862 (discriminator 4)
    761c:	f9408be0 	ldr	x0, [sp, #272]
    7620:	b9000002 	str	w2, [x0]
/home/jayanth/quemu-v8/source/optee_os/lib/libmbedtls/mbedtls/library/bignum.c:1863 (discriminator 4)
    7624:	f9403fe2 	ldr	x2, [sp, #120]
    7628:	b8626821 	ldr	w1, [x1, x2]
    762c:	b9000401 	str	w1, [x0, #4]
/home/jayanth/quemu-v8/source/optee_os/lib/libmbedtls/mbedtls/library/bignum.c:1864 (discriminator 4)
    7630:	aa1503e1 	mov	x1, x21
    7634:	f9407fe0 	ldr	x0, [sp, #248]
    7638:	b8736802 	ldr	w2, [x0, x19]
    763c:	aa1503e0 	mov	x0, x21
    7640:	97fffe81 	bl	7044 <mbedtls_mpi_mul_int>
    7644:	35000840 	cbnz	w0, 774c <mbedtls_mpi_div_mpi+0x4f0>
/home/jayanth/quemu-v8/source/optee_os/lib/libmbedtls/mbedtls/library/bignum.c:1866 (discriminator 2)
    7648:	f9404be1 	ldr	x1, [sp, #144]
    764c:	aa1503e0 	mov	x0, x21
    7650:	97fffcd0 	bl	6990 <mbedtls_mpi_cmp_mpi>
    7654:	7100001f 	cmp	w0, #0x0
    7658:	54fffc6c 	b.gt	75e4 <mbedtls_mpi_div_mpi+0x388>
/home/jayanth/quemu-v8/source/optee_os/lib/libmbedtls/mbedtls/library/bignum.c:1868
    765c:	f9407fe0 	ldr	x0, [sp, #248]
    7660:	aa1603e1 	mov	x1, x22
    7664:	b8736802 	ldr	w2, [x0, x19]
    7668:	aa1503e0 	mov	x0, x21
    766c:	97fffe76 	bl	7044 <mbedtls_mpi_mul_int>
    7670:	350006e0 	cbnz	w0, 774c <mbedtls_mpi_div_mpi+0x4f0>
/home/jayanth/quemu-v8/source/optee_os/lib/libmbedtls/mbedtls/library/bignum.c:1869 (discriminator 2)
    7674:	d37df260 	lsl	x0, x19, #3
    7678:	f9004fe0 	str	x0, [sp, #152]
    767c:	aa0003e1 	mov	x1, x0
    7680:	aa1503e0 	mov	x0, x21
    7684:	97fffc28 	bl	6724 <mbedtls_mpi_shift_l>
    7688:	35000620 	cbnz	w0, 774c <mbedtls_mpi_div_mpi+0x4f0>
/home/jayanth/quemu-v8/source/optee_os/lib/libmbedtls/mbedtls/library/bignum.c:1870 (discriminator 2)
    768c:	aa1503e2 	mov	x2, x21
    7690:	aa1403e1 	mov	x1, x20
    7694:	aa1403e0 	mov	x0, x20
    7698:	97fffdd5 	bl	6dec <mbedtls_mpi_sub_mpi>
    769c:	35000580 	cbnz	w0, 774c <mbedtls_mpi_div_mpi+0x4f0>
/home/jayanth/quemu-v8/source/optee_os/lib/libmbedtls/mbedtls/library/bignum.c:1872 (discriminator 2)
    76a0:	aa1403e0 	mov	x0, x20
    76a4:	52800001 	mov	w1, #0x0                   	// #0
    76a8:	97fffd22 	bl	6b30 <mbedtls_mpi_cmp_int>
    76ac:	36f80240 	tbz	w0, #31, 76f4 <mbedtls_mpi_div_mpi+0x498>
/home/jayanth/quemu-v8/source/optee_os/lib/libmbedtls/mbedtls/library/bignum.c:1874
    76b0:	aa1603e1 	mov	x1, x22
    76b4:	aa1503e0 	mov	x0, x21
    76b8:	97fffa39 	bl	5f9c <mbedtls_mpi_copy>
    76bc:	35000480 	cbnz	w0, 774c <mbedtls_mpi_div_mpi+0x4f0>
/home/jayanth/quemu-v8/source/optee_os/lib/libmbedtls/mbedtls/library/bignum.c:1875 (discriminator 2)
    76c0:	d37df261 	lsl	x1, x19, #3
    76c4:	aa1503e0 	mov	x0, x21
    76c8:	97fffc17 	bl	6724 <mbedtls_mpi_shift_l>
    76cc:	35000400 	cbnz	w0, 774c <mbedtls_mpi_div_mpi+0x4f0>
/home/jayanth/quemu-v8/source/optee_os/lib/libmbedtls/mbedtls/library/bignum.c:1876 (discriminator 2)
    76d0:	aa1503e2 	mov	x2, x21
    76d4:	aa1403e1 	mov	x1, x20
    76d8:	aa1403e0 	mov	x0, x20
    76dc:	97fffda2 	bl	6d64 <mbedtls_mpi_add_mpi>
    76e0:	35000360 	cbnz	w0, 774c <mbedtls_mpi_div_mpi+0x4f0>
/home/jayanth/quemu-v8/source/optee_os/lib/libmbedtls/mbedtls/library/bignum.c:1877 (discriminator 2)
    76e4:	f9407fe1 	ldr	x1, [sp, #248]
    76e8:	b8736820 	ldr	w0, [x1, x19]
    76ec:	51000400 	sub	w0, w0, #0x1
    76f0:	b8336820 	str	w0, [x1, x19]
/home/jayanth/quemu-v8/source/optee_os/lib/libmbedtls/mbedtls/library/bignum.c:1842 (discriminator 2)
    76f4:	f94037e0 	ldr	x0, [sp, #104]
    76f8:	d1001273 	sub	x19, x19, #0x4
    76fc:	d1000400 	sub	x0, x0, #0x1
    7700:	f90037e0 	str	x0, [sp, #104]
    7704:	17ffff6e 	b	74bc <mbedtls_mpi_div_mpi+0x260>
/home/jayanth/quemu-v8/source/optee_os/lib/libmbedtls/mbedtls/library/bignum.c:1848
    7708:	b8676840 	ldr	w0, [x2, x7]
mbedtls_int_div_int():
/home/jayanth/quemu-v8/source/optee_os/lib/libmbedtls/mbedtls/library/bignum.c:1702
    770c:	34000144 	cbz	w4, 7734 <mbedtls_mpi_div_mpi+0x4d8>
/home/jayanth/quemu-v8/source/optee_os/lib/libmbedtls/mbedtls/library/bignum.c:1711
    7710:	2a0003e0 	mov	w0, w0
/home/jayanth/quemu-v8/source/optee_os/lib/libmbedtls/mbedtls/library/bignum.c:1712
    7714:	2a0403e4 	mov	w4, w4
/home/jayanth/quemu-v8/source/optee_os/lib/libmbedtls/mbedtls/library/bignum.c:1711
    7718:	aa018000 	orr	x0, x0, x1, lsl #32
/home/jayanth/quemu-v8/source/optee_os/lib/libmbedtls/mbedtls/library/bignum.c:1719
    771c:	b2407fe1 	mov	x1, #0xffffffff            	// #4294967295
/home/jayanth/quemu-v8/source/optee_os/lib/libmbedtls/mbedtls/library/bignum.c:1712
    7720:	9ac40800 	udiv	x0, x0, x4
/home/jayanth/quemu-v8/source/optee_os/lib/libmbedtls/mbedtls/library/bignum.c:1719
    7724:	eb01001f 	cmp	x0, x1
    7728:	9a819000 	csel	x0, x0, x1, ls  // ls = plast
mbedtls_mpi_div_mpi():
/home/jayanth/quemu-v8/source/optee_os/lib/libmbedtls/mbedtls/library/bignum.c:1848
    772c:	b90000a0 	str	w0, [x5]
    7730:	17ffffa0 	b	75b0 <mbedtls_mpi_div_mpi+0x354>
mbedtls_int_div_int():
/home/jayanth/quemu-v8/source/optee_os/lib/libmbedtls/mbedtls/library/bignum.c:1706
    7734:	12800000 	mov	w0, #0xffffffff            	// #-1
    7738:	17fffffd 	b	772c <mbedtls_mpi_div_mpi+0x4d0>
mbedtls_mpi_div_mpi():
/home/jayanth/quemu-v8/source/optee_os/lib/libmbedtls/mbedtls/library/bignum.c:1852
    773c:	52800001 	mov	w1, #0x0                   	// #0
    7740:	17ffffa0 	b	75c0 <mbedtls_mpi_div_mpi+0x364>
/home/jayanth/quemu-v8/source/optee_os/lib/libmbedtls/mbedtls/library/bignum.c:1862
    7744:	52800002 	mov	w2, #0x0                   	// #0
    7748:	17ffffb5 	b	761c <mbedtls_mpi_div_mpi+0x3c0>
    774c:	2a0003fb 	mov	w27, w0
    7750:	17fffef9 	b	7334 <mbedtls_mpi_div_mpi+0xd8>
/home/jayanth/quemu-v8/source/optee_os/lib/libmbedtls/mbedtls/library/bignum.c:1792
    7754:	1280017b 	mov	w27, #0xfffffff4            	// #-12
    7758:	17fffeea 	b	7300 <mbedtls_mpi_div_mpi+0xa4>

000000000000775c <mbedtls_mpi_div_int>:
mbedtls_mpi_div_int():
/home/jayanth/quemu-v8/source/optee_os/lib/libmbedtls/mbedtls/library/bignum.c:1912
    775c:	a9bd7bfd 	stp	x29, x30, [sp, #-48]!
/home/jayanth/quemu-v8/source/optee_os/lib/libmbedtls/mbedtls/library/bignum.c:1917
    7760:	7100007f 	cmp	w3, #0x0
    7764:	5a83a464 	cneg	w4, w3, lt  // lt = tstop
/home/jayanth/quemu-v8/source/optee_os/lib/libmbedtls/mbedtls/library/bignum.c:1912
    7768:	910003fd 	mov	x29, sp
/home/jayanth/quemu-v8/source/optee_os/lib/libmbedtls/mbedtls/library/bignum.c:1917
    776c:	b90013e4 	str	w4, [sp, #16]
/home/jayanth/quemu-v8/source/optee_os/lib/libmbedtls/mbedtls/library/bignum.c:1918
    7770:	52800024 	mov	w4, #0x1                   	// #1
    7774:	5a84a484 	cneg	w4, w4, lt  // lt = tstop
/home/jayanth/quemu-v8/source/optee_os/lib/libmbedtls/mbedtls/library/bignum.c:1919
    7778:	d2800023 	mov	x3, #0x1                   	// #1
    777c:	f90013e3 	str	x3, [sp, #32]
/home/jayanth/quemu-v8/source/optee_os/lib/libmbedtls/mbedtls/library/bignum.c:1920
    7780:	910043e3 	add	x3, sp, #0x10
/home/jayanth/quemu-v8/source/optee_os/lib/libmbedtls/mbedtls/library/bignum.c:1918
    7784:	790033e4 	strh	w4, [sp, #24]
/home/jayanth/quemu-v8/source/optee_os/lib/libmbedtls/mbedtls/library/bignum.c:1920
    7788:	f90017e3 	str	x3, [sp, #40]
/home/jayanth/quemu-v8/source/optee_os/lib/libmbedtls/mbedtls/library/bignum.c:1922
    778c:	910063e3 	add	x3, sp, #0x18
    7790:	97fffeb3 	bl	725c <mbedtls_mpi_div_mpi>
/home/jayanth/quemu-v8/source/optee_os/lib/libmbedtls/mbedtls/library/bignum.c:1923
    7794:	a8c37bfd 	ldp	x29, x30, [sp], #48
    7798:	d65f03c0 	ret

000000000000779c <mbedtls_mpi_mod_mpi>:
mbedtls_mpi_mod_mpi():
/home/jayanth/quemu-v8/source/optee_os/lib/libmbedtls/mbedtls/library/bignum.c:1929
    779c:	a9bd7bfd 	stp	x29, x30, [sp, #-48]!
    77a0:	910003fd 	mov	x29, sp
    77a4:	a90153f3 	stp	x19, x20, [sp, #16]
    77a8:	aa0003f3 	mov	x19, x0
    77ac:	aa0103f4 	mov	x20, x1
/home/jayanth/quemu-v8/source/optee_os/lib/libmbedtls/mbedtls/library/bignum.c:1935
    77b0:	aa0203e0 	mov	x0, x2
    77b4:	52800001 	mov	w1, #0x0                   	// #0
/home/jayanth/quemu-v8/source/optee_os/lib/libmbedtls/mbedtls/library/bignum.c:1929
    77b8:	f90013f5 	str	x21, [sp, #32]
    77bc:	aa0203f5 	mov	x21, x2
/home/jayanth/quemu-v8/source/optee_os/lib/libmbedtls/mbedtls/library/bignum.c:1935
    77c0:	97fffcdc 	bl	6b30 <mbedtls_mpi_cmp_int>
    77c4:	37f80420 	tbnz	w0, #31, 7848 <mbedtls_mpi_mod_mpi+0xac>
/home/jayanth/quemu-v8/source/optee_os/lib/libmbedtls/mbedtls/library/bignum.c:1938
    77c8:	aa1403e2 	mov	x2, x20
    77cc:	aa1503e3 	mov	x3, x21
    77d0:	aa1303e1 	mov	x1, x19
    77d4:	d2800000 	mov	x0, #0x0                   	// #0
    77d8:	97fffea1 	bl	725c <mbedtls_mpi_div_mpi>
    77dc:	2a0003f4 	mov	w20, w0
    77e0:	34000160 	cbz	w0, 780c <mbedtls_mpi_mod_mpi+0x70>
/home/jayanth/quemu-v8/source/optee_os/lib/libmbedtls/mbedtls/library/bignum.c:1949
    77e4:	2a1403e0 	mov	w0, w20
    77e8:	a94153f3 	ldp	x19, x20, [sp, #16]
    77ec:	f94013f5 	ldr	x21, [sp, #32]
    77f0:	a8c37bfd 	ldp	x29, x30, [sp], #48
    77f4:	d65f03c0 	ret
/home/jayanth/quemu-v8/source/optee_os/lib/libmbedtls/mbedtls/library/bignum.c:1941
    77f8:	aa1503e2 	mov	x2, x21
    77fc:	aa1303e1 	mov	x1, x19
    7800:	aa1303e0 	mov	x0, x19
    7804:	97fffd58 	bl	6d64 <mbedtls_mpi_add_mpi>
    7808:	350001c0 	cbnz	w0, 7840 <mbedtls_mpi_mod_mpi+0xa4>
/home/jayanth/quemu-v8/source/optee_os/lib/libmbedtls/mbedtls/library/bignum.c:1940
    780c:	aa1303e0 	mov	x0, x19
    7810:	52800001 	mov	w1, #0x0                   	// #0
    7814:	97fffcc7 	bl	6b30 <mbedtls_mpi_cmp_int>
    7818:	37ffff00 	tbnz	w0, #31, 77f8 <mbedtls_mpi_mod_mpi+0x5c>
/home/jayanth/quemu-v8/source/optee_os/lib/libmbedtls/mbedtls/library/bignum.c:1943
    781c:	aa1503e1 	mov	x1, x21
    7820:	aa1303e0 	mov	x0, x19
    7824:	97fffc5b 	bl	6990 <mbedtls_mpi_cmp_mpi>
    7828:	37fffde0 	tbnz	w0, #31, 77e4 <mbedtls_mpi_mod_mpi+0x48>
/home/jayanth/quemu-v8/source/optee_os/lib/libmbedtls/mbedtls/library/bignum.c:1944
    782c:	aa1503e2 	mov	x2, x21
    7830:	aa1303e1 	mov	x1, x19
    7834:	aa1303e0 	mov	x0, x19
    7838:	97fffd6d 	bl	6dec <mbedtls_mpi_sub_mpi>
    783c:	34ffff00 	cbz	w0, 781c <mbedtls_mpi_mod_mpi+0x80>
    7840:	2a0003f4 	mov	w20, w0
    7844:	17ffffe8 	b	77e4 <mbedtls_mpi_mod_mpi+0x48>
/home/jayanth/quemu-v8/source/optee_os/lib/libmbedtls/mbedtls/library/bignum.c:1936
    7848:	12800134 	mov	w20, #0xfffffff6            	// #-10
    784c:	17ffffe6 	b	77e4 <mbedtls_mpi_mod_mpi+0x48>

0000000000007850 <mbedtls_mpi_mod_int>:
mbedtls_mpi_mod_int():
/home/jayanth/quemu-v8/source/optee_os/lib/libmbedtls/mbedtls/library/bignum.c:1961
    7850:	7100005f 	cmp	w2, #0x0
    7854:	34000462 	cbz	w2, 78e0 <mbedtls_mpi_mod_int+0x90>
/home/jayanth/quemu-v8/source/optee_os/lib/libmbedtls/mbedtls/library/bignum.c:1964
    7858:	5400048b 	b.lt	78e8 <mbedtls_mpi_mod_int+0x98>  // b.tstop
/home/jayanth/quemu-v8/source/optee_os/lib/libmbedtls/mbedtls/library/bignum.c:1970
    785c:	7100045f 	cmp	w2, #0x1
    7860:	54000081 	b.ne	7870 <mbedtls_mpi_mod_int+0x20>  // b.any
/home/jayanth/quemu-v8/source/optee_os/lib/libmbedtls/mbedtls/library/bignum.c:1972
    7864:	b900001f 	str	wzr, [x0]
/home/jayanth/quemu-v8/source/optee_os/lib/libmbedtls/mbedtls/library/bignum.c:2005
    7868:	52800000 	mov	w0, #0x0                   	// #0
/home/jayanth/quemu-v8/source/optee_os/lib/libmbedtls/mbedtls/library/bignum.c:2008
    786c:	d65f03c0 	ret
/home/jayanth/quemu-v8/source/optee_os/lib/libmbedtls/mbedtls/library/bignum.c:1976
    7870:	7100085f 	cmp	w2, #0x2
    7874:	540000c1 	b.ne	788c <mbedtls_mpi_mod_int+0x3c>  // b.any
/home/jayanth/quemu-v8/source/optee_os/lib/libmbedtls/mbedtls/library/bignum.c:1978
    7878:	f9400821 	ldr	x1, [x1, #16]
    787c:	b9400021 	ldr	w1, [x1]
    7880:	12000021 	and	w1, w1, #0x1
    7884:	b9000001 	str	w1, [x0]
/home/jayanth/quemu-v8/source/optee_os/lib/libmbedtls/mbedtls/library/bignum.c:1979
    7888:	17fffff8 	b	7868 <mbedtls_mpi_mod_int+0x18>
/home/jayanth/quemu-v8/source/optee_os/lib/libmbedtls/mbedtls/library/bignum.c:1985
    788c:	f9400425 	ldr	x5, [x1, #8]
    7890:	52800003 	mov	w3, #0x0                   	// #0
    7894:	d10004a5 	sub	x5, x5, #0x1
    7898:	b10004bf 	cmn	x5, #0x1
    789c:	540000e1 	b.ne	78b8 <mbedtls_mpi_mod_int+0x68>  // b.any
/home/jayanth/quemu-v8/source/optee_os/lib/libmbedtls/mbedtls/library/bignum.c:2002
    78a0:	79c00021 	ldrsh	w1, [x1]
    78a4:	36f80061 	tbz	w1, #31, 78b0 <mbedtls_mpi_mod_int+0x60>
    78a8:	34000043 	cbz	w3, 78b0 <mbedtls_mpi_mod_int+0x60>
/home/jayanth/quemu-v8/source/optee_os/lib/libmbedtls/mbedtls/library/bignum.c:2003
    78ac:	4b030043 	sub	w3, w2, w3
/home/jayanth/quemu-v8/source/optee_os/lib/libmbedtls/mbedtls/library/bignum.c:2005
    78b0:	b9000003 	str	w3, [x0]
    78b4:	17ffffed 	b	7868 <mbedtls_mpi_mod_int+0x18>
/home/jayanth/quemu-v8/source/optee_os/lib/libmbedtls/mbedtls/library/bignum.c:1987
    78b8:	f9400824 	ldr	x4, [x1, #16]
    78bc:	b8657886 	ldr	w6, [x4, x5, lsl #2]
/home/jayanth/quemu-v8/source/optee_os/lib/libmbedtls/mbedtls/library/bignum.c:1988
    78c0:	13864063 	extr	w3, w3, w6, #16
/home/jayanth/quemu-v8/source/optee_os/lib/libmbedtls/mbedtls/library/bignum.c:1993
    78c4:	1ac20864 	udiv	w4, w3, w2
    78c8:	1b028c83 	msub	w3, w4, w2, w3
    78cc:	12003cc4 	and	w4, w6, #0xffff
    78d0:	2a034084 	orr	w4, w4, w3, lsl #16
    78d4:	1ac20883 	udiv	w3, w4, w2
    78d8:	1b029063 	msub	w3, w3, w2, w4
/home/jayanth/quemu-v8/source/optee_os/lib/libmbedtls/mbedtls/library/bignum.c:1985
    78dc:	17ffffee 	b	7894 <mbedtls_mpi_mod_int+0x44>
/home/jayanth/quemu-v8/source/optee_os/lib/libmbedtls/mbedtls/library/bignum.c:1962
    78e0:	12800160 	mov	w0, #0xfffffff4            	// #-12
    78e4:	17ffffe2 	b	786c <mbedtls_mpi_mod_int+0x1c>
/home/jayanth/quemu-v8/source/optee_os/lib/libmbedtls/mbedtls/library/bignum.c:1965
    78e8:	12800120 	mov	w0, #0xfffffff6            	// #-10
    78ec:	17ffffe0 	b	786c <mbedtls_mpi_mod_int+0x1c>

00000000000078f0 <mbedtls_mpi_write_string>:
mbedtls_mpi_write_string():
/home/jayanth/quemu-v8/source/optee_os/lib/libmbedtls/mbedtls/library/bignum.c:622
    78f0:	a9b87bfd 	stp	x29, x30, [sp, #-128]!
    78f4:	910003fd 	mov	x29, sp
    78f8:	a90153f3 	stp	x19, x20, [sp, #16]
    78fc:	a9025bf5 	stp	x21, x22, [sp, #32]
    7900:	2a0103f5 	mov	w21, w1
/home/jayanth/quemu-v8/source/optee_os/lib/libmbedtls/mbedtls/library/bignum.c:631
    7904:	51000821 	sub	w1, w1, #0x2
/home/jayanth/quemu-v8/source/optee_os/lib/libmbedtls/mbedtls/library/bignum.c:622
    7908:	a90363f7 	stp	x23, x24, [sp, #48]
/home/jayanth/quemu-v8/source/optee_os/lib/libmbedtls/mbedtls/library/bignum.c:631
    790c:	7100383f 	cmp	w1, #0xe
/home/jayanth/quemu-v8/source/optee_os/lib/libmbedtls/mbedtls/library/bignum.c:622
    7910:	a9046bf9 	stp	x25, x26, [sp, #64]
    7914:	a90573fb 	stp	x27, x28, [sp, #80]
/home/jayanth/quemu-v8/source/optee_os/lib/libmbedtls/mbedtls/library/bignum.c:631
    7918:	54001028 	b.hi	7b1c <mbedtls_mpi_write_string+0x22c>  // b.pmore
    791c:	aa0003f4 	mov	x20, x0
    7920:	aa0203f7 	mov	x23, x2
    7924:	aa0303f8 	mov	x24, x3
    7928:	aa0403f6 	mov	x22, x4
/home/jayanth/quemu-v8/source/optee_os/lib/libmbedtls/mbedtls/library/bignum.c:634
    792c:	97fffaa6 	bl	63c4 <mbedtls_mpi_bitlen>
/home/jayanth/quemu-v8/source/optee_os/lib/libmbedtls/mbedtls/library/bignum.c:635
    7930:	71000ebf 	cmp	w21, #0x3
    7934:	5400004d 	b.le	793c <mbedtls_mpi_write_string+0x4c>
/home/jayanth/quemu-v8/source/optee_os/lib/libmbedtls/mbedtls/library/bignum.c:635 (discriminator 1)
    7938:	d341fc00 	lsr	x0, x0, #1
/home/jayanth/quemu-v8/source/optee_os/lib/libmbedtls/mbedtls/library/bignum.c:639
    793c:	710042bf 	cmp	w21, #0x10
    7940:	54000041 	b.ne	7948 <mbedtls_mpi_write_string+0x58>  // b.any
/home/jayanth/quemu-v8/source/optee_os/lib/libmbedtls/mbedtls/library/bignum.c:639 (discriminator 1)
    7944:	d341fc00 	lsr	x0, x0, #1
/home/jayanth/quemu-v8/source/optee_os/lib/libmbedtls/mbedtls/library/bignum.c:646
    7948:	91001001 	add	x1, x0, #0x4
    794c:	927ff821 	and	x1, x1, #0xfffffffffffffffe
/home/jayanth/quemu-v8/source/optee_os/lib/libmbedtls/mbedtls/library/bignum.c:649
    7950:	eb18003f 	cmp	x1, x24
    7954:	54000169 	b.ls	7980 <mbedtls_mpi_write_string+0x90>  // b.plast
/home/jayanth/quemu-v8/source/optee_os/lib/libmbedtls/mbedtls/library/bignum.c:652
    7958:	128000f4 	mov	w20, #0xfffffff8            	// #-8
/home/jayanth/quemu-v8/source/optee_os/lib/libmbedtls/mbedtls/library/bignum.c:651
    795c:	f90002c1 	str	x1, [x22]
/home/jayanth/quemu-v8/source/optee_os/lib/libmbedtls/mbedtls/library/bignum.c:702
    7960:	2a1403e0 	mov	w0, w20
    7964:	a94153f3 	ldp	x19, x20, [sp, #16]
    7968:	a9425bf5 	ldp	x21, x22, [sp, #32]
    796c:	a94363f7 	ldp	x23, x24, [sp, #48]
    7970:	a9446bf9 	ldp	x25, x26, [sp, #64]
    7974:	a94573fb 	ldp	x27, x28, [sp, #80]
    7978:	a8c87bfd 	ldp	x29, x30, [sp], #128
    797c:	d65f03c0 	ret
/home/jayanth/quemu-v8/source/optee_os/lib/libmbedtls/mbedtls/library/bignum.c:656
    7980:	9101a3fb 	add	x27, sp, #0x68
/home/jayanth/quemu-v8/source/optee_os/lib/libmbedtls/mbedtls/library/bignum.c:660
    7984:	aa1703f3 	mov	x19, x23
/home/jayanth/quemu-v8/source/optee_os/lib/libmbedtls/mbedtls/library/bignum.c:656
    7988:	aa1b03e0 	mov	x0, x27
    798c:	97fff8dd 	bl	5d00 <mbedtls_mpi_init_mempool>
/home/jayanth/quemu-v8/source/optee_os/lib/libmbedtls/mbedtls/library/bignum.c:658
    7990:	79c00280 	ldrsh	w0, [x20]
    7994:	3100041f 	cmn	w0, #0x1
    7998:	54000081 	b.ne	79a8 <mbedtls_mpi_write_string+0xb8>  // b.any
/home/jayanth/quemu-v8/source/optee_os/lib/libmbedtls/mbedtls/library/bignum.c:661
    799c:	d1000718 	sub	x24, x24, #0x1
/home/jayanth/quemu-v8/source/optee_os/lib/libmbedtls/mbedtls/library/bignum.c:660
    79a0:	528005a0 	mov	w0, #0x2d                  	// #45
    79a4:	38001660 	strb	w0, [x19], #1
/home/jayanth/quemu-v8/source/optee_os/lib/libmbedtls/mbedtls/library/bignum.c:664
    79a8:	710042bf 	cmp	w21, #0x10
    79ac:	54000561 	b.ne	7a58 <mbedtls_mpi_write_string+0x168>  // b.any
/home/jayanth/quemu-v8/source/optee_os/lib/libmbedtls/mbedtls/library/bignum.c:669
    79b0:	f9400680 	ldr	x0, [x20, #8]
/home/jayanth/quemu-v8/source/optee_os/lib/libmbedtls/mbedtls/library/bignum.c:678
    79b4:	b0000024 	adrp	x4, c000 <__func__.4194+0x3e3>
    79b8:	91104084 	add	x4, x4, #0x410
/home/jayanth/quemu-v8/source/optee_os/lib/libmbedtls/mbedtls/library/bignum.c:669
    79bc:	d2800002 	mov	x2, #0x0                   	// #0
/home/jayanth/quemu-v8/source/optee_os/lib/libmbedtls/mbedtls/library/bignum.c:669 (discriminator 1)
    79c0:	b5000100 	cbnz	x0, 79e0 <mbedtls_mpi_write_string+0xf0>
/home/jayanth/quemu-v8/source/optee_os/lib/libmbedtls/mbedtls/library/bignum.c:694 (discriminator 2)
    79c4:	3800167f 	strb	wzr, [x19], #1
/home/jayanth/quemu-v8/source/optee_os/lib/libmbedtls/mbedtls/library/bignum.c:695 (discriminator 2)
    79c8:	52800014 	mov	w20, #0x0                   	// #0
    79cc:	cb170273 	sub	x19, x19, x23
    79d0:	f90002d3 	str	x19, [x22]
/home/jayanth/quemu-v8/source/optee_os/lib/libmbedtls/mbedtls/library/bignum.c:699
    79d4:	aa1b03e0 	mov	x0, x27
    79d8:	97fff8d4 	bl	5d28 <mbedtls_mpi_free>
/home/jayanth/quemu-v8/source/optee_os/lib/libmbedtls/mbedtls/library/bignum.c:701
    79dc:	17ffffe1 	b	7960 <mbedtls_mpi_write_string+0x70>
/home/jayanth/quemu-v8/source/optee_os/lib/libmbedtls/mbedtls/library/bignum.c:673
    79e0:	d37ef405 	lsl	x5, x0, #2
    79e4:	d2800083 	mov	x3, #0x4                   	// #4
    79e8:	d10010a5 	sub	x5, x5, #0x4
    79ec:	f9400a87 	ldr	x7, [x20, #16]
    79f0:	531d7061 	lsl	w1, w3, #3
    79f4:	51002026 	sub	w6, w1, #0x8
/home/jayanth/quemu-v8/source/optee_os/lib/libmbedtls/mbedtls/library/bignum.c:675
    79f8:	52000042 	eor	w2, w2, #0x1
/home/jayanth/quemu-v8/source/optee_os/lib/libmbedtls/mbedtls/library/bignum.c:673
    79fc:	b86568e1 	ldr	w1, [x7, x5]
    7a00:	1ac62421 	lsr	w1, w1, w6
/home/jayanth/quemu-v8/source/optee_os/lib/libmbedtls/mbedtls/library/bignum.c:675
    7a04:	72001c26 	ands	w6, w1, #0xff
    7a08:	1a9f0042 	csel	w2, w2, wzr, eq  // eq = none
    7a0c:	34000082 	cbz	w2, 7a1c <mbedtls_mpi_write_string+0x12c>
/home/jayanth/quemu-v8/source/optee_os/lib/libmbedtls/mbedtls/library/bignum.c:675 (discriminator 1)
    7a10:	8b030002 	add	x2, x0, x3
    7a14:	f100085f 	cmp	x2, #0x2
    7a18:	540001c1 	b.ne	7a50 <mbedtls_mpi_write_string+0x160>  // b.any
/home/jayanth/quemu-v8/source/optee_os/lib/libmbedtls/mbedtls/library/bignum.c:678
    7a1c:	d3441cc2 	ubfx	x2, x6, #4, #4
/home/jayanth/quemu-v8/source/optee_os/lib/libmbedtls/mbedtls/library/bignum.c:679
    7a20:	92400c21 	and	x1, x1, #0xf
/home/jayanth/quemu-v8/source/optee_os/lib/libmbedtls/mbedtls/library/bignum.c:678
    7a24:	38626886 	ldrb	w6, [x4, x2]
    7a28:	aa1303e2 	mov	x2, x19
/home/jayanth/quemu-v8/source/optee_os/lib/libmbedtls/mbedtls/library/bignum.c:679
    7a2c:	38616881 	ldrb	w1, [x4, x1]
/home/jayanth/quemu-v8/source/optee_os/lib/libmbedtls/mbedtls/library/bignum.c:678
    7a30:	38002446 	strb	w6, [x2], #2
/home/jayanth/quemu-v8/source/optee_os/lib/libmbedtls/mbedtls/library/bignum.c:679
    7a34:	39000661 	strb	w1, [x19, #1]
    7a38:	aa0203f3 	mov	x19, x2
/home/jayanth/quemu-v8/source/optee_os/lib/libmbedtls/mbedtls/library/bignum.c:680
    7a3c:	d2800022 	mov	x2, #0x1                   	// #1
/home/jayanth/quemu-v8/source/optee_os/lib/libmbedtls/mbedtls/library/bignum.c:671 (discriminator 2)
    7a40:	f1000463 	subs	x3, x3, #0x1
    7a44:	54fffd41 	b.ne	79ec <mbedtls_mpi_write_string+0xfc>  // b.any
/home/jayanth/quemu-v8/source/optee_os/lib/libmbedtls/mbedtls/library/bignum.c:669 (discriminator 2)
    7a48:	d1000400 	sub	x0, x0, #0x1
    7a4c:	17ffffdd 	b	79c0 <mbedtls_mpi_write_string+0xd0>
    7a50:	d2800002 	mov	x2, #0x0                   	// #0
    7a54:	17fffffb 	b	7a40 <mbedtls_mpi_write_string+0x150>
/home/jayanth/quemu-v8/source/optee_os/lib/libmbedtls/mbedtls/library/bignum.c:686
    7a58:	aa1403e1 	mov	x1, x20
    7a5c:	aa1b03e0 	mov	x0, x27
    7a60:	97fff94f 	bl	5f9c <mbedtls_mpi_copy>
    7a64:	2a0003f4 	mov	w20, w0
    7a68:	35fffb60 	cbnz	w0, 79d4 <mbedtls_mpi_write_string+0xe4>
/home/jayanth/quemu-v8/source/optee_os/lib/libmbedtls/mbedtls/library/bignum.c:688 (discriminator 2)
    7a6c:	79c0d3e0 	ldrsh	w0, [sp, #104]
    7a70:	3100041f 	cmn	w0, #0x1
    7a74:	54000061 	b.ne	7a80 <mbedtls_mpi_write_string+0x190>  // b.any
/home/jayanth/quemu-v8/source/optee_os/lib/libmbedtls/mbedtls/library/bignum.c:689
    7a78:	52800020 	mov	w0, #0x1                   	// #1
    7a7c:	7900d3e0 	strh	w0, [sp, #104]
mpi_write_hlp():
/home/jayanth/quemu-v8/source/optee_os/lib/libmbedtls/mbedtls/library/bignum.c:587
    7a80:	8b180279 	add	x25, x19, x24
/home/jayanth/quemu-v8/source/optee_os/lib/libmbedtls/mbedtls/library/bignum.c:596
    7a84:	910193fa 	add	x26, sp, #0x64
/home/jayanth/quemu-v8/source/optee_os/lib/libmbedtls/mbedtls/library/bignum.c:587
    7a88:	aa1903fc 	mov	x28, x25
/home/jayanth/quemu-v8/source/optee_os/lib/libmbedtls/mbedtls/library/bignum.c:591
    7a8c:	cb1c0320 	sub	x0, x25, x28
    7a90:	eb00031f 	cmp	x24, x0
    7a94:	54000489 	b.ls	7b24 <mbedtls_mpi_write_string+0x234>  // b.plast
/home/jayanth/quemu-v8/source/optee_os/lib/libmbedtls/mbedtls/library/bignum.c:596
    7a98:	2a1503e2 	mov	w2, w21
    7a9c:	aa1b03e1 	mov	x1, x27
    7aa0:	aa1a03e0 	mov	x0, x26
    7aa4:	97ffff6b 	bl	7850 <mbedtls_mpi_mod_int>
    7aa8:	2a0003f4 	mov	w20, w0
    7aac:	35fff940 	cbnz	w0, 79d4 <mbedtls_mpi_write_string+0xe4>
/home/jayanth/quemu-v8/source/optee_os/lib/libmbedtls/mbedtls/library/bignum.c:597
    7ab0:	2a1503e3 	mov	w3, w21
    7ab4:	aa1b03e2 	mov	x2, x27
    7ab8:	aa1b03e0 	mov	x0, x27
    7abc:	d2800001 	mov	x1, #0x0                   	// #0
    7ac0:	97ffff27 	bl	775c <mbedtls_mpi_div_int>
    7ac4:	2a0003f4 	mov	w20, w0
    7ac8:	35fff860 	cbnz	w0, 79d4 <mbedtls_mpi_write_string+0xe4>
/home/jayanth/quemu-v8/source/optee_os/lib/libmbedtls/mbedtls/library/bignum.c:601
    7acc:	b94067e2 	ldr	w2, [sp, #100]
    7ad0:	12001c40 	and	w0, w2, #0xff
/home/jayanth/quemu-v8/source/optee_os/lib/libmbedtls/mbedtls/library/bignum.c:602
    7ad4:	7100245f 	cmp	w2, #0x9
    7ad8:	1100c001 	add	w1, w0, #0x30
    7adc:	1100dc00 	add	w0, w0, #0x37
    7ae0:	12001c21 	and	w1, w1, #0xff
    7ae4:	12001c00 	and	w0, w0, #0xff
    7ae8:	1a818000 	csel	w0, w0, w1, hi  // hi = pmore
    7aec:	381fff80 	strb	w0, [x28, #-1]!
/home/jayanth/quemu-v8/source/optee_os/lib/libmbedtls/mbedtls/library/bignum.c:607
    7af0:	52800001 	mov	w1, #0x0                   	// #0
    7af4:	aa1b03e0 	mov	x0, x27
    7af8:	cb1c0334 	sub	x20, x25, x28
    7afc:	97fffc0d 	bl	6b30 <mbedtls_mpi_cmp_int>
    7b00:	35fffc60 	cbnz	w0, 7a8c <mbedtls_mpi_write_string+0x19c>
/home/jayanth/quemu-v8/source/optee_os/lib/libmbedtls/mbedtls/library/bignum.c:609
    7b04:	aa1303e0 	mov	x0, x19
    7b08:	aa1403e2 	mov	x2, x20
    7b0c:	aa1c03e1 	mov	x1, x28
/home/jayanth/quemu-v8/source/optee_os/lib/libmbedtls/mbedtls/library/bignum.c:610
    7b10:	8b140273 	add	x19, x19, x20
/home/jayanth/quemu-v8/source/optee_os/lib/libmbedtls/mbedtls/library/bignum.c:609
    7b14:	940006b2 	bl	95dc <memmove>
/home/jayanth/quemu-v8/source/optee_os/lib/libmbedtls/mbedtls/library/bignum.c:610
    7b18:	17ffffab 	b	79c4 <mbedtls_mpi_write_string+0xd4>
mbedtls_mpi_write_string():
/home/jayanth/quemu-v8/source/optee_os/lib/libmbedtls/mbedtls/library/bignum.c:632
    7b1c:	12800074 	mov	w20, #0xfffffffc            	// #-4
    7b20:	17ffff90 	b	7960 <mbedtls_mpi_write_string+0x70>
mpi_write_hlp():
/home/jayanth/quemu-v8/source/optee_os/lib/libmbedtls/mbedtls/library/bignum.c:593
    7b24:	128000f4 	mov	w20, #0xfffffff8            	// #-8
    7b28:	17ffffab 	b	79d4 <mbedtls_mpi_write_string+0xe4>

0000000000007b2c <mpi_check_small_factors>:
mpi_check_small_factors():
/home/jayanth/quemu-v8/source/optee_os/lib/libmbedtls/mbedtls/library/bignum.c:2546
    7b2c:	a9bc7bfd 	stp	x29, x30, [sp, #-64]!
    7b30:	910003fd 	mov	x29, sp
    7b34:	a90153f3 	stp	x19, x20, [sp, #16]
    7b38:	aa0003f4 	mov	x20, x0
/home/jayanth/quemu-v8/source/optee_os/lib/libmbedtls/mbedtls/library/bignum.c:2551
    7b3c:	f9400800 	ldr	x0, [x0, #16]
/home/jayanth/quemu-v8/source/optee_os/lib/libmbedtls/mbedtls/library/bignum.c:2546
    7b40:	a9025bf5 	stp	x21, x22, [sp, #32]
/home/jayanth/quemu-v8/source/optee_os/lib/libmbedtls/mbedtls/library/bignum.c:2551
    7b44:	b9400000 	ldr	w0, [x0]
    7b48:	36000320 	tbz	w0, #0, 7bac <mpi_check_small_factors+0x80>
    7b4c:	90000033 	adrp	x19, b000 <__text_end+0x1788>
/home/jayanth/quemu-v8/source/optee_os/lib/libmbedtls/mbedtls/library/bignum.c:2559
    7b50:	9100f3f6 	add	x22, sp, #0x3c
    7b54:	91203273 	add	x19, x19, #0x80c
/home/jayanth/quemu-v8/source/optee_os/lib/libmbedtls/mbedtls/library/bignum.c:2554
    7b58:	b9400275 	ldr	w21, [x19]
    7b5c:	710002bf 	cmp	w21, #0x0
    7b60:	540000cc 	b.gt	7b78 <mpi_check_small_factors+0x4c>
/home/jayanth/quemu-v8/source/optee_os/lib/libmbedtls/mbedtls/library/bignum.c:2565
    7b64:	52800000 	mov	w0, #0x0                   	// #0
/home/jayanth/quemu-v8/source/optee_os/lib/libmbedtls/mbedtls/library/bignum.c:2567
    7b68:	a94153f3 	ldp	x19, x20, [sp, #16]
    7b6c:	a9425bf5 	ldp	x21, x22, [sp, #32]
    7b70:	a8c47bfd 	ldp	x29, x30, [sp], #64
    7b74:	d65f03c0 	ret
/home/jayanth/quemu-v8/source/optee_os/lib/libmbedtls/mbedtls/library/bignum.c:2556
    7b78:	2a1503e1 	mov	w1, w21
    7b7c:	aa1403e0 	mov	x0, x20
    7b80:	97fffbec 	bl	6b30 <mbedtls_mpi_cmp_int>
    7b84:	7100001f 	cmp	w0, #0x0
    7b88:	5400016d 	b.le	7bb4 <mpi_check_small_factors+0x88>
/home/jayanth/quemu-v8/source/optee_os/lib/libmbedtls/mbedtls/library/bignum.c:2559
    7b8c:	2a1503e2 	mov	w2, w21
    7b90:	aa1403e1 	mov	x1, x20
    7b94:	aa1603e0 	mov	x0, x22
    7b98:	97ffff2e 	bl	7850 <mbedtls_mpi_mod_int>
    7b9c:	35fffe60 	cbnz	w0, 7b68 <mpi_check_small_factors+0x3c>
/home/jayanth/quemu-v8/source/optee_os/lib/libmbedtls/mbedtls/library/bignum.c:2561
    7ba0:	b9403fe0 	ldr	w0, [sp, #60]
    7ba4:	91001273 	add	x19, x19, #0x4
    7ba8:	35fffd80 	cbnz	w0, 7b58 <mpi_check_small_factors+0x2c>
/home/jayanth/quemu-v8/source/optee_os/lib/libmbedtls/mbedtls/library/bignum.c:2552
    7bac:	128001a0 	mov	w0, #0xfffffff2            	// #-14
    7bb0:	17ffffee 	b	7b68 <mpi_check_small_factors+0x3c>
/home/jayanth/quemu-v8/source/optee_os/lib/libmbedtls/mbedtls/library/bignum.c:2557
    7bb4:	52800020 	mov	w0, #0x1                   	// #1
    7bb8:	17ffffec 	b	7b68 <mpi_check_small_factors+0x3c>

0000000000007bbc <mbedtls_mpi_montg_init>:
mbedtls_mpi_montg_init():
/home/jayanth/quemu-v8/source/optee_os/lib/libmbedtls/mbedtls/library/bignum.c:2015
    7bbc:	f9400821 	ldr	x1, [x1, #16]
/home/jayanth/quemu-v8/source/optee_os/lib/libmbedtls/mbedtls/library/bignum.c:2019
    7bc0:	52800062 	mov	w2, #0x3                   	// #3
/home/jayanth/quemu-v8/source/optee_os/lib/libmbedtls/mbedtls/library/bignum.c:2022
    7bc4:	52800045 	mov	w5, #0x2                   	// #2
/home/jayanth/quemu-v8/source/optee_os/lib/libmbedtls/mbedtls/library/bignum.c:2015
    7bc8:	b9400023 	ldr	w3, [x1]
/home/jayanth/quemu-v8/source/optee_os/lib/libmbedtls/mbedtls/library/bignum.c:2019
    7bcc:	11000861 	add	w1, w3, #0x2
    7bd0:	531f7821 	lsl	w1, w1, #1
    7bd4:	121d0021 	and	w1, w1, #0x8
    7bd8:	0b030021 	add	w1, w1, w3
/home/jayanth/quemu-v8/source/optee_os/lib/libmbedtls/mbedtls/library/bignum.c:2022 (discriminator 3)
    7bdc:	1b019464 	msub	w4, w3, w1, w5
/home/jayanth/quemu-v8/source/optee_os/lib/libmbedtls/mbedtls/library/bignum.c:2021 (discriminator 3)
    7be0:	71000442 	subs	w2, w2, #0x1
/home/jayanth/quemu-v8/source/optee_os/lib/libmbedtls/mbedtls/library/bignum.c:2022 (discriminator 3)
    7be4:	1b047c21 	mul	w1, w1, w4
/home/jayanth/quemu-v8/source/optee_os/lib/libmbedtls/mbedtls/library/bignum.c:2021 (discriminator 3)
    7be8:	54ffffa1 	b.ne	7bdc <mbedtls_mpi_montg_init+0x20>  // b.any
/home/jayanth/quemu-v8/source/optee_os/lib/libmbedtls/mbedtls/library/bignum.c:2024
    7bec:	4b0103e1 	neg	w1, w1
    7bf0:	b9000001 	str	w1, [x0]
/home/jayanth/quemu-v8/source/optee_os/lib/libmbedtls/mbedtls/library/bignum.c:2025
    7bf4:	d65f03c0 	ret

0000000000007bf8 <mbedtls_mpi_montmul>:
mbedtls_mpi_montmul():
/home/jayanth/quemu-v8/source/optee_os/lib/libmbedtls/mbedtls/library/bignum.c:2033
    7bf8:	a9bb7bfd 	stp	x29, x30, [sp, #-80]!
    7bfc:	910003fd 	mov	x29, sp
    7c00:	a90153f3 	stp	x19, x20, [sp, #16]
    7c04:	aa0203f3 	mov	x19, x2
    7c08:	a9025bf5 	stp	x21, x22, [sp, #32]
    7c0c:	aa0003f5 	mov	x21, x0
/home/jayanth/quemu-v8/source/optee_os/lib/libmbedtls/mbedtls/library/bignum.c:2037
    7c10:	f9400660 	ldr	x0, [x19, #8]
/home/jayanth/quemu-v8/source/optee_os/lib/libmbedtls/mbedtls/library/bignum.c:2033
    7c14:	a90363f7 	stp	x23, x24, [sp, #48]
/home/jayanth/quemu-v8/source/optee_os/lib/libmbedtls/mbedtls/library/bignum.c:2037
    7c18:	f9400482 	ldr	x2, [x4, #8]
/home/jayanth/quemu-v8/source/optee_os/lib/libmbedtls/mbedtls/library/bignum.c:2033
    7c1c:	f90023f9 	str	x25, [sp, #64]
/home/jayanth/quemu-v8/source/optee_os/lib/libmbedtls/mbedtls/library/bignum.c:2037
    7c20:	91000400 	add	x0, x0, #0x1
    7c24:	eb00005f 	cmp	x2, x0
    7c28:	540007c3 	b.cc	7d20 <mbedtls_mpi_montmul+0x128>  // b.lo, b.ul, b.last
/home/jayanth/quemu-v8/source/optee_os/lib/libmbedtls/mbedtls/library/bignum.c:2037 (discriminator 1)
    7c2c:	f9400880 	ldr	x0, [x4, #16]
    7c30:	aa0403f6 	mov	x22, x4
    7c34:	b4000760 	cbz	x0, 7d20 <mbedtls_mpi_montmul+0x128>
    7c38:	aa0103f8 	mov	x24, x1
    7c3c:	2a0303f7 	mov	w23, w3
/home/jayanth/quemu-v8/source/optee_os/lib/libmbedtls/mbedtls/library/bignum.c:2040
    7c40:	d37ef442 	lsl	x2, x2, #2
    7c44:	52800001 	mov	w1, #0x0                   	// #0
    7c48:	97ffe5e4 	bl	13d8 <memset>
/home/jayanth/quemu-v8/source/optee_os/lib/libmbedtls/mbedtls/library/bignum.c:2046
    7c4c:	d2800014 	mov	x20, #0x0                   	// #0
/home/jayanth/quemu-v8/source/optee_os/lib/libmbedtls/mbedtls/library/bignum.c:2043
    7c50:	f940066d 	ldr	x13, [x19, #8]
/home/jayanth/quemu-v8/source/optee_os/lib/libmbedtls/mbedtls/library/bignum.c:2044
    7c54:	f9400700 	ldr	x0, [x24, #8]
/home/jayanth/quemu-v8/source/optee_os/lib/libmbedtls/mbedtls/library/bignum.c:2057
    7c58:	910005ac 	add	x12, x13, #0x1
/home/jayanth/quemu-v8/source/optee_os/lib/libmbedtls/mbedtls/library/bignum.c:2042
    7c5c:	f9400ad9 	ldr	x25, [x22, #16]
/home/jayanth/quemu-v8/source/optee_os/lib/libmbedtls/mbedtls/library/bignum.c:2044
    7c60:	eb0d001f 	cmp	x0, x13
/home/jayanth/quemu-v8/source/optee_os/lib/libmbedtls/mbedtls/library/bignum.c:2057
    7c64:	d37ef58c 	lsl	x12, x12, #2
/home/jayanth/quemu-v8/source/optee_os/lib/libmbedtls/mbedtls/library/bignum.c:2044
    7c68:	9a8d900f 	csel	x15, x0, x13, ls  // ls = plast
/home/jayanth/quemu-v8/source/optee_os/lib/libmbedtls/mbedtls/library/bignum.c:2042
    7c6c:	aa1903eb 	mov	x11, x25
/home/jayanth/quemu-v8/source/optee_os/lib/libmbedtls/mbedtls/library/bignum.c:2046 (discriminator 1)
    7c70:	eb0d029f 	cmp	x20, x13
    7c74:	f9400aa0 	ldr	x0, [x21, #16]
    7c78:	54000281 	b.ne	7cc8 <mbedtls_mpi_montmul+0xd0>  // b.any
/home/jayanth/quemu-v8/source/optee_os/lib/libmbedtls/mbedtls/library/bignum.c:2060
    7c7c:	aa0c03e2 	mov	x2, x12
    7c80:	d1001181 	sub	x1, x12, #0x4
    7c84:	8b010321 	add	x1, x25, x1
    7c88:	97ffe0e6 	bl	20 <memcpy>
/home/jayanth/quemu-v8/source/optee_os/lib/libmbedtls/mbedtls/library/bignum.c:2062
    7c8c:	aa1303e1 	mov	x1, x19
    7c90:	aa1503e0 	mov	x0, x21
    7c94:	97fffb18 	bl	68f4 <mbedtls_mpi_cmp_abs>
    7c98:	37f803e0 	tbnz	w0, #31, 7d14 <mbedtls_mpi_montmul+0x11c>
/home/jayanth/quemu-v8/source/optee_os/lib/libmbedtls/mbedtls/library/bignum.c:2063
    7c9c:	f9400a61 	ldr	x1, [x19, #16]
    7ca0:	f9400aa2 	ldr	x2, [x21, #16]
/home/jayanth/quemu-v8/source/optee_os/lib/libmbedtls/mbedtls/library/bignum.c:2066
    7ca4:	aa1403e0 	mov	x0, x20
    7ca8:	97fff6dc 	bl	5818 <mpi_sub_hlp>
/home/jayanth/quemu-v8/source/optee_os/lib/libmbedtls/mbedtls/library/bignum.c:2068
    7cac:	52800000 	mov	w0, #0x0                   	// #0
/home/jayanth/quemu-v8/source/optee_os/lib/libmbedtls/mbedtls/library/bignum.c:2069
    7cb0:	a94153f3 	ldp	x19, x20, [sp, #16]
    7cb4:	a9425bf5 	ldp	x21, x22, [sp, #32]
    7cb8:	a94363f7 	ldp	x23, x24, [sp, #48]
    7cbc:	f94023f9 	ldr	x25, [sp, #64]
    7cc0:	a8c57bfd 	ldp	x29, x30, [sp], #80
    7cc4:	d65f03c0 	ret
/home/jayanth/quemu-v8/source/optee_os/lib/libmbedtls/mbedtls/library/bignum.c:2052 (discriminator 3)
    7cc8:	f9400b01 	ldr	x1, [x24, #16]
/home/jayanth/quemu-v8/source/optee_os/lib/libmbedtls/mbedtls/library/bignum.c:2054 (discriminator 3)
    7ccc:	aa0b03e2 	mov	x2, x11
/home/jayanth/quemu-v8/source/optee_os/lib/libmbedtls/mbedtls/library/bignum.c:2051 (discriminator 3)
    7cd0:	b8747812 	ldr	w18, [x0, x20, lsl #2]
/home/jayanth/quemu-v8/source/optee_os/lib/libmbedtls/mbedtls/library/bignum.c:2046 (discriminator 3)
    7cd4:	91000694 	add	x20, x20, #0x1
/home/jayanth/quemu-v8/source/optee_os/lib/libmbedtls/mbedtls/library/bignum.c:2052 (discriminator 3)
    7cd8:	b9400160 	ldr	w0, [x11]
    7cdc:	b940002e 	ldr	w14, [x1]
/home/jayanth/quemu-v8/source/optee_os/lib/libmbedtls/mbedtls/library/bignum.c:2054 (discriminator 3)
    7ce0:	2a1203e3 	mov	w3, w18
/home/jayanth/quemu-v8/source/optee_os/lib/libmbedtls/mbedtls/library/bignum.c:2052 (discriminator 3)
    7ce4:	1b0e024e 	madd	w14, w18, w14, w0
/home/jayanth/quemu-v8/source/optee_os/lib/libmbedtls/mbedtls/library/bignum.c:2054 (discriminator 3)
    7ce8:	aa0f03e0 	mov	x0, x15
/home/jayanth/quemu-v8/source/optee_os/lib/libmbedtls/mbedtls/library/bignum.c:2052 (discriminator 3)
    7cec:	1b177dce 	mul	w14, w14, w23
/home/jayanth/quemu-v8/source/optee_os/lib/libmbedtls/mbedtls/library/bignum.c:2054 (discriminator 3)
    7cf0:	97fff6e2 	bl	5878 <mpi_mul_hlp>
/home/jayanth/quemu-v8/source/optee_os/lib/libmbedtls/mbedtls/library/bignum.c:2055 (discriminator 3)
    7cf4:	aa0b03e2 	mov	x2, x11
    7cf8:	f9400a61 	ldr	x1, [x19, #16]
    7cfc:	2a0e03e3 	mov	w3, w14
    7d00:	aa0d03e0 	mov	x0, x13
    7d04:	97fff6dd 	bl	5878 <mpi_mul_hlp>
/home/jayanth/quemu-v8/source/optee_os/lib/libmbedtls/mbedtls/library/bignum.c:2057 (discriminator 3)
    7d08:	b8004572 	str	w18, [x11], #4
    7d0c:	b82c697f 	str	wzr, [x11, x12]
/home/jayanth/quemu-v8/source/optee_os/lib/libmbedtls/mbedtls/library/bignum.c:2046 (discriminator 3)
    7d10:	17ffffd8 	b	7c70 <mbedtls_mpi_montmul+0x78>
/home/jayanth/quemu-v8/source/optee_os/lib/libmbedtls/mbedtls/library/bignum.c:2066
    7d14:	f9400aa1 	ldr	x1, [x21, #16]
    7d18:	f9400ac2 	ldr	x2, [x22, #16]
    7d1c:	17ffffe2 	b	7ca4 <mbedtls_mpi_montmul+0xac>
/home/jayanth/quemu-v8/source/optee_os/lib/libmbedtls/mbedtls/library/bignum.c:2038
    7d20:	12800060 	mov	w0, #0xfffffffc            	// #-4
    7d24:	17ffffe3 	b	7cb0 <mbedtls_mpi_montmul+0xb8>

0000000000007d28 <mbedtls_mpi_montred>:
mbedtls_mpi_montred():
/home/jayanth/quemu-v8/source/optee_os/lib/libmbedtls/mbedtls/library/bignum.c:2076
    7d28:	a9bd7bfd 	stp	x29, x30, [sp, #-48]!
/home/jayanth/quemu-v8/source/optee_os/lib/libmbedtls/mbedtls/library/bignum.c:2077
    7d2c:	52800025 	mov	w5, #0x1                   	// #1
/home/jayanth/quemu-v8/source/optee_os/lib/libmbedtls/mbedtls/library/bignum.c:2080
    7d30:	d2800024 	mov	x4, #0x1                   	// #1
/home/jayanth/quemu-v8/source/optee_os/lib/libmbedtls/mbedtls/library/bignum.c:2076
    7d34:	910003fd 	mov	x29, sp
/home/jayanth/quemu-v8/source/optee_os/lib/libmbedtls/mbedtls/library/bignum.c:2080
    7d38:	f90013e4 	str	x4, [sp, #32]
/home/jayanth/quemu-v8/source/optee_os/lib/libmbedtls/mbedtls/library/bignum.c:2081
    7d3c:	910053e4 	add	x4, sp, #0x14
/home/jayanth/quemu-v8/source/optee_os/lib/libmbedtls/mbedtls/library/bignum.c:2077
    7d40:	b90017e5 	str	w5, [sp, #20]
/home/jayanth/quemu-v8/source/optee_os/lib/libmbedtls/mbedtls/library/bignum.c:2080
    7d44:	790033e5 	strh	w5, [sp, #24]
/home/jayanth/quemu-v8/source/optee_os/lib/libmbedtls/mbedtls/library/bignum.c:2081
    7d48:	f90017e4 	str	x4, [sp, #40]
/home/jayanth/quemu-v8/source/optee_os/lib/libmbedtls/mbedtls/library/bignum.c:2083
    7d4c:	aa0303e4 	mov	x4, x3
    7d50:	2a0203e3 	mov	w3, w2
    7d54:	aa0103e2 	mov	x2, x1
    7d58:	910063e1 	add	x1, sp, #0x18
    7d5c:	97ffffa7 	bl	7bf8 <mbedtls_mpi_montmul>
/home/jayanth/quemu-v8/source/optee_os/lib/libmbedtls/mbedtls/library/bignum.c:2084
    7d60:	a8c37bfd 	ldp	x29, x30, [sp], #48
    7d64:	d65f03c0 	ret

0000000000007d68 <mbedtls_mpi_exp_mod>:
mbedtls_mpi_exp_mod():
/home/jayanth/quemu-v8/source/optee_os/lib/libmbedtls/mbedtls/library/bignum.c:2092
    7d68:	a9b07bfd 	stp	x29, x30, [sp, #-256]!
    7d6c:	910003fd 	mov	x29, sp
    7d70:	a90153f3 	stp	x19, x20, [sp, #16]
    7d74:	aa0303f3 	mov	x19, x3
    7d78:	a9025bf5 	stp	x21, x22, [sp, #32]
    7d7c:	aa0003f5 	mov	x21, x0
/home/jayanth/quemu-v8/source/optee_os/lib/libmbedtls/mbedtls/library/bignum.c:2108
    7d80:	aa0303e0 	mov	x0, x3
/home/jayanth/quemu-v8/source/optee_os/lib/libmbedtls/mbedtls/library/bignum.c:2092
    7d84:	a90363f7 	stp	x23, x24, [sp, #48]
    7d88:	a9046bf9 	stp	x25, x26, [sp, #64]
    7d8c:	aa0203fa 	mov	x26, x2
    7d90:	aa0403f9 	mov	x25, x4
    7d94:	a90573fb 	stp	x27, x28, [sp, #80]
    7d98:	aa0103fb 	mov	x27, x1
/home/jayanth/quemu-v8/source/optee_os/lib/libmbedtls/mbedtls/library/bignum.c:2108
    7d9c:	52800001 	mov	w1, #0x0                   	// #0
    7da0:	97fffb64 	bl	6b30 <mbedtls_mpi_cmp_int>
    7da4:	7100001f 	cmp	w0, #0x0
    7da8:	5400014c 	b.gt	7dd0 <mbedtls_mpi_exp_mod+0x68>
/home/jayanth/quemu-v8/source/optee_os/lib/libmbedtls/mbedtls/library/bignum.c:2109
    7dac:	12800062 	mov	w2, #0xfffffffc            	// #-4
/home/jayanth/quemu-v8/source/optee_os/lib/libmbedtls/mbedtls/library/bignum.c:2314
    7db0:	2a0203e0 	mov	w0, w2
    7db4:	a94153f3 	ldp	x19, x20, [sp, #16]
    7db8:	a9425bf5 	ldp	x21, x22, [sp, #32]
    7dbc:	a94363f7 	ldp	x23, x24, [sp, #48]
    7dc0:	a9446bf9 	ldp	x25, x26, [sp, #64]
    7dc4:	a94573fb 	ldp	x27, x28, [sp, #80]
    7dc8:	a8d07bfd 	ldp	x29, x30, [sp], #256
    7dcc:	d65f03c0 	ret
/home/jayanth/quemu-v8/source/optee_os/lib/libmbedtls/mbedtls/library/bignum.c:2108 (discriminator 1)
    7dd0:	f9400a60 	ldr	x0, [x19, #16]
    7dd4:	b9400000 	ldr	w0, [x0]
    7dd8:	12000001 	and	w1, w0, #0x1
    7ddc:	b9008fe1 	str	w1, [sp, #140]
    7de0:	3607fe60 	tbz	w0, #0, 7dac <mbedtls_mpi_exp_mod+0x44>
/home/jayanth/quemu-v8/source/optee_os/lib/libmbedtls/mbedtls/library/bignum.c:2111
    7de4:	aa1a03e0 	mov	x0, x26
    7de8:	52800001 	mov	w1, #0x0                   	// #0
    7dec:	97fffb51 	bl	6b30 <mbedtls_mpi_cmp_int>
    7df0:	37fffde0 	tbnz	w0, #31, 7dac <mbedtls_mpi_exp_mod+0x44>
/home/jayanth/quemu-v8/source/optee_os/lib/libmbedtls/mbedtls/library/bignum.c:2117
    7df4:	aa1303e1 	mov	x1, x19
    7df8:	9102d3e0 	add	x0, sp, #0xb4
/home/jayanth/quemu-v8/source/optee_os/lib/libmbedtls/mbedtls/library/bignum.c:2118
    7dfc:	9102e3f8 	add	x24, sp, #0xb8
/home/jayanth/quemu-v8/source/optee_os/lib/libmbedtls/mbedtls/library/bignum.c:2117
    7e00:	97ffff6f 	bl	7bbc <mbedtls_mpi_montg_init>
/home/jayanth/quemu-v8/source/optee_os/lib/libmbedtls/mbedtls/library/bignum.c:2118
    7e04:	aa1803e0 	mov	x0, x24
    7e08:	910343f6 	add	x22, sp, #0xd0
    7e0c:	97fff7bd 	bl	5d00 <mbedtls_mpi_init_mempool>
    7e10:	aa1603e0 	mov	x0, x22
    7e14:	97fff7bb 	bl	5d00 <mbedtls_mpi_init_mempool>
/home/jayanth/quemu-v8/source/optee_os/lib/libmbedtls/mbedtls/library/bignum.c:2119
    7e18:	9103a3e0 	add	x0, sp, #0xe8
    7e1c:	f9003be0 	str	x0, [sp, #112]
    7e20:	97fff7b8 	bl	5d00 <mbedtls_mpi_init_mempool>
/home/jayanth/quemu-v8/source/optee_os/lib/libmbedtls/mbedtls/library/bignum.c:2121
    7e24:	aa1a03e0 	mov	x0, x26
    7e28:	97fff967 	bl	63c4 <mbedtls_mpi_bitlen>
/home/jayanth/quemu-v8/source/optee_os/lib/libmbedtls/mbedtls/library/bignum.c:2123
    7e2c:	f10a7c1f 	cmp	x0, #0x29f
    7e30:	540012c8 	b.hi	8088 <mbedtls_mpi_exp_mod+0x320>  // b.pmore
/home/jayanth/quemu-v8/source/optee_os/lib/libmbedtls/mbedtls/library/bignum.c:2123 (discriminator 1)
    7e34:	f103bc1f 	cmp	x0, #0xef
    7e38:	540012c8 	b.hi	8090 <mbedtls_mpi_exp_mod+0x328>  // b.pmore
/home/jayanth/quemu-v8/source/optee_os/lib/libmbedtls/mbedtls/library/bignum.c:2123 (discriminator 3)
    7e3c:	f1013c1f 	cmp	x0, #0x4f
    7e40:	540012c8 	b.hi	8098 <mbedtls_mpi_exp_mod+0x330>  // b.pmore
/home/jayanth/quemu-v8/source/optee_os/lib/libmbedtls/mbedtls/library/bignum.c:2123 (discriminator 5)
    7e44:	f1005c1f 	cmp	x0, #0x17
    7e48:	d2800077 	mov	x23, #0x3                   	// #3
    7e4c:	9a9f86f7 	csinc	x23, x23, xzr, hi  // hi = pmore
/home/jayanth/quemu-v8/source/optee_os/lib/libmbedtls/mbedtls/library/bignum.c:2131 (discriminator 16)
    7e50:	f9400660 	ldr	x0, [x19, #8]
    7e54:	91000400 	add	x0, x0, #0x1
    7e58:	f9003fe0 	str	x0, [sp, #120]
/home/jayanth/quemu-v8/source/optee_os/lib/libmbedtls/mbedtls/library/bignum.c:2132 (discriminator 16)
    7e5c:	aa0003e1 	mov	x1, x0
    7e60:	aa1503e0 	mov	x0, x21
    7e64:	97fff7cc 	bl	5d94 <mbedtls_mpi_grow>
    7e68:	2a0003e2 	mov	w2, w0
    7e6c:	d0000020 	adrp	x0, d000 <_DYNAMIC>
    7e70:	f90053e0 	str	x0, [sp, #160]
    7e74:	35002b82 	cbnz	w2, 83e4 <mbedtls_mpi_exp_mod+0x67c>
/home/jayanth/quemu-v8/source/optee_os/lib/libmbedtls/mbedtls/library/bignum.c:2134 (discriminator 2)
    7e78:	f9403fe0 	ldr	x0, [sp, #120]
    7e7c:	d37ff801 	lsl	x1, x0, #1
    7e80:	aa1603e0 	mov	x0, x22
    7e84:	97fff7c4 	bl	5d94 <mbedtls_mpi_grow>
    7e88:	2a0003e2 	mov	w2, w0
    7e8c:	35002ac0 	cbnz	w0, 83e4 <mbedtls_mpi_exp_mod+0x67c>
/home/jayanth/quemu-v8/source/optee_os/lib/libmbedtls/mbedtls/library/bignum.c:2139 (discriminator 2)
    7e90:	79c00360 	ldrsh	w0, [x27]
    7e94:	b9008be0 	str	w0, [sp, #136]
/home/jayanth/quemu-v8/source/optee_os/lib/libmbedtls/mbedtls/library/bignum.c:2140 (discriminator 2)
    7e98:	3100041f 	cmn	w0, #0x1
    7e9c:	54000121 	b.ne	7ec0 <mbedtls_mpi_exp_mod+0x158>  // b.any
/home/jayanth/quemu-v8/source/optee_os/lib/libmbedtls/mbedtls/library/bignum.c:2142
    7ea0:	f9403be0 	ldr	x0, [sp, #112]
    7ea4:	aa1b03e1 	mov	x1, x27
    7ea8:	97fff83d 	bl	5f9c <mbedtls_mpi_copy>
    7eac:	2a0003e2 	mov	w2, w0
    7eb0:	350029a0 	cbnz	w0, 83e4 <mbedtls_mpi_exp_mod+0x67c>
/home/jayanth/quemu-v8/source/optee_os/lib/libmbedtls/mbedtls/library/bignum.c:2144 (discriminator 2)
    7eb4:	f9403bfb 	ldr	x27, [sp, #112]
/home/jayanth/quemu-v8/source/optee_os/lib/libmbedtls/mbedtls/library/bignum.c:2143 (discriminator 2)
    7eb8:	52800020 	mov	w0, #0x1                   	// #1
    7ebc:	7901d3e0 	strh	w0, [sp, #232]
/home/jayanth/quemu-v8/source/optee_os/lib/libmbedtls/mbedtls/library/bignum.c:2150
    7ec0:	b4000079 	cbz	x25, 7ecc <mbedtls_mpi_exp_mod+0x164>
/home/jayanth/quemu-v8/source/optee_os/lib/libmbedtls/mbedtls/library/bignum.c:2150 (discriminator 1)
    7ec4:	f9400b20 	ldr	x0, [x25, #16]
    7ec8:	b5000ec0 	cbnz	x0, 80a0 <mbedtls_mpi_exp_mod+0x338>
/home/jayanth/quemu-v8/source/optee_os/lib/libmbedtls/mbedtls/library/bignum.c:2152
    7ecc:	aa1803e0 	mov	x0, x24
    7ed0:	52800021 	mov	w1, #0x1                   	// #1
    7ed4:	97fff8df 	bl	6250 <mbedtls_mpi_lset>
    7ed8:	2a0003e2 	mov	w2, w0
    7edc:	35002840 	cbnz	w0, 83e4 <mbedtls_mpi_exp_mod+0x67c>
/home/jayanth/quemu-v8/source/optee_os/lib/libmbedtls/mbedtls/library/bignum.c:2153 (discriminator 2)
    7ee0:	f9400661 	ldr	x1, [x19, #8]
    7ee4:	aa1803e0 	mov	x0, x24
    7ee8:	d37ae421 	lsl	x1, x1, #6
    7eec:	97fffa0e 	bl	6724 <mbedtls_mpi_shift_l>
    7ef0:	2a0003e2 	mov	w2, w0
    7ef4:	35002780 	cbnz	w0, 83e4 <mbedtls_mpi_exp_mod+0x67c>
/home/jayanth/quemu-v8/source/optee_os/lib/libmbedtls/mbedtls/library/bignum.c:2154 (discriminator 2)
    7ef8:	aa1303e2 	mov	x2, x19
    7efc:	aa1803e1 	mov	x1, x24
    7f00:	aa1803e0 	mov	x0, x24
    7f04:	97fffe26 	bl	779c <mbedtls_mpi_mod_mpi>
    7f08:	2a0003e2 	mov	w2, w0
    7f0c:	350026c0 	cbnz	w0, 83e4 <mbedtls_mpi_exp_mod+0x67c>
/home/jayanth/quemu-v8/source/optee_os/lib/libmbedtls/mbedtls/library/bignum.c:2156 (discriminator 2)
    7f10:	b40000b9 	cbz	x25, 7f24 <mbedtls_mpi_exp_mod+0x1bc>
/home/jayanth/quemu-v8/source/optee_os/lib/libmbedtls/mbedtls/library/bignum.c:2157
    7f14:	aa1803e1 	mov	x1, x24
    7f18:	aa1903e0 	mov	x0, x25
    7f1c:	d2800302 	mov	x2, #0x18                  	// #24
/home/jayanth/quemu-v8/source/optee_os/lib/libmbedtls/mbedtls/library/bignum.c:2160
    7f20:	97ffe040 	bl	20 <memcpy>
/home/jayanth/quemu-v8/source/optee_os/lib/libmbedtls/mbedtls/library/bignum.c:2162
    7f24:	d0000020 	adrp	x0, d000 <_DYNAMIC>
    7f28:	d2818001 	mov	x1, #0xc00                 	// #3072
    7f2c:	f940c800 	ldr	x0, [x0, #400]
    7f30:	f9400000 	ldr	x0, [x0]
    7f34:	940005e5 	bl	96c8 <mempool_alloc>
    7f38:	aa0003f4 	mov	x20, x0
/home/jayanth/quemu-v8/source/optee_os/lib/libmbedtls/mbedtls/library/bignum.c:2164
    7f3c:	b4002580 	cbz	x0, 83ec <mbedtls_mpi_exp_mod+0x684>
    7f40:	aa1403fc 	mov	x28, x20
    7f44:	91300000 	add	x0, x0, #0xc00
    7f48:	f90037f4 	str	x20, [sp, #104]
    7f4c:	f9004be0 	str	x0, [sp, #144]
/home/jayanth/quemu-v8/source/optee_os/lib/libmbedtls/mbedtls/library/bignum.c:2169 (discriminator 3)
    7f50:	aa1c03e0 	mov	x0, x28
    7f54:	97fff76b 	bl	5d00 <mbedtls_mpi_init_mempool>
/home/jayanth/quemu-v8/source/optee_os/lib/libmbedtls/mbedtls/library/bignum.c:2168 (discriminator 3)
    7f58:	f9404be0 	ldr	x0, [sp, #144]
    7f5c:	9100639c 	add	x28, x28, #0x18
    7f60:	eb00039f 	cmp	x28, x0
    7f64:	54ffff61 	b.ne	7f50 <mbedtls_mpi_exp_mod+0x1e8>  // b.any
/home/jayanth/quemu-v8/source/optee_os/lib/libmbedtls/mbedtls/library/bignum.c:2170
    7f68:	f9403fe1 	ldr	x1, [sp, #120]
    7f6c:	9100629c 	add	x28, x20, #0x18
    7f70:	aa1c03e0 	mov	x0, x28
    7f74:	97fff788 	bl	5d94 <mbedtls_mpi_grow>
    7f78:	2a0003e2 	mov	w2, w0
    7f7c:	35001fa0 	cbnz	w0, 8370 <mbedtls_mpi_exp_mod+0x608>
/home/jayanth/quemu-v8/source/optee_os/lib/libmbedtls/mbedtls/library/bignum.c:2175 (discriminator 2)
    7f80:	aa1303e1 	mov	x1, x19
    7f84:	aa1b03e0 	mov	x0, x27
    7f88:	97fffa82 	bl	6990 <mbedtls_mpi_cmp_mpi>
    7f8c:	37f80920 	tbnz	w0, #31, 80b0 <mbedtls_mpi_exp_mod+0x348>
/home/jayanth/quemu-v8/source/optee_os/lib/libmbedtls/mbedtls/library/bignum.c:2176
    7f90:	aa1303e2 	mov	x2, x19
    7f94:	aa1b03e1 	mov	x1, x27
    7f98:	aa1c03e0 	mov	x0, x28
    7f9c:	97fffe00 	bl	779c <mbedtls_mpi_mod_mpi>
    7fa0:	2a0003e2 	mov	w2, w0
    7fa4:	35001e60 	cbnz	w0, 8370 <mbedtls_mpi_exp_mod+0x608>
/home/jayanth/quemu-v8/source/optee_os/lib/libmbedtls/mbedtls/library/bignum.c:2180
    7fa8:	b940b7e3 	ldr	w3, [sp, #180]
    7fac:	aa1303e2 	mov	x2, x19
    7fb0:	aa1603e4 	mov	x4, x22
    7fb4:	aa1803e1 	mov	x1, x24
    7fb8:	aa1c03e0 	mov	x0, x28
    7fbc:	97ffff0f 	bl	7bf8 <mbedtls_mpi_montmul>
    7fc0:	2a0003e2 	mov	w2, w0
    7fc4:	35001d60 	cbnz	w0, 8370 <mbedtls_mpi_exp_mod+0x608>
/home/jayanth/quemu-v8/source/optee_os/lib/libmbedtls/mbedtls/library/bignum.c:2185 (discriminator 2)
    7fc8:	aa1803e1 	mov	x1, x24
    7fcc:	aa1503e0 	mov	x0, x21
    7fd0:	97fff7f3 	bl	5f9c <mbedtls_mpi_copy>
    7fd4:	2a0003e2 	mov	w2, w0
    7fd8:	35001cc0 	cbnz	w0, 8370 <mbedtls_mpi_exp_mod+0x608>
/home/jayanth/quemu-v8/source/optee_os/lib/libmbedtls/mbedtls/library/bignum.c:2186 (discriminator 2)
    7fdc:	b940b7e2 	ldr	w2, [sp, #180]
    7fe0:	aa1603e3 	mov	x3, x22
    7fe4:	aa1303e1 	mov	x1, x19
    7fe8:	aa1503e0 	mov	x0, x21
    7fec:	97ffff4f 	bl	7d28 <mbedtls_mpi_montred>
    7ff0:	2a0003e2 	mov	w2, w0
    7ff4:	35001be0 	cbnz	w0, 8370 <mbedtls_mpi_exp_mod+0x608>
/home/jayanth/quemu-v8/source/optee_os/lib/libmbedtls/mbedtls/library/bignum.c:2188 (discriminator 2)
    7ff8:	f10006ff 	cmp	x23, #0x1
    7ffc:	54000621 	b.ne	80c0 <mbedtls_mpi_exp_mod+0x358>  // b.any
/home/jayanth/quemu-v8/source/optee_os/lib/libmbedtls/mbedtls/library/bignum.c:2213
    8000:	f940075b 	ldr	x27, [x26, #8]
/home/jayanth/quemu-v8/source/optee_os/lib/libmbedtls/mbedtls/library/bignum.c:2217
    8004:	52800002 	mov	w2, #0x0                   	// #0
/home/jayanth/quemu-v8/source/optee_os/lib/libmbedtls/mbedtls/library/bignum.c:2215
    8008:	d2800005 	mov	x5, #0x0                   	// #0
/home/jayanth/quemu-v8/source/optee_os/lib/libmbedtls/mbedtls/library/bignum.c:2214
    800c:	d2800007 	mov	x7, #0x0                   	// #0
/home/jayanth/quemu-v8/source/optee_os/lib/libmbedtls/mbedtls/library/bignum.c:2216
    8010:	d2800006 	mov	x6, #0x0                   	// #0
/home/jayanth/quemu-v8/source/optee_os/lib/libmbedtls/mbedtls/library/bignum.c:2221
    8014:	b5000fc7 	cbnz	x7, 820c <mbedtls_mpi_exp_mod+0x4a4>
/home/jayanth/quemu-v8/source/optee_os/lib/libmbedtls/mbedtls/library/bignum.c:2223
    8018:	b5000f7b 	cbnz	x27, 8204 <mbedtls_mpi_exp_mod+0x49c>
/home/jayanth/quemu-v8/source/optee_os/lib/libmbedtls/mbedtls/library/bignum.c:2286
    801c:	d2800020 	mov	x0, #0x1                   	// #1
    8020:	9ad72017 	lsl	x23, x0, x23
/home/jayanth/quemu-v8/source/optee_os/lib/libmbedtls/mbedtls/library/bignum.c:2280 (discriminator 2)
    8024:	b940b7e2 	ldr	w2, [sp, #180]
    8028:	eb05037f 	cmp	x27, x5
    802c:	54001701 	b.ne	830c <mbedtls_mpi_exp_mod+0x5a4>  // b.any
/home/jayanth/quemu-v8/source/optee_os/lib/libmbedtls/mbedtls/library/bignum.c:2293
    8030:	aa1603e3 	mov	x3, x22
    8034:	aa1303e1 	mov	x1, x19
    8038:	aa1503e0 	mov	x0, x21
    803c:	97ffff3b 	bl	7d28 <mbedtls_mpi_montred>
    8040:	2a0003e2 	mov	w2, w0
    8044:	35001960 	cbnz	w0, 8370 <mbedtls_mpi_exp_mod+0x608>
/home/jayanth/quemu-v8/source/optee_os/lib/libmbedtls/mbedtls/library/bignum.c:2295 (discriminator 2)
    8048:	b9408be0 	ldr	w0, [sp, #136]
    804c:	3100041f 	cmn	w0, #0x1
    8050:	54001901 	b.ne	8370 <mbedtls_mpi_exp_mod+0x608>  // b.any
/home/jayanth/quemu-v8/source/optee_os/lib/libmbedtls/mbedtls/library/bignum.c:2295 (discriminator 1)
    8054:	f9400740 	ldr	x0, [x26, #8]
    8058:	b40018c0 	cbz	x0, 8370 <mbedtls_mpi_exp_mod+0x608>
/home/jayanth/quemu-v8/source/optee_os/lib/libmbedtls/mbedtls/library/bignum.c:2295 (discriminator 2)
    805c:	f9400b40 	ldr	x0, [x26, #16]
    8060:	b9400000 	ldr	w0, [x0]
    8064:	36001860 	tbz	w0, #0, 8370 <mbedtls_mpi_exp_mod+0x608>
/home/jayanth/quemu-v8/source/optee_os/lib/libmbedtls/mbedtls/library/bignum.c:2297
    8068:	794113e0 	ldrh	w0, [sp, #136]
/home/jayanth/quemu-v8/source/optee_os/lib/libmbedtls/mbedtls/library/bignum.c:2298
    806c:	aa1503e2 	mov	x2, x21
/home/jayanth/quemu-v8/source/optee_os/lib/libmbedtls/mbedtls/library/bignum.c:2297
    8070:	790002a0 	strh	w0, [x21]
/home/jayanth/quemu-v8/source/optee_os/lib/libmbedtls/mbedtls/library/bignum.c:2298
    8074:	aa1303e1 	mov	x1, x19
    8078:	aa1503e0 	mov	x0, x21
    807c:	97fffb3a 	bl	6d64 <mbedtls_mpi_add_mpi>
    8080:	2a0003e2 	mov	w2, w0
/home/jayanth/quemu-v8/source/optee_os/lib/libmbedtls/mbedtls/library/bignum.c:2301
    8084:	140000bb 	b	8370 <mbedtls_mpi_exp_mod+0x608>
/home/jayanth/quemu-v8/source/optee_os/lib/libmbedtls/mbedtls/library/bignum.c:2123
    8088:	d28000d7 	mov	x23, #0x6                   	// #6
    808c:	17ffff71 	b	7e50 <mbedtls_mpi_exp_mod+0xe8>
    8090:	d28000b7 	mov	x23, #0x5                   	// #5
    8094:	17ffff6f 	b	7e50 <mbedtls_mpi_exp_mod+0xe8>
    8098:	d2800097 	mov	x23, #0x4                   	// #4
    809c:	17ffff6d 	b	7e50 <mbedtls_mpi_exp_mod+0xe8>
/home/jayanth/quemu-v8/source/optee_os/lib/libmbedtls/mbedtls/library/bignum.c:2160
    80a0:	aa1903e1 	mov	x1, x25
    80a4:	aa1803e0 	mov	x0, x24
    80a8:	d2800302 	mov	x2, #0x18                  	// #24
    80ac:	17ffff9d 	b	7f20 <mbedtls_mpi_exp_mod+0x1b8>
/home/jayanth/quemu-v8/source/optee_os/lib/libmbedtls/mbedtls/library/bignum.c:2178
    80b0:	aa1b03e1 	mov	x1, x27
    80b4:	aa1c03e0 	mov	x0, x28
    80b8:	97fff7b9 	bl	5f9c <mbedtls_mpi_copy>
    80bc:	17ffffb9 	b	7fa0 <mbedtls_mpi_exp_mod+0x238>
/home/jayanth/quemu-v8/source/optee_os/lib/libmbedtls/mbedtls/library/bignum.c:2193
    80c0:	510006e0 	sub	w0, w23, #0x1
    80c4:	b9007be0 	str	w0, [sp, #120]
/home/jayanth/quemu-v8/source/optee_os/lib/libmbedtls/mbedtls/library/bignum.c:2195
    80c8:	d2800305 	mov	x5, #0x18                  	// #24
/home/jayanth/quemu-v8/source/optee_os/lib/libmbedtls/mbedtls/library/bignum.c:2193
    80cc:	b9009bf7 	str	w23, [sp, #152]
/home/jayanth/quemu-v8/source/optee_os/lib/libmbedtls/mbedtls/library/bignum.c:2195
    80d0:	3941e3e0 	ldrb	w0, [sp, #120]
    80d4:	f9400661 	ldr	x1, [x19, #8]
    80d8:	9ac020a5 	lsl	x5, x5, x0
    80dc:	8b05029b 	add	x27, x20, x5
    80e0:	91000421 	add	x1, x1, #0x1
    80e4:	aa1b03e0 	mov	x0, x27
    80e8:	97fff72b 	bl	5d94 <mbedtls_mpi_grow>
    80ec:	2a0003e2 	mov	w2, w0
    80f0:	35001400 	cbnz	w0, 8370 <mbedtls_mpi_exp_mod+0x608>
/home/jayanth/quemu-v8/source/optee_os/lib/libmbedtls/mbedtls/library/bignum.c:2196 (discriminator 2)
    80f4:	aa1c03e1 	mov	x1, x28
    80f8:	aa1b03e0 	mov	x0, x27
    80fc:	97fff7a8 	bl	5f9c <mbedtls_mpi_copy>
    8100:	2a0003e2 	mov	w2, w0
    8104:	35001360 	cbnz	w0, 8370 <mbedtls_mpi_exp_mod+0x608>
/home/jayanth/quemu-v8/source/optee_os/lib/libmbedtls/mbedtls/library/bignum.c:2198
    8108:	d10006e7 	sub	x7, x23, #0x1
    810c:	d2800006 	mov	x6, #0x0                   	// #0
/home/jayanth/quemu-v8/source/optee_os/lib/libmbedtls/mbedtls/library/bignum.c:2199
    8110:	b940b7e3 	ldr	w3, [sp, #180]
    8114:	aa1303e2 	mov	x2, x19
    8118:	aa1603e4 	mov	x4, x22
    811c:	aa1b03e1 	mov	x1, x27
    8120:	aa1b03e0 	mov	x0, x27
    8124:	f90043e6 	str	x6, [sp, #128]
    8128:	f90057e7 	str	x7, [sp, #168]
    812c:	97fffeb3 	bl	7bf8 <mbedtls_mpi_montmul>
    8130:	2a0003e2 	mov	w2, w0
    8134:	350011e0 	cbnz	w0, 8370 <mbedtls_mpi_exp_mod+0x608>
/home/jayanth/quemu-v8/source/optee_os/lib/libmbedtls/mbedtls/library/bignum.c:2198 (discriminator 2)
    8138:	f94043e6 	ldr	x6, [sp, #128]
    813c:	f94057e7 	ldr	x7, [sp, #168]
    8140:	910004c6 	add	x6, x6, #0x1
    8144:	eb0600ff 	cmp	x7, x6
    8148:	54fffe48 	b.hi	8110 <mbedtls_mpi_exp_mod+0x3a8>  // b.pmore
/home/jayanth/quemu-v8/source/optee_os/lib/libmbedtls/mbedtls/library/bignum.c:2193
    814c:	3941e3e1 	ldrb	w1, [sp, #120]
    8150:	d2800020 	mov	x0, #0x1                   	// #1
    8154:	9ac12001 	lsl	x1, x0, x1
/home/jayanth/quemu-v8/source/optee_os/lib/libmbedtls/mbedtls/library/bignum.c:2204
    8158:	8b000021 	add	x1, x1, x0
    815c:	f90043e1 	str	x1, [sp, #128]
    8160:	394263e1 	ldrb	w1, [sp, #152]
    8164:	9ac12000 	lsl	x0, x0, x1
    8168:	3941e3e1 	ldrb	w1, [sp, #120]
    816c:	f9004fe0 	str	x0, [sp, #152]
    8170:	d2800300 	mov	x0, #0x18                  	// #24
    8174:	9ac1201b 	lsl	x27, x0, x1
    8178:	8b1b0283 	add	x3, x20, x27
/home/jayanth/quemu-v8/source/optee_os/lib/libmbedtls/mbedtls/library/bignum.c:2204 (discriminator 2)
    817c:	f94043e1 	ldr	x1, [sp, #128]
    8180:	f9404fe0 	ldr	x0, [sp, #152]
    8184:	eb01001f 	cmp	x0, x1
    8188:	54fff3c9 	b.ls	8000 <mbedtls_mpi_exp_mod+0x298>  // b.plast
/home/jayanth/quemu-v8/source/optee_os/lib/libmbedtls/mbedtls/library/bignum.c:2206
    818c:	f9400661 	ldr	x1, [x19, #8]
    8190:	9100607b 	add	x27, x3, #0x18
    8194:	aa1b03e0 	mov	x0, x27
    8198:	f9003fe3 	str	x3, [sp, #120]
    819c:	91000421 	add	x1, x1, #0x1
    81a0:	97fff6fd 	bl	5d94 <mbedtls_mpi_grow>
    81a4:	2a0003e2 	mov	w2, w0
    81a8:	35000e40 	cbnz	w0, 8370 <mbedtls_mpi_exp_mod+0x608>
/home/jayanth/quemu-v8/source/optee_os/lib/libmbedtls/mbedtls/library/bignum.c:2207 (discriminator 2)
    81ac:	f9403fe3 	ldr	x3, [sp, #120]
    81b0:	aa1b03e0 	mov	x0, x27
    81b4:	aa0303e1 	mov	x1, x3
    81b8:	97fff779 	bl	5f9c <mbedtls_mpi_copy>
    81bc:	2a0003e2 	mov	w2, w0
    81c0:	35000d80 	cbnz	w0, 8370 <mbedtls_mpi_exp_mod+0x608>
/home/jayanth/quemu-v8/source/optee_os/lib/libmbedtls/mbedtls/library/bignum.c:2209 (discriminator 2)
    81c4:	b940b7e3 	ldr	w3, [sp, #180]
    81c8:	aa1303e2 	mov	x2, x19
    81cc:	aa1603e4 	mov	x4, x22
    81d0:	aa1c03e1 	mov	x1, x28
    81d4:	aa1b03e0 	mov	x0, x27
    81d8:	97fffe88 	bl	7bf8 <mbedtls_mpi_montmul>
    81dc:	2a0003e2 	mov	w2, w0
    81e0:	35000c80 	cbnz	w0, 8370 <mbedtls_mpi_exp_mod+0x608>
/home/jayanth/quemu-v8/source/optee_os/lib/libmbedtls/mbedtls/library/bignum.c:2204 (discriminator 2)
    81e4:	f94043e0 	ldr	x0, [sp, #128]
    81e8:	aa1b03e3 	mov	x3, x27
    81ec:	91000400 	add	x0, x0, #0x1
    81f0:	f90043e0 	str	x0, [sp, #128]
    81f4:	17ffffe2 	b	817c <mbedtls_mpi_exp_mod+0x414>
/home/jayanth/quemu-v8/source/optee_os/lib/libmbedtls/mbedtls/library/bignum.c:2253
    81f8:	52800041 	mov	w1, #0x2                   	// #2
/home/jayanth/quemu-v8/source/optee_os/lib/libmbedtls/mbedtls/library/bignum.c:2273
    81fc:	2a0103e2 	mov	w2, w1
    8200:	17ffff85 	b	8014 <mbedtls_mpi_exp_mod+0x2ac>
/home/jayanth/quemu-v8/source/optee_os/lib/libmbedtls/mbedtls/library/bignum.c:2226
    8204:	d100077b 	sub	x27, x27, #0x1
/home/jayanth/quemu-v8/source/optee_os/lib/libmbedtls/mbedtls/library/bignum.c:2228
    8208:	d2800407 	mov	x7, #0x20                  	// #32
/home/jayanth/quemu-v8/source/optee_os/lib/libmbedtls/mbedtls/library/bignum.c:2233
    820c:	f9400b40 	ldr	x0, [x26, #16]
/home/jayanth/quemu-v8/source/optee_os/lib/libmbedtls/mbedtls/library/bignum.c:2231
    8210:	d10004e7 	sub	x7, x7, #0x1
/home/jayanth/quemu-v8/source/optee_os/lib/libmbedtls/mbedtls/library/bignum.c:2233
    8214:	b87b7800 	ldr	w0, [x0, x27, lsl #2]
    8218:	1ac72400 	lsr	w0, w0, w7
    821c:	12000000 	and	w0, w0, #0x1
/home/jayanth/quemu-v8/source/optee_os/lib/libmbedtls/mbedtls/library/bignum.c:2238
    8220:	2a000041 	orr	w1, w2, w0
    8224:	34fffec1 	cbz	w1, 81fc <mbedtls_mpi_exp_mod+0x494>
/home/jayanth/quemu-v8/source/optee_os/lib/libmbedtls/mbedtls/library/bignum.c:2241
    8228:	52000001 	eor	w1, w0, #0x1
    822c:	7100045f 	cmp	w2, #0x1
    8230:	1a9f0021 	csel	w1, w1, wzr, eq  // eq = none
    8234:	340001e1 	cbz	w1, 8270 <mbedtls_mpi_exp_mod+0x508>
/home/jayanth/quemu-v8/source/optee_os/lib/libmbedtls/mbedtls/library/bignum.c:2246
    8238:	b940b7e3 	ldr	w3, [sp, #180]
    823c:	aa1303e2 	mov	x2, x19
    8240:	aa1603e4 	mov	x4, x22
    8244:	aa1503e1 	mov	x1, x21
    8248:	aa1503e0 	mov	x0, x21
    824c:	a9079fe6 	stp	x6, x7, [sp, #120]
    8250:	f9004fe5 	str	x5, [sp, #152]
    8254:	97fffe69 	bl	7bf8 <mbedtls_mpi_montmul>
    8258:	2a0003e2 	mov	w2, w0
    825c:	350008a0 	cbnz	w0, 8370 <mbedtls_mpi_exp_mod+0x608>
    8260:	b9408fe1 	ldr	w1, [sp, #140]
    8264:	a9479fe6 	ldp	x6, x7, [sp, #120]
    8268:	f9404fe5 	ldr	x5, [sp, #152]
    826c:	17ffffe4 	b	81fc <mbedtls_mpi_exp_mod+0x494>
/home/jayanth/quemu-v8/source/optee_os/lib/libmbedtls/mbedtls/library/bignum.c:2255
    8270:	910004a5 	add	x5, x5, #0x1
/home/jayanth/quemu-v8/source/optee_os/lib/libmbedtls/mbedtls/library/bignum.c:2256
    8274:	4b0502e1 	sub	w1, w23, w5
/home/jayanth/quemu-v8/source/optee_os/lib/libmbedtls/mbedtls/library/bignum.c:2258
    8278:	eb0502ff 	cmp	x23, x5
/home/jayanth/quemu-v8/source/optee_os/lib/libmbedtls/mbedtls/library/bignum.c:2256
    827c:	1ac12000 	lsl	w0, w0, w1
    8280:	aa0000c6 	orr	x6, x6, x0
/home/jayanth/quemu-v8/source/optee_os/lib/libmbedtls/mbedtls/library/bignum.c:2258
    8284:	54fffba1 	b.ne	81f8 <mbedtls_mpi_exp_mod+0x490>  // b.any
/home/jayanth/quemu-v8/source/optee_os/lib/libmbedtls/mbedtls/library/bignum.c:2263
    8288:	d2800008 	mov	x8, #0x0                   	// #0
/home/jayanth/quemu-v8/source/optee_os/lib/libmbedtls/mbedtls/library/bignum.c:2264
    828c:	b940b7e3 	ldr	w3, [sp, #180]
    8290:	aa1303e2 	mov	x2, x19
    8294:	aa1603e4 	mov	x4, x22
    8298:	aa1503e1 	mov	x1, x21
    829c:	aa1503e0 	mov	x0, x21
    82a0:	a9079fe6 	stp	x6, x7, [sp, #120]
    82a4:	f9004fe5 	str	x5, [sp, #152]
    82a8:	f90057e8 	str	x8, [sp, #168]
    82ac:	97fffe53 	bl	7bf8 <mbedtls_mpi_montmul>
    82b0:	2a0003e2 	mov	w2, w0
    82b4:	350005e0 	cbnz	w0, 8370 <mbedtls_mpi_exp_mod+0x608>
/home/jayanth/quemu-v8/source/optee_os/lib/libmbedtls/mbedtls/library/bignum.c:2263 (discriminator 2)
    82b8:	f94057e8 	ldr	x8, [sp, #168]
    82bc:	f9404fe5 	ldr	x5, [sp, #152]
    82c0:	91000508 	add	x8, x8, #0x1
    82c4:	a9479fe6 	ldp	x6, x7, [sp, #120]
    82c8:	eb0800bf 	cmp	x5, x8
    82cc:	54fffe08 	b.hi	828c <mbedtls_mpi_exp_mod+0x524>  // b.pmore
/home/jayanth/quemu-v8/source/optee_os/lib/libmbedtls/mbedtls/library/bignum.c:2269
    82d0:	d2800300 	mov	x0, #0x18                  	// #24
    82d4:	b940b7e3 	ldr	w3, [sp, #180]
    82d8:	aa1303e2 	mov	x2, x19
    82dc:	aa1603e4 	mov	x4, x22
    82e0:	9b0050c1 	madd	x1, x6, x0, x20
    82e4:	aa1503e0 	mov	x0, x21
    82e8:	f9003fe7 	str	x7, [sp, #120]
    82ec:	97fffe43 	bl	7bf8 <mbedtls_mpi_montmul>
    82f0:	2a0003e2 	mov	w2, w0
    82f4:	350003e0 	cbnz	w0, 8370 <mbedtls_mpi_exp_mod+0x608>
/home/jayanth/quemu-v8/source/optee_os/lib/libmbedtls/mbedtls/library/bignum.c:2271
    82f8:	b9408fe1 	ldr	w1, [sp, #140]
/home/jayanth/quemu-v8/source/optee_os/lib/libmbedtls/mbedtls/library/bignum.c:2272
    82fc:	d2800005 	mov	x5, #0x0                   	// #0
/home/jayanth/quemu-v8/source/optee_os/lib/libmbedtls/mbedtls/library/bignum.c:2273
    8300:	d2800006 	mov	x6, #0x0                   	// #0
    8304:	f9403fe7 	ldr	x7, [sp, #120]
    8308:	17ffffbd 	b	81fc <mbedtls_mpi_exp_mod+0x494>
/home/jayanth/quemu-v8/source/optee_os/lib/libmbedtls/mbedtls/library/bignum.c:2282
    830c:	2a0203e3 	mov	w3, w2
    8310:	aa1303e2 	mov	x2, x19
    8314:	aa1603e4 	mov	x4, x22
    8318:	aa1503e1 	mov	x1, x21
    831c:	aa1503e0 	mov	x0, x21
    8320:	a90797e6 	stp	x6, x5, [sp, #120]
    8324:	97fffe35 	bl	7bf8 <mbedtls_mpi_montmul>
    8328:	2a0003e2 	mov	w2, w0
    832c:	35000220 	cbnz	w0, 8370 <mbedtls_mpi_exp_mod+0x608>
/home/jayanth/quemu-v8/source/optee_os/lib/libmbedtls/mbedtls/library/bignum.c:2286 (discriminator 2)
    8330:	a94797e6 	ldp	x6, x5, [sp, #120]
/home/jayanth/quemu-v8/source/optee_os/lib/libmbedtls/mbedtls/library/bignum.c:2284 (discriminator 2)
    8334:	d37ff8c6 	lsl	x6, x6, #1
/home/jayanth/quemu-v8/source/optee_os/lib/libmbedtls/mbedtls/library/bignum.c:2286 (discriminator 2)
    8338:	ea0602ff 	tst	x23, x6
    833c:	54000061 	b.ne	8348 <mbedtls_mpi_exp_mod+0x5e0>  // b.any
/home/jayanth/quemu-v8/source/optee_os/lib/libmbedtls/mbedtls/library/bignum.c:2280
    8340:	9100077b 	add	x27, x27, #0x1
    8344:	17ffff38 	b	8024 <mbedtls_mpi_exp_mod+0x2bc>
/home/jayanth/quemu-v8/source/optee_os/lib/libmbedtls/mbedtls/library/bignum.c:2287
    8348:	b940b7e3 	ldr	w3, [sp, #180]
    834c:	aa1303e2 	mov	x2, x19
    8350:	aa1603e4 	mov	x4, x22
    8354:	aa1c03e1 	mov	x1, x28
    8358:	aa1503e0 	mov	x0, x21
    835c:	a90797e6 	stp	x6, x5, [sp, #120]
    8360:	97fffe26 	bl	7bf8 <mbedtls_mpi_montmul>
    8364:	2a0003e2 	mov	w2, w0
    8368:	a94797e6 	ldp	x6, x5, [sp, #120]
    836c:	34fffea0 	cbz	w0, 8340 <mbedtls_mpi_exp_mod+0x5d8>
/home/jayanth/quemu-v8/source/optee_os/lib/libmbedtls/mbedtls/library/bignum.c:2305 (discriminator 3)
    8370:	f94037e0 	ldr	x0, [sp, #104]
    8374:	b9008be2 	str	w2, [sp, #136]
    8378:	97fff66c 	bl	5d28 <mbedtls_mpi_free>
/home/jayanth/quemu-v8/source/optee_os/lib/libmbedtls/mbedtls/library/bignum.c:2304 (discriminator 3)
    837c:	f94037e0 	ldr	x0, [sp, #104]
    8380:	f9404be1 	ldr	x1, [sp, #144]
    8384:	91006000 	add	x0, x0, #0x18
    8388:	f90037e0 	str	x0, [sp, #104]
    838c:	b9408be2 	ldr	w2, [sp, #136]
    8390:	eb01001f 	cmp	x0, x1
    8394:	54fffee1 	b.ne	8370 <mbedtls_mpi_exp_mod+0x608>  // b.any
/home/jayanth/quemu-v8/source/optee_os/lib/libmbedtls/mbedtls/library/bignum.c:2306
    8398:	f94053e0 	ldr	x0, [sp, #160]
    839c:	aa1403e1 	mov	x1, x20
    83a0:	b9006be2 	str	w2, [sp, #104]
    83a4:	f940c800 	ldr	x0, [x0, #400]
    83a8:	f9400000 	ldr	x0, [x0]
    83ac:	94000506 	bl	97c4 <mempool_free>
/home/jayanth/quemu-v8/source/optee_os/lib/libmbedtls/mbedtls/library/bignum.c:2308
    83b0:	aa1603e0 	mov	x0, x22
    83b4:	97fff65d 	bl	5d28 <mbedtls_mpi_free>
    83b8:	f9403be0 	ldr	x0, [sp, #112]
    83bc:	97fff65b 	bl	5d28 <mbedtls_mpi_free>
/home/jayanth/quemu-v8/source/optee_os/lib/libmbedtls/mbedtls/library/bignum.c:2310
    83c0:	b9406be2 	ldr	w2, [sp, #104]
    83c4:	b4000079 	cbz	x25, 83d0 <mbedtls_mpi_exp_mod+0x668>
/home/jayanth/quemu-v8/source/optee_os/lib/libmbedtls/mbedtls/library/bignum.c:2310 (discriminator 1)
    83c8:	f9400b20 	ldr	x0, [x25, #16]
    83cc:	b5ffcf20 	cbnz	x0, 7db0 <mbedtls_mpi_exp_mod+0x48>
/home/jayanth/quemu-v8/source/optee_os/lib/libmbedtls/mbedtls/library/bignum.c:2311
    83d0:	aa1803e0 	mov	x0, x24
    83d4:	b9006be2 	str	w2, [sp, #104]
    83d8:	97fff654 	bl	5d28 <mbedtls_mpi_free>
    83dc:	b9406be2 	ldr	w2, [sp, #104]
    83e0:	17fffe74 	b	7db0 <mbedtls_mpi_exp_mod+0x48>
/home/jayanth/quemu-v8/source/optee_os/lib/libmbedtls/mbedtls/library/bignum.c:2099
    83e4:	d2800014 	mov	x20, #0x0                   	// #0
    83e8:	17ffffec 	b	8398 <mbedtls_mpi_exp_mod+0x630>
/home/jayanth/quemu-v8/source/optee_os/lib/libmbedtls/mbedtls/library/bignum.c:2165
    83ec:	128001e2 	mov	w2, #0xfffffff0            	// #-16
    83f0:	17ffffea 	b	8398 <mbedtls_mpi_exp_mod+0x630>

00000000000083f4 <mbedtls_mpi_gcd>:
mbedtls_mpi_gcd():
/home/jayanth/quemu-v8/source/optee_os/lib/libmbedtls/mbedtls/library/bignum.c:2320
    83f4:	a9b97bfd 	stp	x29, x30, [sp, #-112]!
    83f8:	910003fd 	mov	x29, sp
    83fc:	a9025bf5 	stp	x21, x22, [sp, #32]
/home/jayanth/quemu-v8/source/optee_os/lib/libmbedtls/mbedtls/library/bignum.c:2329
    8400:	910103f5 	add	x21, sp, #0x40
/home/jayanth/quemu-v8/source/optee_os/lib/libmbedtls/mbedtls/library/bignum.c:2320
    8404:	aa0003f6 	mov	x22, x0
/home/jayanth/quemu-v8/source/optee_os/lib/libmbedtls/mbedtls/library/bignum.c:2329
    8408:	aa1503e0 	mov	x0, x21
/home/jayanth/quemu-v8/source/optee_os/lib/libmbedtls/mbedtls/library/bignum.c:2320
    840c:	a90153f3 	stp	x19, x20, [sp, #16]
    8410:	aa0103f3 	mov	x19, x1
/home/jayanth/quemu-v8/source/optee_os/lib/libmbedtls/mbedtls/library/bignum.c:2329
    8414:	910163f4 	add	x20, sp, #0x58
/home/jayanth/quemu-v8/source/optee_os/lib/libmbedtls/mbedtls/library/bignum.c:2320
    8418:	f9001bf7 	str	x23, [sp, #48]
    841c:	aa0203f7 	mov	x23, x2
/home/jayanth/quemu-v8/source/optee_os/lib/libmbedtls/mbedtls/library/bignum.c:2329
    8420:	97fff638 	bl	5d00 <mbedtls_mpi_init_mempool>
    8424:	aa1403e0 	mov	x0, x20
    8428:	97fff636 	bl	5d00 <mbedtls_mpi_init_mempool>
/home/jayanth/quemu-v8/source/optee_os/lib/libmbedtls/mbedtls/library/bignum.c:2331
    842c:	aa1303e1 	mov	x1, x19
    8430:	aa1503e0 	mov	x0, x21
    8434:	97fff6da 	bl	5f9c <mbedtls_mpi_copy>
    8438:	2a0003f3 	mov	w19, w0
    843c:	350008a0 	cbnz	w0, 8550 <mbedtls_mpi_gcd+0x15c>
/home/jayanth/quemu-v8/source/optee_os/lib/libmbedtls/mbedtls/library/bignum.c:2332 (discriminator 2)
    8440:	aa1703e1 	mov	x1, x23
    8444:	aa1403e0 	mov	x0, x20
    8448:	97fff6d5 	bl	5f9c <mbedtls_mpi_copy>
    844c:	2a0003f3 	mov	w19, w0
    8450:	35000800 	cbnz	w0, 8550 <mbedtls_mpi_gcd+0x15c>
/home/jayanth/quemu-v8/source/optee_os/lib/libmbedtls/mbedtls/library/bignum.c:2334 (discriminator 2)
    8454:	aa1503e0 	mov	x0, x21
    8458:	97fff7c6 	bl	6370 <mbedtls_mpi_lsb>
    845c:	aa0003f7 	mov	x23, x0
/home/jayanth/quemu-v8/source/optee_os/lib/libmbedtls/mbedtls/library/bignum.c:2335 (discriminator 2)
    8460:	aa1403e0 	mov	x0, x20
    8464:	97fff7c3 	bl	6370 <mbedtls_mpi_lsb>
/home/jayanth/quemu-v8/source/optee_os/lib/libmbedtls/mbedtls/library/bignum.c:2337 (discriminator 2)
    8468:	eb0002ff 	cmp	x23, x0
    846c:	9a8092f7 	csel	x23, x23, x0, ls  // ls = plast
/home/jayanth/quemu-v8/source/optee_os/lib/libmbedtls/mbedtls/library/bignum.c:2340 (discriminator 2)
    8470:	aa1503e0 	mov	x0, x21
    8474:	aa1703e1 	mov	x1, x23
    8478:	97fff8ef 	bl	6834 <mbedtls_mpi_shift_r>
    847c:	2a0003f3 	mov	w19, w0
    8480:	35000680 	cbnz	w0, 8550 <mbedtls_mpi_gcd+0x15c>
/home/jayanth/quemu-v8/source/optee_os/lib/libmbedtls/mbedtls/library/bignum.c:2341 (discriminator 2)
    8484:	aa1703e1 	mov	x1, x23
    8488:	aa1403e0 	mov	x0, x20
    848c:	97fff8ea 	bl	6834 <mbedtls_mpi_shift_r>
    8490:	2a0003f3 	mov	w19, w0
    8494:	350005e0 	cbnz	w0, 8550 <mbedtls_mpi_gcd+0x15c>
/home/jayanth/quemu-v8/source/optee_os/lib/libmbedtls/mbedtls/library/bignum.c:2343 (discriminator 2)
    8498:	52800020 	mov	w0, #0x1                   	// #1
    849c:	790083e0 	strh	w0, [sp, #64]
    84a0:	7900b3e0 	strh	w0, [sp, #88]
/home/jayanth/quemu-v8/source/optee_os/lib/libmbedtls/mbedtls/library/bignum.c:2345 (discriminator 2)
    84a4:	aa1503e0 	mov	x0, x21
    84a8:	52800001 	mov	w1, #0x0                   	// #0
    84ac:	97fff9a1 	bl	6b30 <mbedtls_mpi_cmp_int>
    84b0:	35000160 	cbnz	w0, 84dc <mbedtls_mpi_gcd+0xe8>
/home/jayanth/quemu-v8/source/optee_os/lib/libmbedtls/mbedtls/library/bignum.c:2362
    84b4:	aa1703e1 	mov	x1, x23
    84b8:	aa1403e0 	mov	x0, x20
    84bc:	97fff89a 	bl	6724 <mbedtls_mpi_shift_l>
    84c0:	2a0003f3 	mov	w19, w0
    84c4:	35000460 	cbnz	w0, 8550 <mbedtls_mpi_gcd+0x15c>
/home/jayanth/quemu-v8/source/optee_os/lib/libmbedtls/mbedtls/library/bignum.c:2363 (discriminator 2)
    84c8:	aa1403e1 	mov	x1, x20
    84cc:	aa1603e0 	mov	x0, x22
    84d0:	97fff6b3 	bl	5f9c <mbedtls_mpi_copy>
    84d4:	2a0003f3 	mov	w19, w0
/home/jayanth/quemu-v8/source/optee_os/lib/libmbedtls/mbedtls/library/bignum.c:2365 (discriminator 2)
    84d8:	1400001e 	b	8550 <mbedtls_mpi_gcd+0x15c>
/home/jayanth/quemu-v8/source/optee_os/lib/libmbedtls/mbedtls/library/bignum.c:2347
    84dc:	aa1503e0 	mov	x0, x21
    84e0:	97fff7a4 	bl	6370 <mbedtls_mpi_lsb>
    84e4:	aa0003e1 	mov	x1, x0
    84e8:	aa1503e0 	mov	x0, x21
    84ec:	97fff8d2 	bl	6834 <mbedtls_mpi_shift_r>
    84f0:	2a0003f3 	mov	w19, w0
    84f4:	350002e0 	cbnz	w0, 8550 <mbedtls_mpi_gcd+0x15c>
/home/jayanth/quemu-v8/source/optee_os/lib/libmbedtls/mbedtls/library/bignum.c:2348 (discriminator 2)
    84f8:	aa1403e0 	mov	x0, x20
    84fc:	97fff79d 	bl	6370 <mbedtls_mpi_lsb>
    8500:	aa0003e1 	mov	x1, x0
    8504:	aa1403e0 	mov	x0, x20
    8508:	97fff8cb 	bl	6834 <mbedtls_mpi_shift_r>
    850c:	2a0003f3 	mov	w19, w0
    8510:	35000200 	cbnz	w0, 8550 <mbedtls_mpi_gcd+0x15c>
/home/jayanth/quemu-v8/source/optee_os/lib/libmbedtls/mbedtls/library/bignum.c:2350 (discriminator 2)
    8514:	aa1403e1 	mov	x1, x20
    8518:	aa1503e0 	mov	x0, x21
    851c:	97fff91d 	bl	6990 <mbedtls_mpi_cmp_mpi>
    8520:	37f802c0 	tbnz	w0, #31, 8578 <mbedtls_mpi_gcd+0x184>
/home/jayanth/quemu-v8/source/optee_os/lib/libmbedtls/mbedtls/library/bignum.c:2352
    8524:	aa1403e2 	mov	x2, x20
    8528:	aa1503e1 	mov	x1, x21
    852c:	aa1503e0 	mov	x0, x21
    8530:	97fff9d8 	bl	6c90 <mbedtls_mpi_sub_abs>
    8534:	2a0003f3 	mov	w19, w0
    8538:	350000c0 	cbnz	w0, 8550 <mbedtls_mpi_gcd+0x15c>
/home/jayanth/quemu-v8/source/optee_os/lib/libmbedtls/mbedtls/library/bignum.c:2353 (discriminator 2)
    853c:	aa1503e0 	mov	x0, x21
    8540:	d2800021 	mov	x1, #0x1                   	// #1
/home/jayanth/quemu-v8/source/optee_os/lib/libmbedtls/mbedtls/library/bignum.c:2358 (discriminator 2)
    8544:	97fff8bc 	bl	6834 <mbedtls_mpi_shift_r>
    8548:	2a0003f3 	mov	w19, w0
    854c:	34fffac0 	cbz	w0, 84a4 <mbedtls_mpi_gcd+0xb0>
/home/jayanth/quemu-v8/source/optee_os/lib/libmbedtls/mbedtls/library/bignum.c:2367 (discriminator 3)
    8550:	aa1503e0 	mov	x0, x21
    8554:	97fff5f5 	bl	5d28 <mbedtls_mpi_free>
    8558:	aa1403e0 	mov	x0, x20
    855c:	97fff5f3 	bl	5d28 <mbedtls_mpi_free>
/home/jayanth/quemu-v8/source/optee_os/lib/libmbedtls/mbedtls/library/bignum.c:2370 (discriminator 3)
    8560:	2a1303e0 	mov	w0, w19
    8564:	a94153f3 	ldp	x19, x20, [sp, #16]
    8568:	a9425bf5 	ldp	x21, x22, [sp, #32]
    856c:	f9401bf7 	ldr	x23, [sp, #48]
    8570:	a8c77bfd 	ldp	x29, x30, [sp], #112
    8574:	d65f03c0 	ret
/home/jayanth/quemu-v8/source/optee_os/lib/libmbedtls/mbedtls/library/bignum.c:2357
    8578:	aa1503e2 	mov	x2, x21
    857c:	aa1403e1 	mov	x1, x20
    8580:	aa1403e0 	mov	x0, x20
    8584:	97fff9c3 	bl	6c90 <mbedtls_mpi_sub_abs>
    8588:	2a0003f3 	mov	w19, w0
    858c:	35fffe20 	cbnz	w0, 8550 <mbedtls_mpi_gcd+0x15c>
/home/jayanth/quemu-v8/source/optee_os/lib/libmbedtls/mbedtls/library/bignum.c:2358 (discriminator 2)
    8590:	aa1403e0 	mov	x0, x20
    8594:	d2800021 	mov	x1, #0x1                   	// #1
    8598:	17ffffeb 	b	8544 <mbedtls_mpi_gcd+0x150>

000000000000859c <mbedtls_mpi_fill_random>:
mbedtls_mpi_fill_random():
/home/jayanth/quemu-v8/source/optee_os/lib/libmbedtls/mbedtls/library/bignum.c:2382
    859c:	a9bc7bfd 	stp	x29, x30, [sp, #-64]!
/home/jayanth/quemu-v8/source/optee_os/lib/libmbedtls/mbedtls/library/bignum.c:2384
    85a0:	f240043f 	tst	x1, #0x3
/home/jayanth/quemu-v8/source/optee_os/lib/libmbedtls/mbedtls/library/bignum.c:2382
    85a4:	910003fd 	mov	x29, sp
    85a8:	a9025bf5 	stp	x21, x22, [sp, #32]
/home/jayanth/quemu-v8/source/optee_os/lib/libmbedtls/mbedtls/library/bignum.c:2384
    85ac:	d342fc35 	lsr	x21, x1, #2
/home/jayanth/quemu-v8/source/optee_os/lib/libmbedtls/mbedtls/library/bignum.c:2382
    85b0:	aa0103f6 	mov	x22, x1
/home/jayanth/quemu-v8/source/optee_os/lib/libmbedtls/mbedtls/library/bignum.c:2392
    85b4:	f9400401 	ldr	x1, [x0, #8]
/home/jayanth/quemu-v8/source/optee_os/lib/libmbedtls/mbedtls/library/bignum.c:2382
    85b8:	a90153f3 	stp	x19, x20, [sp, #16]
/home/jayanth/quemu-v8/source/optee_os/lib/libmbedtls/mbedtls/library/bignum.c:2384
    85bc:	9a9506b5 	cinc	x21, x21, ne  // ne = any
/home/jayanth/quemu-v8/source/optee_os/lib/libmbedtls/mbedtls/library/bignum.c:2382
    85c0:	a90363f7 	stp	x23, x24, [sp, #48]
    85c4:	aa0003f4 	mov	x20, x0
    85c8:	aa0203f7 	mov	x23, x2
    85cc:	aa0303f8 	mov	x24, x3
/home/jayanth/quemu-v8/source/optee_os/lib/libmbedtls/mbedtls/library/bignum.c:2392
    85d0:	eb15003f 	cmp	x1, x21
    85d4:	54000181 	b.ne	8604 <mbedtls_mpi_fill_random+0x68>  // b.any
/home/jayanth/quemu-v8/source/optee_os/lib/libmbedtls/mbedtls/library/bignum.c:2398
    85d8:	aa1403e0 	mov	x0, x20
    85dc:	52800001 	mov	w1, #0x0                   	// #0
    85e0:	97fff71c 	bl	6250 <mbedtls_mpi_lset>
    85e4:	2a0003f3 	mov	w19, w0
    85e8:	34000200 	cbz	w0, 8628 <mbedtls_mpi_fill_random+0x8c>
/home/jayanth/quemu-v8/source/optee_os/lib/libmbedtls/mbedtls/library/bignum.c:2407
    85ec:	2a1303e0 	mov	w0, w19
    85f0:	a94153f3 	ldp	x19, x20, [sp, #16]
    85f4:	a9425bf5 	ldp	x21, x22, [sp, #32]
    85f8:	a94363f7 	ldp	x23, x24, [sp, #48]
    85fc:	a8c47bfd 	ldp	x29, x30, [sp], #64
    8600:	d65f03c0 	ret
/home/jayanth/quemu-v8/source/optee_os/lib/libmbedtls/mbedtls/library/bignum.c:2394
    8604:	97fff5c9 	bl	5d28 <mbedtls_mpi_free>
/home/jayanth/quemu-v8/source/optee_os/lib/libmbedtls/mbedtls/library/bignum.c:2395
    8608:	aa1403e0 	mov	x0, x20
    860c:	97fff5b9 	bl	5cf0 <mbedtls_mpi_init>
/home/jayanth/quemu-v8/source/optee_os/lib/libmbedtls/mbedtls/library/bignum.c:2396
    8610:	aa1503e1 	mov	x1, x21
    8614:	aa1403e0 	mov	x0, x20
    8618:	97fff5df 	bl	5d94 <mbedtls_mpi_grow>
    861c:	2a0003f3 	mov	w19, w0
    8620:	34fffdc0 	cbz	w0, 85d8 <mbedtls_mpi_fill_random+0x3c>
    8624:	17fffff2 	b	85ec <mbedtls_mpi_fill_random+0x50>
/home/jayanth/quemu-v8/source/optee_os/lib/libmbedtls/mbedtls/library/bignum.c:2401 (discriminator 2)
    8628:	f9400a81 	ldr	x1, [x20, #16]
/home/jayanth/quemu-v8/source/optee_os/lib/libmbedtls/mbedtls/library/bignum.c:2385 (discriminator 2)
    862c:	d37ef6a0 	lsl	x0, x21, #2
    8630:	cb160000 	sub	x0, x0, x22
/home/jayanth/quemu-v8/source/optee_os/lib/libmbedtls/mbedtls/library/bignum.c:2401 (discriminator 2)
    8634:	aa1603e2 	mov	x2, x22
    8638:	8b000021 	add	x1, x1, x0
    863c:	aa1803e0 	mov	x0, x24
    8640:	d63f02e0 	blr	x23
mpi_bigendian_to_host():
/home/jayanth/quemu-v8/source/optee_os/lib/libmbedtls/mbedtls/library/bignum.c:853 (discriminator 2)
    8644:	b4fffd55 	cbz	x21, 85ec <mbedtls_mpi_fill_random+0x50>
    8648:	f9400a80 	ldr	x0, [x20, #16]
    864c:	aa1503e1 	mov	x1, x21
    8650:	97fff58b 	bl	5c7c <mpi_bigendian_to_host.part.0>
mbedtls_mpi_fill_random():
/home/jayanth/quemu-v8/source/optee_os/lib/libmbedtls/mbedtls/library/bignum.c:2406
    8654:	17ffffe6 	b	85ec <mbedtls_mpi_fill_random+0x50>

0000000000008658 <mpi_miller_rabin>:
mpi_miller_rabin():
/home/jayanth/quemu-v8/source/optee_os/lib/libmbedtls/mbedtls/library/bignum.c:2575
    8658:	a9b07bfd 	stp	x29, x30, [sp, #-256]!
    865c:	910003fd 	mov	x29, sp
    8660:	a9025bf5 	stp	x21, x22, [sp, #32]
/home/jayanth/quemu-v8/source/optee_os/lib/libmbedtls/mbedtls/library/bignum.c:2583
    8664:	910223f5 	add	x21, sp, #0x88
/home/jayanth/quemu-v8/source/optee_os/lib/libmbedtls/mbedtls/library/bignum.c:2575
    8668:	aa0003f6 	mov	x22, x0
/home/jayanth/quemu-v8/source/optee_os/lib/libmbedtls/mbedtls/library/bignum.c:2583
    866c:	aa1503e0 	mov	x0, x21
/home/jayanth/quemu-v8/source/optee_os/lib/libmbedtls/mbedtls/library/bignum.c:2575
    8670:	a90153f3 	stp	x19, x20, [sp, #16]
/home/jayanth/quemu-v8/source/optee_os/lib/libmbedtls/mbedtls/library/bignum.c:2584
    8674:	910343f4 	add	x20, sp, #0xd0
/home/jayanth/quemu-v8/source/optee_os/lib/libmbedtls/mbedtls/library/bignum.c:2575
    8678:	a90363f7 	stp	x23, x24, [sp, #48]
/home/jayanth/quemu-v8/source/optee_os/lib/libmbedtls/mbedtls/library/bignum.c:2583
    867c:	910283f7 	add	x23, sp, #0xa0
/home/jayanth/quemu-v8/source/optee_os/lib/libmbedtls/mbedtls/library/bignum.c:2584
    8680:	9102e3f8 	add	x24, sp, #0xb8
/home/jayanth/quemu-v8/source/optee_os/lib/libmbedtls/mbedtls/library/bignum.c:2575
    8684:	a9046bf9 	stp	x25, x26, [sp, #64]
/home/jayanth/quemu-v8/source/optee_os/lib/libmbedtls/mbedtls/library/bignum.c:2585
    8688:	9103a3fa 	add	x26, sp, #0xe8
/home/jayanth/quemu-v8/source/optee_os/lib/libmbedtls/mbedtls/library/bignum.c:2575
    868c:	a90573fb 	stp	x27, x28, [sp, #80]
    8690:	a9060be1 	stp	x1, x2, [sp, #96]
    8694:	f9003be3 	str	x3, [sp, #112]
/home/jayanth/quemu-v8/source/optee_os/lib/libmbedtls/mbedtls/library/bignum.c:2583
    8698:	97fff59a 	bl	5d00 <mbedtls_mpi_init_mempool>
    869c:	aa1703e0 	mov	x0, x23
    86a0:	97fff598 	bl	5d00 <mbedtls_mpi_init_mempool>
/home/jayanth/quemu-v8/source/optee_os/lib/libmbedtls/mbedtls/library/bignum.c:2584
    86a4:	aa1803e0 	mov	x0, x24
    86a8:	97fff596 	bl	5d00 <mbedtls_mpi_init_mempool>
    86ac:	aa1403e0 	mov	x0, x20
    86b0:	97fff594 	bl	5d00 <mbedtls_mpi_init_mempool>
/home/jayanth/quemu-v8/source/optee_os/lib/libmbedtls/mbedtls/library/bignum.c:2585
    86b4:	aa1a03e0 	mov	x0, x26
    86b8:	97fff592 	bl	5d00 <mbedtls_mpi_init_mempool>
/home/jayanth/quemu-v8/source/optee_os/lib/libmbedtls/mbedtls/library/bignum.c:2591
    86bc:	aa1603e1 	mov	x1, x22
    86c0:	aa1503e0 	mov	x0, x21
    86c4:	52800022 	mov	w2, #0x1                   	// #1
    86c8:	97fff9fc 	bl	6eb8 <mbedtls_mpi_sub_int>
    86cc:	2a0003f3 	mov	w19, w0
    86d0:	35000600 	cbnz	w0, 8790 <mpi_miller_rabin+0x138>
/home/jayanth/quemu-v8/source/optee_os/lib/libmbedtls/mbedtls/library/bignum.c:2592 (discriminator 2)
    86d4:	aa1503e0 	mov	x0, x21
    86d8:	97fff726 	bl	6370 <mbedtls_mpi_lsb>
/home/jayanth/quemu-v8/source/optee_os/lib/libmbedtls/mbedtls/library/bignum.c:2593 (discriminator 2)
    86dc:	aa1503e1 	mov	x1, x21
/home/jayanth/quemu-v8/source/optee_os/lib/libmbedtls/mbedtls/library/bignum.c:2592 (discriminator 2)
    86e0:	aa0003f9 	mov	x25, x0
/home/jayanth/quemu-v8/source/optee_os/lib/libmbedtls/mbedtls/library/bignum.c:2593 (discriminator 2)
    86e4:	aa1703e0 	mov	x0, x23
    86e8:	97fff62d 	bl	5f9c <mbedtls_mpi_copy>
    86ec:	2a0003f3 	mov	w19, w0
    86f0:	35000500 	cbnz	w0, 8790 <mpi_miller_rabin+0x138>
/home/jayanth/quemu-v8/source/optee_os/lib/libmbedtls/mbedtls/library/bignum.c:2594 (discriminator 2)
    86f4:	aa1903e1 	mov	x1, x25
    86f8:	aa1703e0 	mov	x0, x23
    86fc:	97fff84e 	bl	6834 <mbedtls_mpi_shift_r>
    8700:	2a0003f3 	mov	w19, w0
    8704:	35000460 	cbnz	w0, 8790 <mpi_miller_rabin+0x138>
/home/jayanth/quemu-v8/source/optee_os/lib/libmbedtls/mbedtls/library/bignum.c:2596
    8708:	d280001b 	mov	x27, #0x0                   	// #0
/home/jayanth/quemu-v8/source/optee_os/lib/libmbedtls/mbedtls/library/bignum.c:2596 (discriminator 1)
    870c:	f94033e0 	ldr	x0, [sp, #96]
    8710:	eb00037f 	cmp	x27, x0
    8714:	540003e0 	b.eq	8790 <mpi_miller_rabin+0x138>  // b.none
    8718:	528025dc 	mov	w28, #0x12e                 	// #302
/home/jayanth/quemu-v8/source/optee_os/lib/libmbedtls/mbedtls/library/bignum.c:2603
    871c:	a9468fe2 	ldp	x2, x3, [sp, #104]
    8720:	aa1403e0 	mov	x0, x20
    8724:	f94006c1 	ldr	x1, [x22, #8]
    8728:	d37ef421 	lsl	x1, x1, #2
    872c:	97ffff9c 	bl	859c <mbedtls_mpi_fill_random>
    8730:	35000c80 	cbnz	w0, 88c0 <mpi_miller_rabin+0x268>
/home/jayanth/quemu-v8/source/optee_os/lib/libmbedtls/mbedtls/library/bignum.c:2605 (discriminator 2)
    8734:	aa1403e0 	mov	x0, x20
    8738:	97fff723 	bl	63c4 <mbedtls_mpi_bitlen>
    873c:	aa0003e1 	mov	x1, x0
/home/jayanth/quemu-v8/source/optee_os/lib/libmbedtls/mbedtls/library/bignum.c:2606 (discriminator 2)
    8740:	aa1503e0 	mov	x0, x21
/home/jayanth/quemu-v8/source/optee_os/lib/libmbedtls/mbedtls/library/bignum.c:2605 (discriminator 2)
    8744:	f9003fe1 	str	x1, [sp, #120]
/home/jayanth/quemu-v8/source/optee_os/lib/libmbedtls/mbedtls/library/bignum.c:2606 (discriminator 2)
    8748:	97fff71f 	bl	63c4 <mbedtls_mpi_bitlen>
/home/jayanth/quemu-v8/source/optee_os/lib/libmbedtls/mbedtls/library/bignum.c:2607 (discriminator 2)
    874c:	f9403fe1 	ldr	x1, [sp, #120]
    8750:	eb00003f 	cmp	x1, x0
    8754:	54000189 	b.ls	8784 <mpi_miller_rabin+0x12c>  // b.plast
/home/jayanth/quemu-v8/source/optee_os/lib/libmbedtls/mbedtls/library/bignum.c:2608
    8758:	a94d8fe1 	ldp	x1, x3, [sp, #216]
    875c:	d37ef422 	lsl	x2, x1, #2
    8760:	d1000421 	sub	x1, x1, #0x1
    8764:	d1001042 	sub	x2, x2, #0x4
    8768:	2a2117e1 	mvn	w1, w1, lsl #5
    876c:	0b000020 	add	w0, w1, w0
    8770:	12800001 	mov	w1, #0xffffffff            	// #-1
    8774:	1ac02020 	lsl	w0, w1, w0
    8778:	b8626861 	ldr	w1, [x3, x2]
    877c:	0a200020 	bic	w0, w1, w0
    8780:	b8226860 	str	w0, [x3, x2]
/home/jayanth/quemu-v8/source/optee_os/lib/libmbedtls/mbedtls/library/bignum.c:2611
    8784:	7100079c 	subs	w28, w28, #0x1
    8788:	54000281 	b.ne	87d8 <mpi_miller_rabin+0x180>  // b.any
/home/jayanth/quemu-v8/source/optee_os/lib/libmbedtls/mbedtls/library/bignum.c:2612
    878c:	128001b3 	mov	w19, #0xfffffff2            	// #-14
/home/jayanth/quemu-v8/source/optee_os/lib/libmbedtls/mbedtls/library/bignum.c:2655
    8790:	aa1503e0 	mov	x0, x21
    8794:	97fff565 	bl	5d28 <mbedtls_mpi_free>
    8798:	aa1703e0 	mov	x0, x23
    879c:	97fff563 	bl	5d28 <mbedtls_mpi_free>
/home/jayanth/quemu-v8/source/optee_os/lib/libmbedtls/mbedtls/library/bignum.c:2656
    87a0:	aa1803e0 	mov	x0, x24
    87a4:	97fff561 	bl	5d28 <mbedtls_mpi_free>
    87a8:	aa1403e0 	mov	x0, x20
    87ac:	97fff55f 	bl	5d28 <mbedtls_mpi_free>
/home/jayanth/quemu-v8/source/optee_os/lib/libmbedtls/mbedtls/library/bignum.c:2657
    87b0:	aa1a03e0 	mov	x0, x26
    87b4:	97fff55d 	bl	5d28 <mbedtls_mpi_free>
/home/jayanth/quemu-v8/source/optee_os/lib/libmbedtls/mbedtls/library/bignum.c:2660
    87b8:	2a1303e0 	mov	w0, w19
    87bc:	a94153f3 	ldp	x19, x20, [sp, #16]
    87c0:	a9425bf5 	ldp	x21, x22, [sp, #32]
    87c4:	a94363f7 	ldp	x23, x24, [sp, #48]
    87c8:	a9446bf9 	ldp	x25, x26, [sp, #64]
    87cc:	a94573fb 	ldp	x27, x28, [sp, #80]
    87d0:	a8d07bfd 	ldp	x29, x30, [sp], #256
    87d4:	d65f03c0 	ret
/home/jayanth/quemu-v8/source/optee_os/lib/libmbedtls/mbedtls/library/bignum.c:2616
    87d8:	aa1503e1 	mov	x1, x21
    87dc:	aa1403e0 	mov	x0, x20
    87e0:	97fff86c 	bl	6990 <mbedtls_mpi_cmp_mpi>
/home/jayanth/quemu-v8/source/optee_os/lib/libmbedtls/mbedtls/library/bignum.c:2617
    87e4:	36fff9c0 	tbz	w0, #31, 871c <mpi_miller_rabin+0xc4>
/home/jayanth/quemu-v8/source/optee_os/lib/libmbedtls/mbedtls/library/bignum.c:2617 (discriminator 1)
    87e8:	aa1403e0 	mov	x0, x20
    87ec:	52800021 	mov	w1, #0x1                   	// #1
    87f0:	97fff8d0 	bl	6b30 <mbedtls_mpi_cmp_int>
/home/jayanth/quemu-v8/source/optee_os/lib/libmbedtls/mbedtls/library/bignum.c:2616 (discriminator 1)
    87f4:	7100001f 	cmp	w0, #0x0
    87f8:	54fff92d 	b.le	871c <mpi_miller_rabin+0xc4>
/home/jayanth/quemu-v8/source/optee_os/lib/libmbedtls/mbedtls/library/bignum.c:2622
    87fc:	aa1a03e4 	mov	x4, x26
    8800:	aa1603e3 	mov	x3, x22
    8804:	aa1703e2 	mov	x2, x23
    8808:	aa1403e1 	mov	x1, x20
    880c:	aa1403e0 	mov	x0, x20
    8810:	97fffd56 	bl	7d68 <mbedtls_mpi_exp_mod>
    8814:	35000560 	cbnz	w0, 88c0 <mpi_miller_rabin+0x268>
/home/jayanth/quemu-v8/source/optee_os/lib/libmbedtls/mbedtls/library/bignum.c:2624 (discriminator 2)
    8818:	aa1503e1 	mov	x1, x21
    881c:	aa1403e0 	mov	x0, x20
    8820:	97fff85c 	bl	6990 <mbedtls_mpi_cmp_mpi>
    8824:	35000060 	cbnz	w0, 8830 <mpi_miller_rabin+0x1d8>
/home/jayanth/quemu-v8/source/optee_os/lib/libmbedtls/mbedtls/library/bignum.c:2596
    8828:	9100077b 	add	x27, x27, #0x1
    882c:	17ffffb8 	b	870c <mpi_miller_rabin+0xb4>
/home/jayanth/quemu-v8/source/optee_os/lib/libmbedtls/mbedtls/library/bignum.c:2625 (discriminator 1)
    8830:	aa1403e0 	mov	x0, x20
    8834:	52800021 	mov	w1, #0x1                   	// #1
    8838:	97fff8be 	bl	6b30 <mbedtls_mpi_cmp_int>
/home/jayanth/quemu-v8/source/optee_os/lib/libmbedtls/mbedtls/library/bignum.c:2624 (discriminator 1)
    883c:	34ffff60 	cbz	w0, 8828 <mpi_miller_rabin+0x1d0>
/home/jayanth/quemu-v8/source/optee_os/lib/libmbedtls/mbedtls/library/bignum.c:2628
    8840:	d280003c 	mov	x28, #0x1                   	// #1
/home/jayanth/quemu-v8/source/optee_os/lib/libmbedtls/mbedtls/library/bignum.c:2629
    8844:	eb19039f 	cmp	x28, x25
    8848:	54000262 	b.cs	8894 <mpi_miller_rabin+0x23c>  // b.hs, b.nlast
/home/jayanth/quemu-v8/source/optee_os/lib/libmbedtls/mbedtls/library/bignum.c:2629 (discriminator 1)
    884c:	aa1503e1 	mov	x1, x21
    8850:	aa1403e0 	mov	x0, x20
    8854:	97fff84f 	bl	6990 <mbedtls_mpi_cmp_mpi>
    8858:	340001e0 	cbz	w0, 8894 <mpi_miller_rabin+0x23c>
/home/jayanth/quemu-v8/source/optee_os/lib/libmbedtls/mbedtls/library/bignum.c:2634
    885c:	aa1403e2 	mov	x2, x20
    8860:	aa1403e1 	mov	x1, x20
    8864:	aa1803e0 	mov	x0, x24
    8868:	97fff9a4 	bl	6ef8 <mbedtls_mpi_mul_mpi>
    886c:	350002a0 	cbnz	w0, 88c0 <mpi_miller_rabin+0x268>
/home/jayanth/quemu-v8/source/optee_os/lib/libmbedtls/mbedtls/library/bignum.c:2635 (discriminator 2)
    8870:	aa1603e2 	mov	x2, x22
    8874:	aa1803e1 	mov	x1, x24
    8878:	aa1403e0 	mov	x0, x20
    887c:	97fffbc8 	bl	779c <mbedtls_mpi_mod_mpi>
    8880:	35000200 	cbnz	w0, 88c0 <mpi_miller_rabin+0x268>
/home/jayanth/quemu-v8/source/optee_os/lib/libmbedtls/mbedtls/library/bignum.c:2637 (discriminator 2)
    8884:	aa1403e0 	mov	x0, x20
    8888:	52800021 	mov	w1, #0x1                   	// #1
    888c:	97fff8a9 	bl	6b30 <mbedtls_mpi_cmp_int>
    8890:	35000140 	cbnz	w0, 88b8 <mpi_miller_rabin+0x260>
/home/jayanth/quemu-v8/source/optee_os/lib/libmbedtls/mbedtls/library/bignum.c:2646
    8894:	aa1503e1 	mov	x1, x21
    8898:	aa1403e0 	mov	x0, x20
    889c:	97fff83d 	bl	6990 <mbedtls_mpi_cmp_mpi>
    88a0:	35fff760 	cbnz	w0, 878c <mpi_miller_rabin+0x134>
/home/jayanth/quemu-v8/source/optee_os/lib/libmbedtls/mbedtls/library/bignum.c:2647 (discriminator 1)
    88a4:	aa1403e0 	mov	x0, x20
    88a8:	52800021 	mov	w1, #0x1                   	// #1
    88ac:	97fff8a1 	bl	6b30 <mbedtls_mpi_cmp_int>
/home/jayanth/quemu-v8/source/optee_os/lib/libmbedtls/mbedtls/library/bignum.c:2646 (discriminator 1)
    88b0:	35fffbc0 	cbnz	w0, 8828 <mpi_miller_rabin+0x1d0>
    88b4:	17ffffb6 	b	878c <mpi_miller_rabin+0x134>
/home/jayanth/quemu-v8/source/optee_os/lib/libmbedtls/mbedtls/library/bignum.c:2640
    88b8:	9100079c 	add	x28, x28, #0x1
    88bc:	17ffffe2 	b	8844 <mpi_miller_rabin+0x1ec>
    88c0:	2a0003f3 	mov	w19, w0
    88c4:	17ffffb3 	b	8790 <mpi_miller_rabin+0x138>

00000000000088c8 <mbedtls_mpi_inv_mod>:
mbedtls_mpi_inv_mod():
/home/jayanth/quemu-v8/source/optee_os/lib/libmbedtls/mbedtls/library/bignum.c:2413
    88c8:	a9ab7bfd 	stp	x29, x30, [sp, #-336]!
    88cc:	910003fd 	mov	x29, sp
    88d0:	a90153f3 	stp	x19, x20, [sp, #16]
    88d4:	aa0203f4 	mov	x20, x2
    88d8:	a9025bf5 	stp	x21, x22, [sp, #32]
    88dc:	a90363f7 	stp	x23, x24, [sp, #48]
    88e0:	a9046bf9 	stp	x25, x26, [sp, #64]
    88e4:	a90573fb 	stp	x27, x28, [sp, #80]
    88e8:	a90603e1 	stp	x1, x0, [sp, #96]
/home/jayanth/quemu-v8/source/optee_os/lib/libmbedtls/mbedtls/library/bignum.c:2420
    88ec:	aa0203e0 	mov	x0, x2
    88f0:	52800021 	mov	w1, #0x1                   	// #1
    88f4:	97fff88f 	bl	6b30 <mbedtls_mpi_cmp_int>
    88f8:	7100001f 	cmp	w0, #0x0
    88fc:	54001f4d 	b.le	8ce4 <mbedtls_mpi_inv_mod+0x41c>
/home/jayanth/quemu-v8/source/optee_os/lib/libmbedtls/mbedtls/library/bignum.c:2423
    8900:	910243fa 	add	x26, sp, #0x90
    8904:	9102a3f8 	add	x24, sp, #0xa8
    8908:	aa1a03e0 	mov	x0, x26
    890c:	97fff4fd 	bl	5d00 <mbedtls_mpi_init_mempool>
    8910:	aa1803e0 	mov	x0, x24
/home/jayanth/quemu-v8/source/optee_os/lib/libmbedtls/mbedtls/library/bignum.c:2424
    8914:	910303f7 	add	x23, sp, #0xc0
/home/jayanth/quemu-v8/source/optee_os/lib/libmbedtls/mbedtls/library/bignum.c:2423
    8918:	97fff4fa 	bl	5d00 <mbedtls_mpi_init_mempool>
/home/jayanth/quemu-v8/source/optee_os/lib/libmbedtls/mbedtls/library/bignum.c:2424
    891c:	910363f6 	add	x22, sp, #0xd8
    8920:	aa1703e0 	mov	x0, x23
    8924:	97fff4f7 	bl	5d00 <mbedtls_mpi_init_mempool>
    8928:	aa1603e0 	mov	x0, x22
/home/jayanth/quemu-v8/source/optee_os/lib/libmbedtls/mbedtls/library/bignum.c:2425
    892c:	9101e3fc 	add	x28, sp, #0x78
/home/jayanth/quemu-v8/source/optee_os/lib/libmbedtls/mbedtls/library/bignum.c:2424
    8930:	97fff4f4 	bl	5d00 <mbedtls_mpi_init_mempool>
/home/jayanth/quemu-v8/source/optee_os/lib/libmbedtls/mbedtls/library/bignum.c:2425
    8934:	9103c3fb 	add	x27, sp, #0xf0
    8938:	aa1c03e0 	mov	x0, x28
    893c:	97fff4f1 	bl	5d00 <mbedtls_mpi_init_mempool>
    8940:	aa1b03e0 	mov	x0, x27
/home/jayanth/quemu-v8/source/optee_os/lib/libmbedtls/mbedtls/library/bignum.c:2426
    8944:	910423f9 	add	x25, sp, #0x108
/home/jayanth/quemu-v8/source/optee_os/lib/libmbedtls/mbedtls/library/bignum.c:2425
    8948:	97fff4ee 	bl	5d00 <mbedtls_mpi_init_mempool>
/home/jayanth/quemu-v8/source/optee_os/lib/libmbedtls/mbedtls/library/bignum.c:2426
    894c:	910483f3 	add	x19, sp, #0x120
    8950:	aa1903e0 	mov	x0, x25
    8954:	97fff4eb 	bl	5d00 <mbedtls_mpi_init_mempool>
    8958:	aa1303e0 	mov	x0, x19
/home/jayanth/quemu-v8/source/optee_os/lib/libmbedtls/mbedtls/library/bignum.c:2427
    895c:	9104e3f5 	add	x21, sp, #0x138
/home/jayanth/quemu-v8/source/optee_os/lib/libmbedtls/mbedtls/library/bignum.c:2426
    8960:	97fff4e8 	bl	5d00 <mbedtls_mpi_init_mempool>
/home/jayanth/quemu-v8/source/optee_os/lib/libmbedtls/mbedtls/library/bignum.c:2427
    8964:	aa1503e0 	mov	x0, x21
    8968:	97fff4e6 	bl	5d00 <mbedtls_mpi_init_mempool>
/home/jayanth/quemu-v8/source/optee_os/lib/libmbedtls/mbedtls/library/bignum.c:2429
    896c:	f94033e1 	ldr	x1, [sp, #96]
    8970:	aa1403e2 	mov	x2, x20
    8974:	aa1c03e0 	mov	x0, x28
    8978:	97fffe9f 	bl	83f4 <mbedtls_mpi_gcd>
    897c:	2a0003e1 	mov	w1, w0
    8980:	35000d20 	cbnz	w0, 8b24 <mbedtls_mpi_inv_mod+0x25c>
/home/jayanth/quemu-v8/source/optee_os/lib/libmbedtls/mbedtls/library/bignum.c:2431 (discriminator 2)
    8984:	aa1c03e0 	mov	x0, x28
    8988:	52800021 	mov	w1, #0x1                   	// #1
    898c:	97fff869 	bl	6b30 <mbedtls_mpi_cmp_int>
    8990:	35001a60 	cbnz	w0, 8cdc <mbedtls_mpi_inv_mod+0x414>
/home/jayanth/quemu-v8/source/optee_os/lib/libmbedtls/mbedtls/library/bignum.c:2437
    8994:	f94033e1 	ldr	x1, [sp, #96]
    8998:	aa1403e2 	mov	x2, x20
    899c:	aa1a03e0 	mov	x0, x26
    89a0:	97fffb7f 	bl	779c <mbedtls_mpi_mod_mpi>
    89a4:	2a0003e1 	mov	w1, w0
    89a8:	35000be0 	cbnz	w0, 8b24 <mbedtls_mpi_inv_mod+0x25c>
/home/jayanth/quemu-v8/source/optee_os/lib/libmbedtls/mbedtls/library/bignum.c:2438 (discriminator 2)
    89ac:	aa1a03e1 	mov	x1, x26
    89b0:	aa1803e0 	mov	x0, x24
    89b4:	97fff57a 	bl	5f9c <mbedtls_mpi_copy>
    89b8:	2a0003e1 	mov	w1, w0
    89bc:	35000b40 	cbnz	w0, 8b24 <mbedtls_mpi_inv_mod+0x25c>
/home/jayanth/quemu-v8/source/optee_os/lib/libmbedtls/mbedtls/library/bignum.c:2439 (discriminator 2)
    89c0:	aa1403e1 	mov	x1, x20
    89c4:	aa1b03e0 	mov	x0, x27
    89c8:	97fff575 	bl	5f9c <mbedtls_mpi_copy>
    89cc:	2a0003e1 	mov	w1, w0
    89d0:	35000aa0 	cbnz	w0, 8b24 <mbedtls_mpi_inv_mod+0x25c>
/home/jayanth/quemu-v8/source/optee_os/lib/libmbedtls/mbedtls/library/bignum.c:2440 (discriminator 2)
    89d4:	aa1403e1 	mov	x1, x20
    89d8:	aa1903e0 	mov	x0, x25
    89dc:	97fff570 	bl	5f9c <mbedtls_mpi_copy>
    89e0:	2a0003e1 	mov	w1, w0
    89e4:	35000a00 	cbnz	w0, 8b24 <mbedtls_mpi_inv_mod+0x25c>
/home/jayanth/quemu-v8/source/optee_os/lib/libmbedtls/mbedtls/library/bignum.c:2442 (discriminator 2)
    89e8:	52800021 	mov	w1, #0x1                   	// #1
    89ec:	aa1703e0 	mov	x0, x23
    89f0:	97fff618 	bl	6250 <mbedtls_mpi_lset>
    89f4:	2a0003e1 	mov	w1, w0
    89f8:	35000960 	cbnz	w0, 8b24 <mbedtls_mpi_inv_mod+0x25c>
/home/jayanth/quemu-v8/source/optee_os/lib/libmbedtls/mbedtls/library/bignum.c:2443 (discriminator 2)
    89fc:	aa1603e0 	mov	x0, x22
    8a00:	97fff614 	bl	6250 <mbedtls_mpi_lset>
    8a04:	2a0003e1 	mov	w1, w0
    8a08:	350008e0 	cbnz	w0, 8b24 <mbedtls_mpi_inv_mod+0x25c>
/home/jayanth/quemu-v8/source/optee_os/lib/libmbedtls/mbedtls/library/bignum.c:2444 (discriminator 2)
    8a0c:	aa1303e0 	mov	x0, x19
    8a10:	97fff610 	bl	6250 <mbedtls_mpi_lset>
    8a14:	2a0003e1 	mov	w1, w0
    8a18:	35000860 	cbnz	w0, 8b24 <mbedtls_mpi_inv_mod+0x25c>
/home/jayanth/quemu-v8/source/optee_os/lib/libmbedtls/mbedtls/library/bignum.c:2445 (discriminator 2)
    8a1c:	aa1503e0 	mov	x0, x21
    8a20:	52800021 	mov	w1, #0x1                   	// #1
    8a24:	97fff60b 	bl	6250 <mbedtls_mpi_lset>
/home/jayanth/quemu-v8/source/optee_os/lib/libmbedtls/mbedtls/library/bignum.c:2460 (discriminator 2)
    8a28:	2a0003e1 	mov	w1, w0
    8a2c:	350007c0 	cbnz	w0, 8b24 <mbedtls_mpi_inv_mod+0x25c>
/home/jayanth/quemu-v8/source/optee_os/lib/libmbedtls/mbedtls/library/bignum.c:2449 (discriminator 2)
    8a30:	f9405fe0 	ldr	x0, [sp, #184]
    8a34:	b9400000 	ldr	w0, [x0]
    8a38:	36000560 	tbz	w0, #0, 8ae4 <mbedtls_mpi_inv_mod+0x21c>
/home/jayanth/quemu-v8/source/optee_os/lib/libmbedtls/mbedtls/library/bignum.c:2463 (discriminator 2)
    8a3c:	f9408fe0 	ldr	x0, [sp, #280]
    8a40:	b9400000 	ldr	w0, [x0]
    8a44:	36000ca0 	tbz	w0, #0, 8bd8 <mbedtls_mpi_inv_mod+0x310>
/home/jayanth/quemu-v8/source/optee_os/lib/libmbedtls/mbedtls/library/bignum.c:2477
    8a48:	aa1903e1 	mov	x1, x25
    8a4c:	aa1803e0 	mov	x0, x24
    8a50:	97fff7d0 	bl	6990 <mbedtls_mpi_cmp_mpi>
    8a54:	37f81080 	tbnz	w0, #31, 8c64 <mbedtls_mpi_inv_mod+0x39c>
/home/jayanth/quemu-v8/source/optee_os/lib/libmbedtls/mbedtls/library/bignum.c:2479
    8a58:	aa1803e1 	mov	x1, x24
    8a5c:	aa1903e2 	mov	x2, x25
    8a60:	aa1803e0 	mov	x0, x24
    8a64:	97fff8e2 	bl	6dec <mbedtls_mpi_sub_mpi>
    8a68:	2a0003e1 	mov	w1, w0
    8a6c:	350005c0 	cbnz	w0, 8b24 <mbedtls_mpi_inv_mod+0x25c>
/home/jayanth/quemu-v8/source/optee_os/lib/libmbedtls/mbedtls/library/bignum.c:2480 (discriminator 2)
    8a70:	aa1703e1 	mov	x1, x23
    8a74:	aa1303e2 	mov	x2, x19
    8a78:	aa1703e0 	mov	x0, x23
    8a7c:	97fff8dc 	bl	6dec <mbedtls_mpi_sub_mpi>
    8a80:	2a0003e1 	mov	w1, w0
    8a84:	35000500 	cbnz	w0, 8b24 <mbedtls_mpi_inv_mod+0x25c>
/home/jayanth/quemu-v8/source/optee_os/lib/libmbedtls/mbedtls/library/bignum.c:2481 (discriminator 2)
    8a88:	aa1503e2 	mov	x2, x21
    8a8c:	aa1603e1 	mov	x1, x22
    8a90:	aa1603e0 	mov	x0, x22
    8a94:	97fff8d6 	bl	6dec <mbedtls_mpi_sub_mpi>
    8a98:	2a0003e1 	mov	w1, w0
    8a9c:	35000440 	cbnz	w0, 8b24 <mbedtls_mpi_inv_mod+0x25c>
/home/jayanth/quemu-v8/source/optee_os/lib/libmbedtls/mbedtls/library/bignum.c:2490
    8aa0:	aa1803e0 	mov	x0, x24
    8aa4:	52800001 	mov	w1, #0x0                   	// #0
    8aa8:	97fff822 	bl	6b30 <mbedtls_mpi_cmp_int>
    8aac:	35fffc20 	cbnz	w0, 8a30 <mbedtls_mpi_inv_mod+0x168>
/home/jayanth/quemu-v8/source/optee_os/lib/libmbedtls/mbedtls/library/bignum.c:2492 (discriminator 2)
    8ab0:	aa1303e0 	mov	x0, x19
    8ab4:	52800001 	mov	w1, #0x0                   	// #0
    8ab8:	97fff81e 	bl	6b30 <mbedtls_mpi_cmp_int>
    8abc:	37f80f40 	tbnz	w0, #31, 8ca4 <mbedtls_mpi_inv_mod+0x3dc>
/home/jayanth/quemu-v8/source/optee_os/lib/libmbedtls/mbedtls/library/bignum.c:2495 (discriminator 2)
    8ac0:	aa1403e1 	mov	x1, x20
    8ac4:	aa1303e0 	mov	x0, x19
    8ac8:	97fff7b2 	bl	6990 <mbedtls_mpi_cmp_mpi>
    8acc:	36f80fa0 	tbz	w0, #31, 8cc0 <mbedtls_mpi_inv_mod+0x3f8>
/home/jayanth/quemu-v8/source/optee_os/lib/libmbedtls/mbedtls/library/bignum.c:2498
    8ad0:	f94037e0 	ldr	x0, [sp, #104]
    8ad4:	aa1303e1 	mov	x1, x19
    8ad8:	97fff531 	bl	5f9c <mbedtls_mpi_copy>
    8adc:	2a0003e1 	mov	w1, w0
/home/jayanth/quemu-v8/source/optee_os/lib/libmbedtls/mbedtls/library/bignum.c:2500
    8ae0:	14000011 	b	8b24 <mbedtls_mpi_inv_mod+0x25c>
/home/jayanth/quemu-v8/source/optee_os/lib/libmbedtls/mbedtls/library/bignum.c:2451
    8ae4:	d2800021 	mov	x1, #0x1                   	// #1
    8ae8:	aa1803e0 	mov	x0, x24
    8aec:	97fff752 	bl	6834 <mbedtls_mpi_shift_r>
    8af0:	2a0003e1 	mov	w1, w0
    8af4:	35000180 	cbnz	w0, 8b24 <mbedtls_mpi_inv_mod+0x25c>
/home/jayanth/quemu-v8/source/optee_os/lib/libmbedtls/mbedtls/library/bignum.c:2453 (discriminator 2)
    8af8:	f9406be0 	ldr	x0, [sp, #208]
    8afc:	b9400000 	ldr	w0, [x0]
    8b00:	370004a0 	tbnz	w0, #0, 8b94 <mbedtls_mpi_inv_mod+0x2cc>
/home/jayanth/quemu-v8/source/optee_os/lib/libmbedtls/mbedtls/library/bignum.c:2453 (discriminator 1)
    8b04:	f94077e0 	ldr	x0, [sp, #232]
    8b08:	b9400000 	ldr	w0, [x0]
    8b0c:	37000440 	tbnz	w0, #0, 8b94 <mbedtls_mpi_inv_mod+0x2cc>
/home/jayanth/quemu-v8/source/optee_os/lib/libmbedtls/mbedtls/library/bignum.c:2459
    8b10:	d2800021 	mov	x1, #0x1                   	// #1
    8b14:	aa1703e0 	mov	x0, x23
    8b18:	97fff747 	bl	6834 <mbedtls_mpi_shift_r>
    8b1c:	2a0003e1 	mov	w1, w0
    8b20:	34000540 	cbz	w0, 8bc8 <mbedtls_mpi_inv_mod+0x300>
/home/jayanth/quemu-v8/source/optee_os/lib/libmbedtls/mbedtls/library/bignum.c:2502 (discriminator 3)
    8b24:	aa1a03e0 	mov	x0, x26
    8b28:	b90063e1 	str	w1, [sp, #96]
    8b2c:	97fff47f 	bl	5d28 <mbedtls_mpi_free>
    8b30:	aa1803e0 	mov	x0, x24
    8b34:	97fff47d 	bl	5d28 <mbedtls_mpi_free>
    8b38:	aa1703e0 	mov	x0, x23
    8b3c:	97fff47b 	bl	5d28 <mbedtls_mpi_free>
    8b40:	aa1603e0 	mov	x0, x22
    8b44:	97fff479 	bl	5d28 <mbedtls_mpi_free>
/home/jayanth/quemu-v8/source/optee_os/lib/libmbedtls/mbedtls/library/bignum.c:2503 (discriminator 3)
    8b48:	aa1c03e0 	mov	x0, x28
    8b4c:	97fff477 	bl	5d28 <mbedtls_mpi_free>
    8b50:	aa1b03e0 	mov	x0, x27
    8b54:	97fff475 	bl	5d28 <mbedtls_mpi_free>
    8b58:	aa1903e0 	mov	x0, x25
    8b5c:	97fff473 	bl	5d28 <mbedtls_mpi_free>
/home/jayanth/quemu-v8/source/optee_os/lib/libmbedtls/mbedtls/library/bignum.c:2504 (discriminator 3)
    8b60:	aa1303e0 	mov	x0, x19
    8b64:	97fff471 	bl	5d28 <mbedtls_mpi_free>
    8b68:	aa1503e0 	mov	x0, x21
    8b6c:	97fff46f 	bl	5d28 <mbedtls_mpi_free>
/home/jayanth/quemu-v8/source/optee_os/lib/libmbedtls/mbedtls/library/bignum.c:2506 (discriminator 3)
    8b70:	b94063e1 	ldr	w1, [sp, #96]
/home/jayanth/quemu-v8/source/optee_os/lib/libmbedtls/mbedtls/library/bignum.c:2507
    8b74:	2a0103e0 	mov	w0, w1
    8b78:	a94153f3 	ldp	x19, x20, [sp, #16]
    8b7c:	a9425bf5 	ldp	x21, x22, [sp, #32]
    8b80:	a94363f7 	ldp	x23, x24, [sp, #48]
    8b84:	a9446bf9 	ldp	x25, x26, [sp, #64]
    8b88:	a94573fb 	ldp	x27, x28, [sp, #80]
    8b8c:	a8d57bfd 	ldp	x29, x30, [sp], #336
    8b90:	d65f03c0 	ret
/home/jayanth/quemu-v8/source/optee_os/lib/libmbedtls/mbedtls/library/bignum.c:2455
    8b94:	aa1703e1 	mov	x1, x23
    8b98:	aa1b03e2 	mov	x2, x27
    8b9c:	aa1703e0 	mov	x0, x23
    8ba0:	97fff871 	bl	6d64 <mbedtls_mpi_add_mpi>
    8ba4:	2a0003e1 	mov	w1, w0
    8ba8:	35fffbe0 	cbnz	w0, 8b24 <mbedtls_mpi_inv_mod+0x25c>
/home/jayanth/quemu-v8/source/optee_os/lib/libmbedtls/mbedtls/library/bignum.c:2456 (discriminator 2)
    8bac:	aa1603e1 	mov	x1, x22
    8bb0:	aa1a03e2 	mov	x2, x26
    8bb4:	aa1603e0 	mov	x0, x22
    8bb8:	97fff88d 	bl	6dec <mbedtls_mpi_sub_mpi>
    8bbc:	2a0003e1 	mov	w1, w0
    8bc0:	34fffa80 	cbz	w0, 8b10 <mbedtls_mpi_inv_mod+0x248>
    8bc4:	17ffffd8 	b	8b24 <mbedtls_mpi_inv_mod+0x25c>
/home/jayanth/quemu-v8/source/optee_os/lib/libmbedtls/mbedtls/library/bignum.c:2460 (discriminator 2)
    8bc8:	aa1603e0 	mov	x0, x22
    8bcc:	d2800021 	mov	x1, #0x1                   	// #1
    8bd0:	97fff719 	bl	6834 <mbedtls_mpi_shift_r>
    8bd4:	17ffff95 	b	8a28 <mbedtls_mpi_inv_mod+0x160>
/home/jayanth/quemu-v8/source/optee_os/lib/libmbedtls/mbedtls/library/bignum.c:2465
    8bd8:	d2800021 	mov	x1, #0x1                   	// #1
    8bdc:	aa1903e0 	mov	x0, x25
    8be0:	97fff715 	bl	6834 <mbedtls_mpi_shift_r>
    8be4:	2a0003e1 	mov	w1, w0
    8be8:	35fff9e0 	cbnz	w0, 8b24 <mbedtls_mpi_inv_mod+0x25c>
/home/jayanth/quemu-v8/source/optee_os/lib/libmbedtls/mbedtls/library/bignum.c:2467 (discriminator 2)
    8bec:	f9409be0 	ldr	x0, [sp, #304]
    8bf0:	b9400000 	ldr	w0, [x0]
    8bf4:	370001e0 	tbnz	w0, #0, 8c30 <mbedtls_mpi_inv_mod+0x368>
/home/jayanth/quemu-v8/source/optee_os/lib/libmbedtls/mbedtls/library/bignum.c:2467 (discriminator 1)
    8bf8:	f940a7e0 	ldr	x0, [sp, #328]
    8bfc:	b9400000 	ldr	w0, [x0]
    8c00:	37000180 	tbnz	w0, #0, 8c30 <mbedtls_mpi_inv_mod+0x368>
/home/jayanth/quemu-v8/source/optee_os/lib/libmbedtls/mbedtls/library/bignum.c:2473
    8c04:	d2800021 	mov	x1, #0x1                   	// #1
    8c08:	aa1303e0 	mov	x0, x19
    8c0c:	97fff70a 	bl	6834 <mbedtls_mpi_shift_r>
    8c10:	2a0003e1 	mov	w1, w0
    8c14:	35fff880 	cbnz	w0, 8b24 <mbedtls_mpi_inv_mod+0x25c>
/home/jayanth/quemu-v8/source/optee_os/lib/libmbedtls/mbedtls/library/bignum.c:2474 (discriminator 2)
    8c18:	d2800021 	mov	x1, #0x1                   	// #1
    8c1c:	aa1503e0 	mov	x0, x21
    8c20:	97fff705 	bl	6834 <mbedtls_mpi_shift_r>
    8c24:	2a0003e1 	mov	w1, w0
    8c28:	34fff0a0 	cbz	w0, 8a3c <mbedtls_mpi_inv_mod+0x174>
    8c2c:	17ffffbe 	b	8b24 <mbedtls_mpi_inv_mod+0x25c>
/home/jayanth/quemu-v8/source/optee_os/lib/libmbedtls/mbedtls/library/bignum.c:2469
    8c30:	aa1303e1 	mov	x1, x19
    8c34:	aa1b03e2 	mov	x2, x27
    8c38:	aa1303e0 	mov	x0, x19
    8c3c:	97fff84a 	bl	6d64 <mbedtls_mpi_add_mpi>
    8c40:	2a0003e1 	mov	w1, w0
    8c44:	35fff700 	cbnz	w0, 8b24 <mbedtls_mpi_inv_mod+0x25c>
/home/jayanth/quemu-v8/source/optee_os/lib/libmbedtls/mbedtls/library/bignum.c:2470 (discriminator 2)
    8c48:	aa1503e1 	mov	x1, x21
    8c4c:	aa1a03e2 	mov	x2, x26
    8c50:	aa1503e0 	mov	x0, x21
    8c54:	97fff866 	bl	6dec <mbedtls_mpi_sub_mpi>
    8c58:	2a0003e1 	mov	w1, w0
    8c5c:	34fffd40 	cbz	w0, 8c04 <mbedtls_mpi_inv_mod+0x33c>
    8c60:	17ffffb1 	b	8b24 <mbedtls_mpi_inv_mod+0x25c>
/home/jayanth/quemu-v8/source/optee_os/lib/libmbedtls/mbedtls/library/bignum.c:2485
    8c64:	aa1903e1 	mov	x1, x25
    8c68:	aa1803e2 	mov	x2, x24
    8c6c:	aa1903e0 	mov	x0, x25
    8c70:	97fff85f 	bl	6dec <mbedtls_mpi_sub_mpi>
    8c74:	2a0003e1 	mov	w1, w0
    8c78:	35fff560 	cbnz	w0, 8b24 <mbedtls_mpi_inv_mod+0x25c>
/home/jayanth/quemu-v8/source/optee_os/lib/libmbedtls/mbedtls/library/bignum.c:2486 (discriminator 2)
    8c7c:	aa1303e1 	mov	x1, x19
    8c80:	aa1703e2 	mov	x2, x23
    8c84:	aa1303e0 	mov	x0, x19
    8c88:	97fff859 	bl	6dec <mbedtls_mpi_sub_mpi>
    8c8c:	2a0003e1 	mov	w1, w0
    8c90:	35fff4a0 	cbnz	w0, 8b24 <mbedtls_mpi_inv_mod+0x25c>
/home/jayanth/quemu-v8/source/optee_os/lib/libmbedtls/mbedtls/library/bignum.c:2487 (discriminator 2)
    8c94:	aa1603e2 	mov	x2, x22
    8c98:	aa1503e1 	mov	x1, x21
    8c9c:	aa1503e0 	mov	x0, x21
    8ca0:	17ffff7d 	b	8a94 <mbedtls_mpi_inv_mod+0x1cc>
/home/jayanth/quemu-v8/source/optee_os/lib/libmbedtls/mbedtls/library/bignum.c:2493
    8ca4:	aa1303e1 	mov	x1, x19
    8ca8:	aa1403e2 	mov	x2, x20
    8cac:	aa1303e0 	mov	x0, x19
    8cb0:	97fff82d 	bl	6d64 <mbedtls_mpi_add_mpi>
    8cb4:	2a0003e1 	mov	w1, w0
    8cb8:	34ffefc0 	cbz	w0, 8ab0 <mbedtls_mpi_inv_mod+0x1e8>
    8cbc:	17ffff9a 	b	8b24 <mbedtls_mpi_inv_mod+0x25c>
/home/jayanth/quemu-v8/source/optee_os/lib/libmbedtls/mbedtls/library/bignum.c:2496
    8cc0:	aa1303e1 	mov	x1, x19
    8cc4:	aa1403e2 	mov	x2, x20
    8cc8:	aa1303e0 	mov	x0, x19
    8ccc:	97fff848 	bl	6dec <mbedtls_mpi_sub_mpi>
    8cd0:	2a0003e1 	mov	w1, w0
    8cd4:	34ffef60 	cbz	w0, 8ac0 <mbedtls_mpi_inv_mod+0x1f8>
    8cd8:	17ffff93 	b	8b24 <mbedtls_mpi_inv_mod+0x25c>
/home/jayanth/quemu-v8/source/optee_os/lib/libmbedtls/mbedtls/library/bignum.c:2433
    8cdc:	128001a1 	mov	w1, #0xfffffff2            	// #-14
    8ce0:	17ffff91 	b	8b24 <mbedtls_mpi_inv_mod+0x25c>
/home/jayanth/quemu-v8/source/optee_os/lib/libmbedtls/mbedtls/library/bignum.c:2421
    8ce4:	12800061 	mov	w1, #0xfffffffc            	// #-4
    8ce8:	17ffffa3 	b	8b74 <mbedtls_mpi_inv_mod+0x2ac>

0000000000008cec <mbedtls_mpi_is_prime_ext>:
mbedtls_mpi_is_prime_ext():
/home/jayanth/quemu-v8/source/optee_os/lib/libmbedtls/mbedtls/library/bignum.c:2668
    8cec:	a9bb7bfd 	stp	x29, x30, [sp, #-80]!
    8cf0:	910003fd 	mov	x29, sp
    8cf4:	a90153f3 	stp	x19, x20, [sp, #16]
    8cf8:	2a0103f4 	mov	w20, w1
/home/jayanth/quemu-v8/source/optee_os/lib/libmbedtls/mbedtls/library/bignum.c:2674
    8cfc:	52800021 	mov	w1, #0x1                   	// #1
    8d00:	790073e1 	strh	w1, [sp, #56]
/home/jayanth/quemu-v8/source/optee_os/lib/libmbedtls/mbedtls/library/bignum.c:2678
    8d04:	9100e3f3 	add	x19, sp, #0x38
/home/jayanth/quemu-v8/source/optee_os/lib/libmbedtls/mbedtls/library/bignum.c:2676
    8d08:	a9408001 	ldp	x1, x0, [x0, #8]
/home/jayanth/quemu-v8/source/optee_os/lib/libmbedtls/mbedtls/library/bignum.c:2668
    8d0c:	a9025bf5 	stp	x21, x22, [sp, #32]
    8d10:	aa0203f5 	mov	x21, x2
    8d14:	aa0303f6 	mov	x22, x3
/home/jayanth/quemu-v8/source/optee_os/lib/libmbedtls/mbedtls/library/bignum.c:2676
    8d18:	a90403e1 	stp	x1, x0, [sp, #64]
/home/jayanth/quemu-v8/source/optee_os/lib/libmbedtls/mbedtls/library/bignum.c:2678
    8d1c:	aa1303e0 	mov	x0, x19
    8d20:	52800001 	mov	w1, #0x0                   	// #0
    8d24:	97fff783 	bl	6b30 <mbedtls_mpi_cmp_int>
    8d28:	350000c0 	cbnz	w0, 8d40 <mbedtls_mpi_is_prime_ext+0x54>
/home/jayanth/quemu-v8/source/optee_os/lib/libmbedtls/mbedtls/library/bignum.c:2680
    8d2c:	128001a0 	mov	w0, #0xfffffff2            	// #-14
/home/jayanth/quemu-v8/source/optee_os/lib/libmbedtls/mbedtls/library/bignum.c:2694
    8d30:	a94153f3 	ldp	x19, x20, [sp, #16]
    8d34:	a9425bf5 	ldp	x21, x22, [sp, #32]
    8d38:	a8c57bfd 	ldp	x29, x30, [sp], #80
    8d3c:	d65f03c0 	ret
/home/jayanth/quemu-v8/source/optee_os/lib/libmbedtls/mbedtls/library/bignum.c:2679 (discriminator 1)
    8d40:	aa1303e0 	mov	x0, x19
    8d44:	52800021 	mov	w1, #0x1                   	// #1
    8d48:	97fff77a 	bl	6b30 <mbedtls_mpi_cmp_int>
/home/jayanth/quemu-v8/source/optee_os/lib/libmbedtls/mbedtls/library/bignum.c:2678 (discriminator 1)
    8d4c:	34ffff00 	cbz	w0, 8d2c <mbedtls_mpi_is_prime_ext+0x40>
/home/jayanth/quemu-v8/source/optee_os/lib/libmbedtls/mbedtls/library/bignum.c:2682
    8d50:	aa1303e0 	mov	x0, x19
    8d54:	52800041 	mov	w1, #0x2                   	// #2
    8d58:	97fff776 	bl	6b30 <mbedtls_mpi_cmp_int>
    8d5c:	340000c0 	cbz	w0, 8d74 <mbedtls_mpi_is_prime_ext+0x88>
/home/jayanth/quemu-v8/source/optee_os/lib/libmbedtls/mbedtls/library/bignum.c:2685
    8d60:	aa1303e0 	mov	x0, x19
    8d64:	97fffb72 	bl	7b2c <mpi_check_small_factors>
    8d68:	340000a0 	cbz	w0, 8d7c <mbedtls_mpi_is_prime_ext+0x90>
/home/jayanth/quemu-v8/source/optee_os/lib/libmbedtls/mbedtls/library/bignum.c:2687
    8d6c:	7100041f 	cmp	w0, #0x1
    8d70:	54fffe01 	b.ne	8d30 <mbedtls_mpi_is_prime_ext+0x44>  // b.any
/home/jayanth/quemu-v8/source/optee_os/lib/libmbedtls/mbedtls/library/bignum.c:2688
    8d74:	52800000 	mov	w0, #0x0                   	// #0
    8d78:	17ffffee 	b	8d30 <mbedtls_mpi_is_prime_ext+0x44>
/home/jayanth/quemu-v8/source/optee_os/lib/libmbedtls/mbedtls/library/bignum.c:2693
    8d7c:	aa1603e3 	mov	x3, x22
    8d80:	aa1503e2 	mov	x2, x21
    8d84:	93407e81 	sxtw	x1, w20
    8d88:	aa1303e0 	mov	x0, x19
    8d8c:	97fffe33 	bl	8658 <mpi_miller_rabin>
    8d90:	17ffffe8 	b	8d30 <mbedtls_mpi_is_prime_ext+0x44>

0000000000008d94 <mbedtls_mpi_is_prime>:
mbedtls_mpi_is_prime():
/home/jayanth/quemu-v8/source/optee_os/lib/libmbedtls/mbedtls/library/bignum.c:2712
    8d94:	aa0203e3 	mov	x3, x2
    8d98:	aa0103e2 	mov	x2, x1
    8d9c:	52800501 	mov	w1, #0x28                  	// #40
    8da0:	17ffffd3 	b	8cec <mbedtls_mpi_is_prime_ext>

0000000000008da4 <mbedtls_mpi_gen_prime>:
mbedtls_mpi_gen_prime():
/home/jayanth/quemu-v8/source/optee_os/lib/libmbedtls/mbedtls/library/bignum.c:2726
    8da4:	a9b77bfd 	stp	x29, x30, [sp, #-144]!
    8da8:	910003fd 	mov	x29, sp
    8dac:	a90153f3 	stp	x19, x20, [sp, #16]
    8db0:	aa0003f3 	mov	x19, x0
/home/jayanth/quemu-v8/source/optee_os/lib/libmbedtls/mbedtls/library/bignum.c:2743
    8db4:	d283ffa0 	mov	x0, #0x1ffd                	// #8189
/home/jayanth/quemu-v8/source/optee_os/lib/libmbedtls/mbedtls/library/bignum.c:2726
    8db8:	a9025bf5 	stp	x21, x22, [sp, #32]
    8dbc:	a90363f7 	stp	x23, x24, [sp, #48]
    8dc0:	a9046bf9 	stp	x25, x26, [sp, #64]
    8dc4:	a90573fb 	stp	x27, x28, [sp, #80]
    8dc8:	aa0103fc 	mov	x28, x1
/home/jayanth/quemu-v8/source/optee_os/lib/libmbedtls/mbedtls/library/bignum.c:2743
    8dcc:	d1000c21 	sub	x1, x1, #0x3
    8dd0:	eb00003f 	cmp	x1, x0
    8dd4:	54001708 	b.hi	90b4 <mbedtls_mpi_gen_prime+0x310>  // b.pmore
/home/jayanth/quemu-v8/source/optee_os/lib/libmbedtls/mbedtls/library/bignum.c:2746
    8dd8:	9101e3f4 	add	x20, sp, #0x78
    8ddc:	2a0203f8 	mov	w24, w2
    8de0:	aa1403e0 	mov	x0, x20
    8de4:	aa0303f6 	mov	x22, x3
    8de8:	aa0403f7 	mov	x23, x4
    8dec:	97fff3c5 	bl	5d00 <mbedtls_mpi_init_mempool>
/home/jayanth/quemu-v8/source/optee_os/lib/libmbedtls/mbedtls/library/bignum.c:2748
    8df0:	f240139f 	tst	x28, #0x1f
    8df4:	d345ff95 	lsr	x21, x28, #5
    8df8:	9a9506a0 	cinc	x0, x21, ne  // ne = any
/home/jayanth/quemu-v8/source/optee_os/lib/libmbedtls/mbedtls/library/bignum.c:2750
    8dfc:	37080d58 	tbnz	w24, #1, 8fa4 <mbedtls_mpi_gen_prime+0x200>
/home/jayanth/quemu-v8/source/optee_os/lib/libmbedtls/mbedtls/library/bignum.c:2755
    8e00:	f1144f9f 	cmp	x28, #0x513
    8e04:	54000f48 	b.hi	8fec <mbedtls_mpi_gen_prime+0x248>  // b.pmore
/home/jayanth/quemu-v8/source/optee_os/lib/libmbedtls/mbedtls/library/bignum.c:2755 (discriminator 1)
    8e08:	f10d479f 	cmp	x28, #0x351
    8e0c:	54000f48 	b.hi	8ff4 <mbedtls_mpi_gen_prime+0x250>  // b.pmore
/home/jayanth/quemu-v8/source/optee_os/lib/libmbedtls/mbedtls/library/bignum.c:2756
    8e10:	f10a279f 	cmp	x28, #0x289
    8e14:	54000f88 	b.hi	9004 <mbedtls_mpi_gen_prime+0x260>  // b.pmore
/home/jayanth/quemu-v8/source/optee_os/lib/libmbedtls/mbedtls/library/bignum.c:2756 (discriminator 1)
    8e18:	f105779f 	cmp	x28, #0x15d
    8e1c:	54001048 	b.hi	9024 <mbedtls_mpi_gen_prime+0x280>  // b.pmore
/home/jayanth/quemu-v8/source/optee_os/lib/libmbedtls/mbedtls/library/bignum.c:2757
    8e20:	f103e79f 	cmp	x28, #0xf9
    8e24:	54000ec8 	b.hi	8ffc <mbedtls_mpi_gen_prime+0x258>  // b.pmore
/home/jayanth/quemu-v8/source/optee_os/lib/libmbedtls/mbedtls/library/bignum.c:2757 (discriminator 1)
    8e28:	f102579f 	cmp	x28, #0x95
    8e2c:	52800255 	mov	w21, #0x12                  	// #18
    8e30:	52800361 	mov	w1, #0x1b                  	// #27
/home/jayanth/quemu-v8/source/optee_os/lib/libmbedtls/mbedtls/library/bignum.c:2768 (discriminator 1)
    8e34:	1a8182ba 	csel	w26, w21, w1, hi  // hi = pmore
/home/jayanth/quemu-v8/source/optee_os/lib/libmbedtls/mbedtls/library/bignum.c:2777
    8e38:	d37be815 	lsl	x21, x0, #5
/home/jayanth/quemu-v8/source/optee_os/lib/libmbedtls/mbedtls/library/bignum.c:2773
    8e3c:	d37ef419 	lsl	x25, x0, #2
/home/jayanth/quemu-v8/source/optee_os/lib/libmbedtls/mbedtls/library/bignum.c:2778
    8e40:	cb1c02bb 	sub	x27, x21, x28
/home/jayanth/quemu-v8/source/optee_os/lib/libmbedtls/mbedtls/library/bignum.c:2781
    8e44:	12000318 	and	w24, w24, #0x1
/home/jayanth/quemu-v8/source/optee_os/lib/libmbedtls/mbedtls/library/bignum.c:2775
    8e48:	d1001321 	sub	x1, x25, #0x4
    8e4c:	f90037e1 	str	x1, [sp, #104]
/home/jayanth/quemu-v8/source/optee_os/lib/libmbedtls/mbedtls/library/bignum.c:2773
    8e50:	aa1603e2 	mov	x2, x22
    8e54:	aa1703e3 	mov	x3, x23
    8e58:	aa1903e1 	mov	x1, x25
    8e5c:	aa1303e0 	mov	x0, x19
    8e60:	97fffdcf 	bl	859c <mbedtls_mpi_fill_random>
    8e64:	2a0003e2 	mov	w2, w0
    8e68:	35000f40 	cbnz	w0, 9050 <mbedtls_mpi_gen_prime+0x2ac>
/home/jayanth/quemu-v8/source/optee_os/lib/libmbedtls/mbedtls/library/bignum.c:2775 (discriminator 2)
    8e6c:	f9400a60 	ldr	x0, [x19, #16]
    8e70:	f94037e1 	ldr	x1, [sp, #104]
    8e74:	b8616800 	ldr	w0, [x0, x1]
    8e78:	529e6661 	mov	w1, #0xf333                	// #62259
    8e7c:	72b6a081 	movk	w1, #0xb504, lsl #16
    8e80:	6b01001f 	cmp	w0, w1
    8e84:	54fffe69 	b.ls	8e50 <mbedtls_mpi_gen_prime+0xac>  // b.plast
/home/jayanth/quemu-v8/source/optee_os/lib/libmbedtls/mbedtls/library/bignum.c:2778
    8e88:	eb15039f 	cmp	x28, x21
    8e8c:	54000d83 	b.cc	903c <mbedtls_mpi_gen_prime+0x298>  // b.lo, b.ul, b.last
/home/jayanth/quemu-v8/source/optee_os/lib/libmbedtls/mbedtls/library/bignum.c:2779
    8e90:	f9400a61 	ldr	x1, [x19, #16]
    8e94:	b9400020 	ldr	w0, [x1]
    8e98:	32000002 	orr	w2, w0, #0x1
    8e9c:	b9000022 	str	w2, [x1]
/home/jayanth/quemu-v8/source/optee_os/lib/libmbedtls/mbedtls/library/bignum.c:2781
    8ea0:	34000f18 	cbz	w24, 9080 <mbedtls_mpi_gen_prime+0x2dc>
/home/jayanth/quemu-v8/source/optee_os/lib/libmbedtls/mbedtls/library/bignum.c:2796
    8ea4:	32000400 	orr	w0, w0, #0x3
    8ea8:	b9000020 	str	w0, [x1]
/home/jayanth/quemu-v8/source/optee_os/lib/libmbedtls/mbedtls/library/bignum.c:2798
    8eac:	52800062 	mov	w2, #0x3                   	// #3
    8eb0:	aa1303e1 	mov	x1, x19
    8eb4:	9101d3e0 	add	x0, sp, #0x74
    8eb8:	97fffa66 	bl	7850 <mbedtls_mpi_mod_int>
    8ebc:	2a0003e2 	mov	w2, w0
    8ec0:	35000c80 	cbnz	w0, 9050 <mbedtls_mpi_gen_prime+0x2ac>
/home/jayanth/quemu-v8/source/optee_os/lib/libmbedtls/mbedtls/library/bignum.c:2799 (discriminator 2)
    8ec4:	b94077e0 	ldr	w0, [sp, #116]
    8ec8:	35000ee0 	cbnz	w0, 90a4 <mbedtls_mpi_gen_prime+0x300>
/home/jayanth/quemu-v8/source/optee_os/lib/libmbedtls/mbedtls/library/bignum.c:2800
    8ecc:	52800102 	mov	w2, #0x8                   	// #8
    8ed0:	aa1303e1 	mov	x1, x19
    8ed4:	aa1303e0 	mov	x0, x19
    8ed8:	97fff7e8 	bl	6e78 <mbedtls_mpi_add_int>
    8edc:	2a0003e2 	mov	w2, w0
    8ee0:	35000b80 	cbnz	w0, 9050 <mbedtls_mpi_gen_prime+0x2ac>
/home/jayanth/quemu-v8/source/optee_os/lib/libmbedtls/mbedtls/library/bignum.c:2805
    8ee4:	aa1303e1 	mov	x1, x19
    8ee8:	aa1403e0 	mov	x0, x20
    8eec:	97fff42c 	bl	5f9c <mbedtls_mpi_copy>
    8ef0:	2a0003e2 	mov	w2, w0
    8ef4:	35000ae0 	cbnz	w0, 9050 <mbedtls_mpi_gen_prime+0x2ac>
/home/jayanth/quemu-v8/source/optee_os/lib/libmbedtls/mbedtls/library/bignum.c:2806 (discriminator 2)
    8ef8:	aa1403e0 	mov	x0, x20
    8efc:	d2800021 	mov	x1, #0x1                   	// #1
    8f00:	97fff64d 	bl	6834 <mbedtls_mpi_shift_r>
    8f04:	2a0003e2 	mov	w2, w0
    8f08:	35000a40 	cbnz	w0, 9050 <mbedtls_mpi_gen_prime+0x2ac>
/home/jayanth/quemu-v8/source/optee_os/lib/libmbedtls/mbedtls/library/bignum.c:2816
    8f0c:	93407f55 	sxtw	x21, w26
/home/jayanth/quemu-v8/source/optee_os/lib/libmbedtls/mbedtls/library/bignum.c:2814 (discriminator 2)
    8f10:	aa1303e0 	mov	x0, x19
    8f14:	97fffb06 	bl	7b2c <mpi_check_small_factors>
    8f18:	2a0003e2 	mov	w2, w0
    8f1c:	35000260 	cbnz	w0, 8f68 <mbedtls_mpi_gen_prime+0x1c4>
/home/jayanth/quemu-v8/source/optee_os/lib/libmbedtls/mbedtls/library/bignum.c:2815 (discriminator 1)
    8f20:	aa1403e0 	mov	x0, x20
    8f24:	97fffb02 	bl	7b2c <mpi_check_small_factors>
    8f28:	2a0003e2 	mov	w2, w0
/home/jayanth/quemu-v8/source/optee_os/lib/libmbedtls/mbedtls/library/bignum.c:2814 (discriminator 1)
    8f2c:	350001e0 	cbnz	w0, 8f68 <mbedtls_mpi_gen_prime+0x1c4>
/home/jayanth/quemu-v8/source/optee_os/lib/libmbedtls/mbedtls/library/bignum.c:2816
    8f30:	aa1603e2 	mov	x2, x22
    8f34:	aa1703e3 	mov	x3, x23
    8f38:	aa1503e1 	mov	x1, x21
    8f3c:	aa1303e0 	mov	x0, x19
    8f40:	97fffdc6 	bl	8658 <mpi_miller_rabin>
    8f44:	2a0003e2 	mov	w2, w0
/home/jayanth/quemu-v8/source/optee_os/lib/libmbedtls/mbedtls/library/bignum.c:2815
    8f48:	35000100 	cbnz	w0, 8f68 <mbedtls_mpi_gen_prime+0x1c4>
/home/jayanth/quemu-v8/source/optee_os/lib/libmbedtls/mbedtls/library/bignum.c:2818
    8f4c:	aa1603e2 	mov	x2, x22
    8f50:	aa1703e3 	mov	x3, x23
    8f54:	aa1503e1 	mov	x1, x21
    8f58:	aa1403e0 	mov	x0, x20
    8f5c:	97fffdbf 	bl	8658 <mpi_miller_rabin>
    8f60:	2a0003e2 	mov	w2, w0
/home/jayanth/quemu-v8/source/optee_os/lib/libmbedtls/mbedtls/library/bignum.c:2817
    8f64:	34000760 	cbz	w0, 9050 <mbedtls_mpi_gen_prime+0x2ac>
/home/jayanth/quemu-v8/source/optee_os/lib/libmbedtls/mbedtls/library/bignum.c:2822
    8f68:	3100385f 	cmn	w2, #0xe
    8f6c:	54000721 	b.ne	9050 <mbedtls_mpi_gen_prime+0x2ac>  // b.any
/home/jayanth/quemu-v8/source/optee_os/lib/libmbedtls/mbedtls/library/bignum.c:2830
    8f70:	52800182 	mov	w2, #0xc                   	// #12
    8f74:	aa1303e1 	mov	x1, x19
    8f78:	aa1303e0 	mov	x0, x19
    8f7c:	97fff7bf 	bl	6e78 <mbedtls_mpi_add_int>
    8f80:	2a0003e2 	mov	w2, w0
    8f84:	35000660 	cbnz	w0, 9050 <mbedtls_mpi_gen_prime+0x2ac>
/home/jayanth/quemu-v8/source/optee_os/lib/libmbedtls/mbedtls/library/bignum.c:2831 (discriminator 2)
    8f88:	528000c2 	mov	w2, #0x6                   	// #6
    8f8c:	aa1403e1 	mov	x1, x20
    8f90:	aa1403e0 	mov	x0, x20
    8f94:	97fff7b9 	bl	6e78 <mbedtls_mpi_add_int>
    8f98:	2a0003e2 	mov	w2, w0
    8f9c:	34fffba0 	cbz	w0, 8f10 <mbedtls_mpi_gen_prime+0x16c>
    8fa0:	1400002c 	b	9050 <mbedtls_mpi_gen_prime+0x2ac>
/home/jayanth/quemu-v8/source/optee_os/lib/libmbedtls/mbedtls/library/bignum.c:2765
    8fa4:	f116a79f 	cmp	x28, #0x5a9
    8fa8:	540002e8 	b.hi	9004 <mbedtls_mpi_gen_prime+0x260>  // b.pmore
/home/jayanth/quemu-v8/source/optee_os/lib/libmbedtls/mbedtls/library/bignum.c:2765 (discriminator 1)
    8fac:	f111f79f 	cmp	x28, #0x47d
    8fb0:	540002e8 	b.hi	900c <mbedtls_mpi_gen_prime+0x268>  // b.pmore
/home/jayanth/quemu-v8/source/optee_os/lib/libmbedtls/mbedtls/library/bignum.c:2766
    8fb4:	f10f9f9f 	cmp	x28, #0x3e7
    8fb8:	540002e8 	b.hi	9014 <mbedtls_mpi_gen_prime+0x270>  // b.pmore
/home/jayanth/quemu-v8/source/optee_os/lib/libmbedtls/mbedtls/library/bignum.c:2766 (discriminator 1)
    8fbc:	f10d479f 	cmp	x28, #0x351
    8fc0:	540002e8 	b.hi	901c <mbedtls_mpi_gen_prime+0x278>  // b.pmore
/home/jayanth/quemu-v8/source/optee_os/lib/libmbedtls/mbedtls/library/bignum.c:2767
    8fc4:	f10bb79f 	cmp	x28, #0x2ed
    8fc8:	540002e8 	b.hi	9024 <mbedtls_mpi_gen_prime+0x280>  // b.pmore
/home/jayanth/quemu-v8/source/optee_os/lib/libmbedtls/mbedtls/library/bignum.c:2767 (discriminator 1)
    8fcc:	f107cf9f 	cmp	x28, #0x1f3
    8fd0:	540002e8 	b.hi	902c <mbedtls_mpi_gen_prime+0x288>  // b.pmore
/home/jayanth/quemu-v8/source/optee_os/lib/libmbedtls/mbedtls/library/bignum.c:2768
    8fd4:	f103e79f 	cmp	x28, #0xf9
    8fd8:	540002e8 	b.hi	9034 <mbedtls_mpi_gen_prime+0x290>  // b.pmore
/home/jayanth/quemu-v8/source/optee_os/lib/libmbedtls/mbedtls/library/bignum.c:2768 (discriminator 1)
    8fdc:	f102579f 	cmp	x28, #0x95
    8fe0:	52800515 	mov	w21, #0x28                  	// #40
    8fe4:	52800661 	mov	w1, #0x33                  	// #51
    8fe8:	17ffff93 	b	8e34 <mbedtls_mpi_gen_prime+0x90>
/home/jayanth/quemu-v8/source/optee_os/lib/libmbedtls/mbedtls/library/bignum.c:2755
    8fec:	5280005a 	mov	w26, #0x2                   	// #2
    8ff0:	17ffff92 	b	8e38 <mbedtls_mpi_gen_prime+0x94>
    8ff4:	5280007a 	mov	w26, #0x3                   	// #3
    8ff8:	17ffff90 	b	8e38 <mbedtls_mpi_gen_prime+0x94>
/home/jayanth/quemu-v8/source/optee_os/lib/libmbedtls/mbedtls/library/bignum.c:2757
    8ffc:	5280019a 	mov	w26, #0xc                   	// #12
    9000:	17ffff8e 	b	8e38 <mbedtls_mpi_gen_prime+0x94>
/home/jayanth/quemu-v8/source/optee_os/lib/libmbedtls/mbedtls/library/bignum.c:2756
    9004:	5280009a 	mov	w26, #0x4                   	// #4
    9008:	17ffff8c 	b	8e38 <mbedtls_mpi_gen_prime+0x94>
/home/jayanth/quemu-v8/source/optee_os/lib/libmbedtls/mbedtls/library/bignum.c:2765
    900c:	528000ba 	mov	w26, #0x5                   	// #5
    9010:	17ffff8a 	b	8e38 <mbedtls_mpi_gen_prime+0x94>
/home/jayanth/quemu-v8/source/optee_os/lib/libmbedtls/mbedtls/library/bignum.c:2766
    9014:	528000da 	mov	w26, #0x6                   	// #6
    9018:	17ffff88 	b	8e38 <mbedtls_mpi_gen_prime+0x94>
    901c:	528000fa 	mov	w26, #0x7                   	// #7
    9020:	17ffff86 	b	8e38 <mbedtls_mpi_gen_prime+0x94>
/home/jayanth/quemu-v8/source/optee_os/lib/libmbedtls/mbedtls/library/bignum.c:2756
    9024:	5280011a 	mov	w26, #0x8                   	// #8
    9028:	17ffff84 	b	8e38 <mbedtls_mpi_gen_prime+0x94>
/home/jayanth/quemu-v8/source/optee_os/lib/libmbedtls/mbedtls/library/bignum.c:2767
    902c:	528001ba 	mov	w26, #0xd                   	// #13
    9030:	17ffff82 	b	8e38 <mbedtls_mpi_gen_prime+0x94>
/home/jayanth/quemu-v8/source/optee_os/lib/libmbedtls/mbedtls/library/bignum.c:2768
    9034:	5280039a 	mov	w26, #0x1c                  	// #28
    9038:	17ffff80 	b	8e38 <mbedtls_mpi_gen_prime+0x94>
/home/jayanth/quemu-v8/source/optee_os/lib/libmbedtls/mbedtls/library/bignum.c:2778 (discriminator 1)
    903c:	aa1b03e1 	mov	x1, x27
    9040:	aa1303e0 	mov	x0, x19
    9044:	97fff5fc 	bl	6834 <mbedtls_mpi_shift_r>
    9048:	2a0003e2 	mov	w2, w0
    904c:	34fff220 	cbz	w0, 8e90 <mbedtls_mpi_gen_prime+0xec>
/home/jayanth/quemu-v8/source/optee_os/lib/libmbedtls/mbedtls/library/bignum.c:2838
    9050:	aa1403e0 	mov	x0, x20
    9054:	b9006be2 	str	w2, [sp, #104]
    9058:	97fff334 	bl	5d28 <mbedtls_mpi_free>
/home/jayanth/quemu-v8/source/optee_os/lib/libmbedtls/mbedtls/library/bignum.c:2840
    905c:	b9406be2 	ldr	w2, [sp, #104]
/home/jayanth/quemu-v8/source/optee_os/lib/libmbedtls/mbedtls/library/bignum.c:2841
    9060:	2a0203e0 	mov	w0, w2
    9064:	a94153f3 	ldp	x19, x20, [sp, #16]
    9068:	a9425bf5 	ldp	x21, x22, [sp, #32]
    906c:	a94363f7 	ldp	x23, x24, [sp, #48]
    9070:	a9446bf9 	ldp	x25, x26, [sp, #64]
    9074:	a94573fb 	ldp	x27, x28, [sp, #80]
    9078:	a8c97bfd 	ldp	x29, x30, [sp], #144
    907c:	d65f03c0 	ret
/home/jayanth/quemu-v8/source/optee_os/lib/libmbedtls/mbedtls/library/bignum.c:2783
    9080:	aa1603e2 	mov	x2, x22
    9084:	aa1703e3 	mov	x3, x23
    9088:	2a1a03e1 	mov	w1, w26
    908c:	aa1303e0 	mov	x0, x19
    9090:	97ffff17 	bl	8cec <mbedtls_mpi_is_prime_ext>
    9094:	2a0003e2 	mov	w2, w0
/home/jayanth/quemu-v8/source/optee_os/lib/libmbedtls/mbedtls/library/bignum.c:2785
    9098:	3100381f 	cmn	w0, #0xe
    909c:	54ffeda0 	b.eq	8e50 <mbedtls_mpi_gen_prime+0xac>  // b.none
    90a0:	17ffffec 	b	9050 <mbedtls_mpi_gen_prime+0x2ac>
/home/jayanth/quemu-v8/source/optee_os/lib/libmbedtls/mbedtls/library/bignum.c:2801
    90a4:	7100041f 	cmp	w0, #0x1
    90a8:	54fff1e1 	b.ne	8ee4 <mbedtls_mpi_gen_prime+0x140>  // b.any
/home/jayanth/quemu-v8/source/optee_os/lib/libmbedtls/mbedtls/library/bignum.c:2802
    90ac:	52800082 	mov	w2, #0x4                   	// #4
    90b0:	17ffff88 	b	8ed0 <mbedtls_mpi_gen_prime+0x12c>
/home/jayanth/quemu-v8/source/optee_os/lib/libmbedtls/mbedtls/library/bignum.c:2744
    90b4:	12800062 	mov	w2, #0xfffffffc            	// #-4
    90b8:	17ffffea 	b	9060 <mbedtls_mpi_gen_prime+0x2bc>

00000000000090bc <mbedtls_mpi_self_test>:
mbedtls_mpi_self_test():
/home/jayanth/quemu-v8/source/optee_os/lib/libmbedtls/mbedtls/library/bignum.c:2860
    90bc:	a9ae7bfd 	stp	x29, x30, [sp, #-288]!
    90c0:	910003fd 	mov	x29, sp
    90c4:	a9025bf5 	stp	x21, x22, [sp, #32]
/home/jayanth/quemu-v8/source/optee_os/lib/libmbedtls/mbedtls/library/bignum.c:2864
    90c8:	9101e3f6 	add	x22, sp, #0x78
/home/jayanth/quemu-v8/source/optee_os/lib/libmbedtls/mbedtls/library/bignum.c:2866
    90cc:	9103c3f5 	add	x21, sp, #0xf0
/home/jayanth/quemu-v8/source/optee_os/lib/libmbedtls/mbedtls/library/bignum.c:2860
    90d0:	a90153f3 	stp	x19, x20, [sp, #16]
    90d4:	2a0003f3 	mov	w19, w0
/home/jayanth/quemu-v8/source/optee_os/lib/libmbedtls/mbedtls/library/bignum.c:2864
    90d8:	aa1603e0 	mov	x0, x22
/home/jayanth/quemu-v8/source/optee_os/lib/libmbedtls/mbedtls/library/bignum.c:2860
    90dc:	a90363f7 	stp	x23, x24, [sp, #48]
/home/jayanth/quemu-v8/source/optee_os/lib/libmbedtls/mbedtls/library/bignum.c:2865
    90e0:	9102a3f8 	add	x24, sp, #0xa8
    90e4:	910303f4 	add	x20, sp, #0xc0
/home/jayanth/quemu-v8/source/optee_os/lib/libmbedtls/mbedtls/library/bignum.c:2860
    90e8:	a9046bf9 	stp	x25, x26, [sp, #64]
/home/jayanth/quemu-v8/source/optee_os/lib/libmbedtls/mbedtls/library/bignum.c:2866
    90ec:	910363fa 	add	x26, sp, #0xd8
/home/jayanth/quemu-v8/source/optee_os/lib/libmbedtls/mbedtls/library/bignum.c:2860
    90f0:	a90573fb 	stp	x27, x28, [sp, #80]
/home/jayanth/quemu-v8/source/optee_os/lib/libmbedtls/mbedtls/library/bignum.c:2864
    90f4:	97fff303 	bl	5d00 <mbedtls_mpi_init_mempool>
    90f8:	910243fc 	add	x28, sp, #0x90
    90fc:	aa1c03e0 	mov	x0, x28
    9100:	97fff300 	bl	5d00 <mbedtls_mpi_init_mempool>
/home/jayanth/quemu-v8/source/optee_os/lib/libmbedtls/mbedtls/library/bignum.c:2865
    9104:	aa1803e0 	mov	x0, x24
    9108:	97fff2fe 	bl	5d00 <mbedtls_mpi_init_mempool>
    910c:	aa1403e0 	mov	x0, x20
    9110:	97fff2fc 	bl	5d00 <mbedtls_mpi_init_mempool>
/home/jayanth/quemu-v8/source/optee_os/lib/libmbedtls/mbedtls/library/bignum.c:2866
    9114:	aa1a03e0 	mov	x0, x26
    9118:	97fff2fa 	bl	5d00 <mbedtls_mpi_init_mempool>
    911c:	aa1503e0 	mov	x0, x21
/home/jayanth/quemu-v8/source/optee_os/lib/libmbedtls/mbedtls/library/bignum.c:2867
    9120:	910423fb 	add	x27, sp, #0x108
/home/jayanth/quemu-v8/source/optee_os/lib/libmbedtls/mbedtls/library/bignum.c:2866
    9124:	97fff2f7 	bl	5d00 <mbedtls_mpi_init_mempool>
/home/jayanth/quemu-v8/source/optee_os/lib/libmbedtls/mbedtls/library/bignum.c:2867
    9128:	aa1b03e0 	mov	x0, x27
    912c:	97fff2f5 	bl	5d00 <mbedtls_mpi_init_mempool>
/home/jayanth/quemu-v8/source/optee_os/lib/libmbedtls/mbedtls/library/bignum.c:2869
    9130:	aa1603e0 	mov	x0, x22
    9134:	f0000002 	adrp	x2, c000 <__func__.4194+0x3e3>
    9138:	52800201 	mov	w1, #0x10                  	// #16
    913c:	91108442 	add	x2, x2, #0x421
    9140:	97fff7ce 	bl	7078 <mbedtls_mpi_read_string>
    9144:	2a0003f7 	mov	w23, w0
    9148:	350004c0 	cbnz	w0, 91e0 <mbedtls_mpi_self_test+0x124>
/home/jayanth/quemu-v8/source/optee_os/lib/libmbedtls/mbedtls/library/bignum.c:2875 (discriminator 2)
    914c:	aa1c03e0 	mov	x0, x28
    9150:	f0000002 	adrp	x2, c000 <__func__.4194+0x3e3>
    9154:	52800201 	mov	w1, #0x10                  	// #16
    9158:	91128842 	add	x2, x2, #0x4a2
    915c:	97fff7c7 	bl	7078 <mbedtls_mpi_read_string>
    9160:	2a0003f7 	mov	w23, w0
    9164:	350003e0 	cbnz	w0, 91e0 <mbedtls_mpi_self_test+0x124>
/home/jayanth/quemu-v8/source/optee_os/lib/libmbedtls/mbedtls/library/bignum.c:2881 (discriminator 2)
    9168:	aa1803e0 	mov	x0, x24
    916c:	f0000002 	adrp	x2, c000 <__func__.4194+0x3e3>
    9170:	52800201 	mov	w1, #0x10                  	// #16
    9174:	91148c42 	add	x2, x2, #0x523
    9178:	97fff7c0 	bl	7078 <mbedtls_mpi_read_string>
    917c:	2a0003f7 	mov	w23, w0
    9180:	35000300 	cbnz	w0, 91e0 <mbedtls_mpi_self_test+0x124>
/home/jayanth/quemu-v8/source/optee_os/lib/libmbedtls/mbedtls/library/bignum.c:2886 (discriminator 2)
    9184:	aa1803e2 	mov	x2, x24
    9188:	aa1603e1 	mov	x1, x22
    918c:	aa1403e0 	mov	x0, x20
    9190:	97fff75a 	bl	6ef8 <mbedtls_mpi_mul_mpi>
    9194:	2a0003f7 	mov	w23, w0
    9198:	35000240 	cbnz	w0, 91e0 <mbedtls_mpi_self_test+0x124>
/home/jayanth/quemu-v8/source/optee_os/lib/libmbedtls/mbedtls/library/bignum.c:2888 (discriminator 2)
    919c:	aa1503e0 	mov	x0, x21
    91a0:	f0000002 	adrp	x2, c000 <__func__.4194+0x3e3>
    91a4:	52800201 	mov	w1, #0x10                  	// #16
    91a8:	91161042 	add	x2, x2, #0x584
    91ac:	97fff7b3 	bl	7078 <mbedtls_mpi_read_string>
    91b0:	2a0003f7 	mov	w23, w0
    91b4:	35000160 	cbnz	w0, 91e0 <mbedtls_mpi_self_test+0x124>
/home/jayanth/quemu-v8/source/optee_os/lib/libmbedtls/mbedtls/library/bignum.c:2897 (discriminator 2)
    91b8:	34000093 	cbz	w19, 91c8 <mbedtls_mpi_self_test+0x10c>
/home/jayanth/quemu-v8/source/optee_os/lib/libmbedtls/mbedtls/library/bignum.c:2898
    91bc:	f0000000 	adrp	x0, c000 <__func__.4194+0x3e3>
    91c0:	91198c00 	add	x0, x0, #0x663
    91c4:	97ffe52f 	bl	2680 <printf>
/home/jayanth/quemu-v8/source/optee_os/lib/libmbedtls/mbedtls/library/bignum.c:2900
    91c8:	aa1503e1 	mov	x1, x21
    91cc:	aa1403e0 	mov	x0, x20
    91d0:	97fff5f0 	bl	6990 <mbedtls_mpi_cmp_mpi>
    91d4:	340004e0 	cbz	w0, 9270 <mbedtls_mpi_self_test+0x1b4>
/home/jayanth/quemu-v8/source/optee_os/lib/libmbedtls/mbedtls/library/bignum.c:2902
    91d8:	35000453 	cbnz	w19, 9260 <mbedtls_mpi_self_test+0x1a4>
/home/jayanth/quemu-v8/source/optee_os/lib/libmbedtls/mbedtls/library/bignum.c:2997
    91dc:	52800037 	mov	w23, #0x1                   	// #1
/home/jayanth/quemu-v8/source/optee_os/lib/libmbedtls/mbedtls/library/bignum.c:3007
    91e0:	710002ff 	cmp	w23, #0x0
    91e4:	7a401a64 	ccmp	w19, #0x0, #0x4, ne  // ne = any
    91e8:	540000a0 	b.eq	91fc <mbedtls_mpi_self_test+0x140>  // b.none
/home/jayanth/quemu-v8/source/optee_os/lib/libmbedtls/mbedtls/library/bignum.c:3008
    91ec:	f0000000 	adrp	x0, c000 <__func__.4194+0x3e3>
    91f0:	2a1703e1 	mov	w1, w23
    91f4:	91210000 	add	x0, x0, #0x840
    91f8:	97ffe522 	bl	2680 <printf>
/home/jayanth/quemu-v8/source/optee_os/lib/libmbedtls/mbedtls/library/bignum.c:3010
    91fc:	aa1603e0 	mov	x0, x22
    9200:	97fff2ca 	bl	5d28 <mbedtls_mpi_free>
    9204:	aa1c03e0 	mov	x0, x28
    9208:	97fff2c8 	bl	5d28 <mbedtls_mpi_free>
    920c:	aa1803e0 	mov	x0, x24
    9210:	97fff2c6 	bl	5d28 <mbedtls_mpi_free>
    9214:	aa1403e0 	mov	x0, x20
    9218:	97fff2c4 	bl	5d28 <mbedtls_mpi_free>
/home/jayanth/quemu-v8/source/optee_os/lib/libmbedtls/mbedtls/library/bignum.c:3011
    921c:	aa1a03e0 	mov	x0, x26
    9220:	97fff2c2 	bl	5d28 <mbedtls_mpi_free>
    9224:	aa1503e0 	mov	x0, x21
    9228:	97fff2c0 	bl	5d28 <mbedtls_mpi_free>
    922c:	aa1b03e0 	mov	x0, x27
    9230:	97fff2be 	bl	5d28 <mbedtls_mpi_free>
/home/jayanth/quemu-v8/source/optee_os/lib/libmbedtls/mbedtls/library/bignum.c:3013
    9234:	34000073 	cbz	w19, 9240 <mbedtls_mpi_self_test+0x184>
/home/jayanth/quemu-v8/source/optee_os/lib/libmbedtls/mbedtls/library/bignum.c:3014
    9238:	52800140 	mov	w0, #0xa                   	// #10
    923c:	97ffe553 	bl	2788 <putchar>
/home/jayanth/quemu-v8/source/optee_os/lib/libmbedtls/mbedtls/library/bignum.c:3017
    9240:	2a1703e0 	mov	w0, w23
    9244:	a94153f3 	ldp	x19, x20, [sp, #16]
    9248:	a9425bf5 	ldp	x21, x22, [sp, #32]
    924c:	a94363f7 	ldp	x23, x24, [sp, #48]
    9250:	a9446bf9 	ldp	x25, x26, [sp, #64]
    9254:	a94573fb 	ldp	x27, x28, [sp, #80]
    9258:	a8d27bfd 	ldp	x29, x30, [sp], #288
    925c:	d65f03c0 	ret
/home/jayanth/quemu-v8/source/optee_os/lib/libmbedtls/mbedtls/library/bignum.c:2903
    9260:	f0000000 	adrp	x0, c000 <__func__.4194+0x3e3>
    9264:	9106fc00 	add	x0, x0, #0x1bf
    9268:	97ffe538 	bl	2748 <puts>
    926c:	17ffffdc 	b	91dc <mbedtls_mpi_self_test+0x120>
/home/jayanth/quemu-v8/source/optee_os/lib/libmbedtls/mbedtls/library/bignum.c:2909
    9270:	34000093 	cbz	w19, 9280 <mbedtls_mpi_self_test+0x1c4>
/home/jayanth/quemu-v8/source/optee_os/lib/libmbedtls/mbedtls/library/bignum.c:2910
    9274:	f0000000 	adrp	x0, c000 <__func__.4194+0x3e3>
    9278:	9119f400 	add	x0, x0, #0x67d
    927c:	97ffe533 	bl	2748 <puts>
/home/jayanth/quemu-v8/source/optee_os/lib/libmbedtls/mbedtls/library/bignum.c:2912
    9280:	aa1803e3 	mov	x3, x24
    9284:	aa1603e2 	mov	x2, x22
    9288:	aa1a03e1 	mov	x1, x26
    928c:	aa1403e0 	mov	x0, x20
    9290:	97fff7f3 	bl	725c <mbedtls_mpi_div_mpi>
    9294:	2a0003f7 	mov	w23, w0
    9298:	35fffa40 	cbnz	w0, 91e0 <mbedtls_mpi_self_test+0x124>
/home/jayanth/quemu-v8/source/optee_os/lib/libmbedtls/mbedtls/library/bignum.c:2914 (discriminator 2)
    929c:	aa1503e0 	mov	x0, x21
    92a0:	f0000002 	adrp	x2, c000 <__func__.4194+0x3e3>
    92a4:	52800201 	mov	w1, #0x10                  	// #16
    92a8:	911a1042 	add	x2, x2, #0x684
    92ac:	97fff773 	bl	7078 <mbedtls_mpi_read_string>
    92b0:	2a0003f7 	mov	w23, w0
    92b4:	35fff960 	cbnz	w0, 91e0 <mbedtls_mpi_self_test+0x124>
/home/jayanth/quemu-v8/source/optee_os/lib/libmbedtls/mbedtls/library/bignum.c:2917 (discriminator 2)
    92b8:	aa1b03e0 	mov	x0, x27
    92bc:	f0000002 	adrp	x2, c000 <__func__.4194+0x3e3>
    92c0:	52800201 	mov	w1, #0x10                  	// #16
    92c4:	911aa042 	add	x2, x2, #0x6a8
    92c8:	97fff76c 	bl	7078 <mbedtls_mpi_read_string>
    92cc:	2a0003f7 	mov	w23, w0
    92d0:	35fff880 	cbnz	w0, 91e0 <mbedtls_mpi_self_test+0x124>
/home/jayanth/quemu-v8/source/optee_os/lib/libmbedtls/mbedtls/library/bignum.c:2922 (discriminator 2)
    92d4:	34000093 	cbz	w19, 92e4 <mbedtls_mpi_self_test+0x228>
/home/jayanth/quemu-v8/source/optee_os/lib/libmbedtls/mbedtls/library/bignum.c:2923
    92d8:	f0000000 	adrp	x0, c000 <__func__.4194+0x3e3>
    92dc:	911c1c00 	add	x0, x0, #0x707
    92e0:	97ffe4e8 	bl	2680 <printf>
/home/jayanth/quemu-v8/source/optee_os/lib/libmbedtls/mbedtls/library/bignum.c:2925
    92e4:	aa1503e1 	mov	x1, x21
    92e8:	aa1403e0 	mov	x0, x20
    92ec:	97fff5a9 	bl	6990 <mbedtls_mpi_cmp_mpi>
    92f0:	35fff740 	cbnz	w0, 91d8 <mbedtls_mpi_self_test+0x11c>
/home/jayanth/quemu-v8/source/optee_os/lib/libmbedtls/mbedtls/library/bignum.c:2926 (discriminator 1)
    92f4:	aa1b03e1 	mov	x1, x27
    92f8:	aa1a03e0 	mov	x0, x26
    92fc:	97fff5a5 	bl	6990 <mbedtls_mpi_cmp_mpi>
/home/jayanth/quemu-v8/source/optee_os/lib/libmbedtls/mbedtls/library/bignum.c:2925 (discriminator 1)
    9300:	35fff6c0 	cbnz	w0, 91d8 <mbedtls_mpi_self_test+0x11c>
/home/jayanth/quemu-v8/source/optee_os/lib/libmbedtls/mbedtls/library/bignum.c:2935
    9304:	34000093 	cbz	w19, 9314 <mbedtls_mpi_self_test+0x258>
/home/jayanth/quemu-v8/source/optee_os/lib/libmbedtls/mbedtls/library/bignum.c:2936
    9308:	f0000000 	adrp	x0, c000 <__func__.4194+0x3e3>
    930c:	9119f400 	add	x0, x0, #0x67d
    9310:	97ffe50e 	bl	2748 <puts>
/home/jayanth/quemu-v8/source/optee_os/lib/libmbedtls/mbedtls/library/bignum.c:2938
    9314:	aa1803e3 	mov	x3, x24
    9318:	aa1c03e2 	mov	x2, x28
    931c:	aa1603e1 	mov	x1, x22
    9320:	aa1403e0 	mov	x0, x20
    9324:	d2800004 	mov	x4, #0x0                   	// #0
    9328:	97fffa90 	bl	7d68 <mbedtls_mpi_exp_mod>
    932c:	2a0003f7 	mov	w23, w0
    9330:	35fff580 	cbnz	w0, 91e0 <mbedtls_mpi_self_test+0x124>
/home/jayanth/quemu-v8/source/optee_os/lib/libmbedtls/mbedtls/library/bignum.c:2940 (discriminator 2)
    9334:	aa1503e0 	mov	x0, x21
    9338:	f0000002 	adrp	x2, c000 <__func__.4194+0x3e3>
    933c:	52800201 	mov	w1, #0x10                  	// #16
    9340:	911c8442 	add	x2, x2, #0x721
    9344:	97fff74d 	bl	7078 <mbedtls_mpi_read_string>
    9348:	2a0003f7 	mov	w23, w0
    934c:	35fff4a0 	cbnz	w0, 91e0 <mbedtls_mpi_self_test+0x124>
/home/jayanth/quemu-v8/source/optee_os/lib/libmbedtls/mbedtls/library/bignum.c:2945 (discriminator 2)
    9350:	34000093 	cbz	w19, 9360 <mbedtls_mpi_self_test+0x2a4>
/home/jayanth/quemu-v8/source/optee_os/lib/libmbedtls/mbedtls/library/bignum.c:2946
    9354:	f0000000 	adrp	x0, c000 <__func__.4194+0x3e3>
    9358:	911e0000 	add	x0, x0, #0x780
    935c:	97ffe4c9 	bl	2680 <printf>
/home/jayanth/quemu-v8/source/optee_os/lib/libmbedtls/mbedtls/library/bignum.c:2948
    9360:	aa1503e1 	mov	x1, x21
    9364:	aa1403e0 	mov	x0, x20
    9368:	97fff58a 	bl	6990 <mbedtls_mpi_cmp_mpi>
    936c:	35fff360 	cbnz	w0, 91d8 <mbedtls_mpi_self_test+0x11c>
/home/jayanth/quemu-v8/source/optee_os/lib/libmbedtls/mbedtls/library/bignum.c:2957
    9370:	34000093 	cbz	w19, 9380 <mbedtls_mpi_self_test+0x2c4>
/home/jayanth/quemu-v8/source/optee_os/lib/libmbedtls/mbedtls/library/bignum.c:2958
    9374:	f0000000 	adrp	x0, c000 <__func__.4194+0x3e3>
    9378:	9119f400 	add	x0, x0, #0x67d
    937c:	97ffe4f3 	bl	2748 <puts>
/home/jayanth/quemu-v8/source/optee_os/lib/libmbedtls/mbedtls/library/bignum.c:2960
    9380:	aa1803e2 	mov	x2, x24
    9384:	aa1603e1 	mov	x1, x22
    9388:	aa1403e0 	mov	x0, x20
    938c:	97fffd4f 	bl	88c8 <mbedtls_mpi_inv_mod>
    9390:	2a0003f7 	mov	w23, w0
    9394:	35fff260 	cbnz	w0, 91e0 <mbedtls_mpi_self_test+0x124>
/home/jayanth/quemu-v8/source/optee_os/lib/libmbedtls/mbedtls/library/bignum.c:2962 (discriminator 2)
    9398:	aa1503e0 	mov	x0, x21
    939c:	f0000002 	adrp	x2, c000 <__func__.4194+0x3e3>
    93a0:	52800201 	mov	w1, #0x10                  	// #16
    93a4:	911e6842 	add	x2, x2, #0x79a
    93a8:	97fff734 	bl	7078 <mbedtls_mpi_read_string>
    93ac:	2a0003f7 	mov	w23, w0
    93b0:	35fff180 	cbnz	w0, 91e0 <mbedtls_mpi_self_test+0x124>
/home/jayanth/quemu-v8/source/optee_os/lib/libmbedtls/mbedtls/library/bignum.c:2967 (discriminator 2)
    93b4:	34000093 	cbz	w19, 93c4 <mbedtls_mpi_self_test+0x308>
/home/jayanth/quemu-v8/source/optee_os/lib/libmbedtls/mbedtls/library/bignum.c:2968
    93b8:	f0000000 	adrp	x0, c000 <__func__.4194+0x3e3>
    93bc:	911fec00 	add	x0, x0, #0x7fb
    93c0:	97ffe4b0 	bl	2680 <printf>
/home/jayanth/quemu-v8/source/optee_os/lib/libmbedtls/mbedtls/library/bignum.c:2970
    93c4:	aa1503e1 	mov	x1, x21
    93c8:	aa1403e0 	mov	x0, x20
    93cc:	97fff571 	bl	6990 <mbedtls_mpi_cmp_mpi>
    93d0:	2a0003f9 	mov	w25, w0
    93d4:	35fff020 	cbnz	w0, 91d8 <mbedtls_mpi_self_test+0x11c>
/home/jayanth/quemu-v8/source/optee_os/lib/libmbedtls/mbedtls/library/bignum.c:2979
    93d8:	340000f3 	cbz	w19, 93f4 <mbedtls_mpi_self_test+0x338>
/home/jayanth/quemu-v8/source/optee_os/lib/libmbedtls/mbedtls/library/bignum.c:2980
    93dc:	f0000000 	adrp	x0, c000 <__func__.4194+0x3e3>
    93e0:	9119f400 	add	x0, x0, #0x67d
    93e4:	97ffe4d9 	bl	2748 <puts>
/home/jayanth/quemu-v8/source/optee_os/lib/libmbedtls/mbedtls/library/bignum.c:2983
    93e8:	f0000000 	adrp	x0, c000 <__func__.4194+0x3e3>
    93ec:	91205400 	add	x0, x0, #0x815
    93f0:	97ffe4a4 	bl	2680 <printf>
    93f4:	d0000017 	adrp	x23, b000 <__text_end+0x1788>
    93f8:	912032f7 	add	x23, x23, #0x80c
    93fc:	910a82e0 	add	x0, x23, #0x2a0
    9400:	f90037e0 	str	x0, [sp, #104]
/home/jayanth/quemu-v8/source/optee_os/lib/libmbedtls/mbedtls/library/bignum.c:2987
    9404:	f94037e0 	ldr	x0, [sp, #104]
    9408:	b9400001 	ldr	w1, [x0]
    940c:	aa1403e0 	mov	x0, x20
    9410:	97fff390 	bl	6250 <mbedtls_mpi_lset>
    9414:	2a0003f7 	mov	w23, w0
    9418:	35ffee40 	cbnz	w0, 91e0 <mbedtls_mpi_self_test+0x124>
/home/jayanth/quemu-v8/source/optee_os/lib/libmbedtls/mbedtls/library/bignum.c:2988 (discriminator 2)
    941c:	f94037e0 	ldr	x0, [sp, #104]
    9420:	b9400401 	ldr	w1, [x0, #4]
    9424:	aa1a03e0 	mov	x0, x26
    9428:	97fff38a 	bl	6250 <mbedtls_mpi_lset>
    942c:	2a0003f7 	mov	w23, w0
    9430:	35ffed80 	cbnz	w0, 91e0 <mbedtls_mpi_self_test+0x124>
/home/jayanth/quemu-v8/source/optee_os/lib/libmbedtls/mbedtls/library/bignum.c:2990 (discriminator 2)
    9434:	aa1a03e2 	mov	x2, x26
    9438:	aa1403e1 	mov	x1, x20
    943c:	aa1603e0 	mov	x0, x22
    9440:	97fffbed 	bl	83f4 <mbedtls_mpi_gcd>
    9444:	2a0003f7 	mov	w23, w0
    9448:	35ffecc0 	cbnz	w0, 91e0 <mbedtls_mpi_self_test+0x124>
/home/jayanth/quemu-v8/source/optee_os/lib/libmbedtls/mbedtls/library/bignum.c:2992 (discriminator 2)
    944c:	f94037e0 	ldr	x0, [sp, #104]
    9450:	b9400801 	ldr	w1, [x0, #8]
    9454:	aa1603e0 	mov	x0, x22
    9458:	97fff5b6 	bl	6b30 <mbedtls_mpi_cmp_int>
    945c:	2a0003f7 	mov	w23, w0
    9460:	340000e0 	cbz	w0, 947c <mbedtls_mpi_self_test+0x3c0>
/home/jayanth/quemu-v8/source/optee_os/lib/libmbedtls/mbedtls/library/bignum.c:2994
    9464:	34ffebd3 	cbz	w19, 91dc <mbedtls_mpi_self_test+0x120>
/home/jayanth/quemu-v8/source/optee_os/lib/libmbedtls/mbedtls/library/bignum.c:2995
    9468:	2a1903e1 	mov	w1, w25
    946c:	f0000000 	adrp	x0, c000 <__func__.4194+0x3e3>
    9470:	9120c800 	add	x0, x0, #0x832
    9474:	97ffe483 	bl	2680 <printf>
    9478:	17ffff59 	b	91dc <mbedtls_mpi_self_test+0x120>
/home/jayanth/quemu-v8/source/optee_os/lib/libmbedtls/mbedtls/library/bignum.c:2985 (discriminator 2)
    947c:	f94037e0 	ldr	x0, [sp, #104]
    9480:	11000739 	add	w25, w25, #0x1
    9484:	71000f3f 	cmp	w25, #0x3
    9488:	91003000 	add	x0, x0, #0xc
    948c:	f90037e0 	str	x0, [sp, #104]
    9490:	54fffba1 	b.ne	9404 <mbedtls_mpi_self_test+0x348>  // b.any
/home/jayanth/quemu-v8/source/optee_os/lib/libmbedtls/mbedtls/library/bignum.c:3002
    9494:	340000b3 	cbz	w19, 94a8 <mbedtls_mpi_self_test+0x3ec>
/home/jayanth/quemu-v8/source/optee_os/lib/libmbedtls/mbedtls/library/bignum.c:3003
    9498:	f0000000 	adrp	x0, c000 <__func__.4194+0x3e3>
    949c:	9119f400 	add	x0, x0, #0x67d
    94a0:	97ffe4aa 	bl	2748 <puts>
    94a4:	17ffff4f 	b	91e0 <mbedtls_mpi_self_test+0x124>
/home/jayanth/quemu-v8/source/optee_os/lib/libmbedtls/mbedtls/library/bignum.c:3005
    94a8:	2a1303f7 	mov	w23, w19
    94ac:	17ffff4d 	b	91e0 <mbedtls_mpi_self_test+0x124>

00000000000094b0 <mbedtls_platform_zeroize>:
mbedtls_platform_zeroize():
/home/jayanth/quemu-v8/source/optee_os/lib/libmbedtls/mbedtls/library/platform_util.c:74
    94b0:	aa0103e2 	mov	x2, x1
/home/jayanth/quemu-v8/source/optee_os/lib/libmbedtls/mbedtls/library/platform_util.c:77
    94b4:	b40000c1 	cbz	x1, 94cc <mbedtls_platform_zeroize+0x1c>
/home/jayanth/quemu-v8/source/optee_os/lib/libmbedtls/mbedtls/library/platform_util.c:78
    94b8:	90000021 	adrp	x1, d000 <_DYNAMIC>
    94bc:	f9422423 	ldr	x3, [x1, #1096]
    94c0:	52800001 	mov	w1, #0x0                   	// #0
    94c4:	aa0303f0 	mov	x16, x3
    94c8:	d61f0200 	br	x16
/home/jayanth/quemu-v8/source/optee_os/lib/libmbedtls/mbedtls/library/platform_util.c:79
    94cc:	d65f03c0 	ret

00000000000094d0 <isxdigit>:
isxdigit():
/home/jayanth/quemu-v8/source/optee_os/lib/libutils/isoc/isxdigit.c:9
    94d0:	5100c001 	sub	w1, w0, #0x30
    94d4:	7100243f 	cmp	w1, #0x9
    94d8:	540000c9 	b.ls	94f0 <isxdigit+0x20>  // b.plast
/home/jayanth/quemu-v8/source/optee_os/lib/libutils/isoc/isxdigit.c:11
    94dc:	121a7800 	and	w0, w0, #0xffffffdf
    94e0:	51010400 	sub	w0, w0, #0x41
    94e4:	7100141f 	cmp	w0, #0x5
    94e8:	1a9f87e0 	cset	w0, ls  // ls = plast
/home/jayanth/quemu-v8/source/optee_os/lib/libutils/isoc/isxdigit.c:16
    94ec:	d65f03c0 	ret
/home/jayanth/quemu-v8/source/optee_os/lib/libutils/isoc/isxdigit.c:12
    94f0:	52800020 	mov	w0, #0x1                   	// #1
    94f4:	17fffffe 	b	94ec <isxdigit+0x1c>

00000000000094f8 <snprintf>:
snprintf():
/home/jayanth/quemu-v8/source/optee_os/lib/libutils/isoc/snprintf.c:10
    94f8:	a9b07bfd 	stp	x29, x30, [sp, #-256]!
    94fc:	910003fd 	mov	x29, sp
    9500:	a90d93e3 	stp	x3, x4, [sp, #216]
/home/jayanth/quemu-v8/source/optee_os/lib/libutils/isoc/snprintf.c:14
    9504:	910403e3 	add	x3, sp, #0x100
    9508:	a9030fe3 	stp	x3, x3, [sp, #48]
    950c:	910343e3 	add	x3, sp, #0xd0
    9510:	f90023e3 	str	x3, [sp, #64]
    9514:	128004e3 	mov	w3, #0xffffffd8            	// #-40
    9518:	b9004be3 	str	w3, [sp, #72]
    951c:	12800fe3 	mov	w3, #0xffffff80            	// #-128
    9520:	b9004fe3 	str	w3, [sp, #76]
/home/jayanth/quemu-v8/source/optee_os/lib/libutils/isoc/snprintf.c:15
    9524:	910043e3 	add	x3, sp, #0x10
/home/jayanth/quemu-v8/source/optee_os/lib/libutils/isoc/snprintf.c:10
    9528:	a90e9be5 	stp	x5, x6, [sp, #232]
/home/jayanth/quemu-v8/source/optee_os/lib/libutils/isoc/snprintf.c:15
    952c:	a94317e4 	ldp	x4, x5, [sp, #48]
    9530:	a90117e4 	stp	x4, x5, [sp, #16]
    9534:	a94417e4 	ldp	x4, x5, [sp, #64]
    9538:	a90217e4 	stp	x4, x5, [sp, #32]
/home/jayanth/quemu-v8/source/optee_os/lib/libutils/isoc/snprintf.c:10
    953c:	3d8017e0 	str	q0, [sp, #80]
/home/jayanth/quemu-v8/source/optee_os/lib/libutils/isoc/snprintf.c:15
    9540:	52800004 	mov	w4, #0x0                   	// #0
/home/jayanth/quemu-v8/source/optee_os/lib/libutils/isoc/snprintf.c:10
    9544:	3d801be1 	str	q1, [sp, #96]
    9548:	3d801fe2 	str	q2, [sp, #112]
    954c:	3d8023e3 	str	q3, [sp, #128]
    9550:	3d8027e4 	str	q4, [sp, #144]
    9554:	3d802be5 	str	q5, [sp, #160]
    9558:	3d802fe6 	str	q6, [sp, #176]
    955c:	3d8033e7 	str	q7, [sp, #192]
    9560:	f9007fe7 	str	x7, [sp, #248]
/home/jayanth/quemu-v8/source/optee_os/lib/libutils/isoc/snprintf.c:15
    9564:	97ffe04f 	bl	16a0 <__vsnprintf>
/home/jayanth/quemu-v8/source/optee_os/lib/libutils/isoc/snprintf.c:19
    9568:	a8d07bfd 	ldp	x29, x30, [sp], #256
    956c:	d65f03c0 	ret

0000000000009570 <vsnprintf>:
vsnprintf():
/home/jayanth/quemu-v8/source/optee_os/lib/libutils/isoc/snprintf.c:22
    9570:	a9bb7bfd 	stp	x29, x30, [sp, #-80]!
/home/jayanth/quemu-v8/source/optee_os/lib/libutils/isoc/snprintf.c:23
    9574:	9100c3e4 	add	x4, sp, #0x30
/home/jayanth/quemu-v8/source/optee_os/lib/libutils/isoc/snprintf.c:22
    9578:	910003fd 	mov	x29, sp
    957c:	a90153f3 	stp	x19, x20, [sp, #16]
    9580:	aa0003f3 	mov	x19, x0
    9584:	aa0103f4 	mov	x20, x1
/home/jayanth/quemu-v8/source/optee_os/lib/libutils/isoc/snprintf.c:23
    9588:	aa0403e0 	mov	x0, x4
/home/jayanth/quemu-v8/source/optee_os/lib/libutils/isoc/snprintf.c:22
    958c:	aa0303e1 	mov	x1, x3
    9590:	f90013f5 	str	x21, [sp, #32]
    9594:	aa0203f5 	mov	x21, x2
/home/jayanth/quemu-v8/source/optee_os/lib/libutils/isoc/snprintf.c:23
    9598:	d2800402 	mov	x2, #0x20                  	// #32
    959c:	97ffdaa1 	bl	20 <memcpy>
    95a0:	aa1503e2 	mov	x2, x21
    95a4:	aa0003e3 	mov	x3, x0
    95a8:	aa1403e1 	mov	x1, x20
    95ac:	aa1303e0 	mov	x0, x19
    95b0:	52800004 	mov	w4, #0x0                   	// #0
    95b4:	97ffe03b 	bl	16a0 <__vsnprintf>
/home/jayanth/quemu-v8/source/optee_os/lib/libutils/isoc/snprintf.c:24
    95b8:	a94153f3 	ldp	x19, x20, [sp, #16]
    95bc:	f94013f5 	ldr	x21, [sp, #32]
    95c0:	a8c57bfd 	ldp	x29, x30, [sp], #80
    95c4:	d65f03c0 	ret

00000000000095c8 <tolower>:
tolower():
/home/jayanth/quemu-v8/source/optee_os/lib/libutils/isoc/tolower.c:9
    95c8:	51010401 	sub	w1, w0, #0x41
    95cc:	7100643f 	cmp	w1, #0x19
    95d0:	54000048 	b.hi	95d8 <tolower+0x10>  // b.pmore
/home/jayanth/quemu-v8/source/optee_os/lib/libutils/isoc/tolower.c:10
    95d4:	11008000 	add	w0, w0, #0x20
/home/jayanth/quemu-v8/source/optee_os/lib/libutils/isoc/tolower.c:12
    95d8:	d65f03c0 	ret

00000000000095dc <memmove>:
memmove():
/home/jayanth/quemu-v8/source/optee_os/lib/libutils/isoc/newlib/memmove.c:96
    95dc:	eb01001f 	cmp	x0, x1
    95e0:	54000289 	b.ls	9630 <memmove+0x54>  // b.plast
/home/jayanth/quemu-v8/source/optee_os/lib/libutils/isoc/newlib/memmove.c:96 (discriminator 1)
    95e4:	8b020023 	add	x3, x1, x2
    95e8:	eb00007f 	cmp	x3, x0
    95ec:	54000229 	b.ls	9630 <memmove+0x54>  // b.plast
/home/jayanth/quemu-v8/source/optee_os/lib/libutils/isoc/newlib/memmove.c:99
    95f0:	8b020004 	add	x4, x0, x2
/home/jayanth/quemu-v8/source/optee_os/lib/libutils/isoc/newlib/memmove.c:100
    95f4:	aa2203e2 	mvn	x2, x2
    95f8:	d2800001 	mov	x1, #0x0                   	// #0
    95fc:	d1000421 	sub	x1, x1, #0x1
    9600:	eb01005f 	cmp	x2, x1
    9604:	54000041 	b.ne	960c <memmove+0x30>  // b.any
/home/jayanth/quemu-v8/source/optee_os/lib/libutils/isoc/newlib/memmove.c:157
    9608:	d65f03c0 	ret
/home/jayanth/quemu-v8/source/optee_os/lib/libutils/isoc/newlib/memmove.c:101
    960c:	38616865 	ldrb	w5, [x3, x1]
    9610:	38216885 	strb	w5, [x4, x1]
    9614:	17fffffa 	b	95fc <memmove+0x20>
/home/jayanth/quemu-v8/source/optee_os/lib/libutils/isoc/newlib/memmove.c:104
    9618:	38636824 	ldrb	w4, [x1, x3]
    961c:	38236804 	strb	w4, [x0, x3]
    9620:	91000463 	add	x3, x3, #0x1
/home/jayanth/quemu-v8/source/optee_os/lib/libutils/isoc/newlib/memmove.c:103
    9624:	eb02007f 	cmp	x3, x2
    9628:	54ffff81 	b.ne	9618 <memmove+0x3c>  // b.any
    962c:	17fffff7 	b	9608 <memmove+0x2c>
    9630:	d2800003 	mov	x3, #0x0                   	// #0
    9634:	17fffffc 	b	9624 <memmove+0x48>

0000000000009638 <strnlen>:
strnlen():
/home/jayanth/quemu-v8/source/optee_os/lib/libutils/isoc/newlib/strnlen.c:77
    9638:	8b010001 	add	x1, x0, x1
    963c:	aa0003e2 	mov	x2, x0
    9640:	eb01005f 	cmp	x2, x1
    9644:	54000061 	b.ne	9650 <strnlen+0x18>  // b.any
/home/jayanth/quemu-v8/source/optee_os/lib/libutils/isoc/newlib/strnlen.c:80
    9648:	cb000040 	sub	x0, x2, x0
/home/jayanth/quemu-v8/source/optee_os/lib/libutils/isoc/newlib/strnlen.c:81
    964c:	d65f03c0 	ret
/home/jayanth/quemu-v8/source/optee_os/lib/libutils/isoc/newlib/strnlen.c:77 (discriminator 1)
    9650:	39400043 	ldrb	w3, [x2]
    9654:	34ffffa3 	cbz	w3, 9648 <strnlen+0x10>
/home/jayanth/quemu-v8/source/optee_os/lib/libutils/isoc/newlib/strnlen.c:78
    9658:	91000442 	add	x2, x2, #0x1
    965c:	17fffff9 	b	9640 <strnlen+0x8>

0000000000009660 <mempool_alloc_pool>:
mempool_alloc_pool():
/home/jayanth/quemu-v8/source/optee_os/lib/libutils/ext/mempool.c:100
    9660:	a9be7bfd 	stp	x29, x30, [sp, #-32]!
    9664:	910003fd 	mov	x29, sp
    9668:	a90153f3 	stp	x19, x20, [sp, #16]
    966c:	aa0003f3 	mov	x19, x0
    9670:	aa0103f4 	mov	x20, x1
/home/jayanth/quemu-v8/source/optee_os/lib/libutils/ext/mempool.c:101
    9674:	d2800020 	mov	x0, #0x1                   	// #1
    9678:	d2800301 	mov	x1, #0x18                  	// #24
    967c:	97ffde3c 	bl	f6c <calloc>
/home/jayanth/quemu-v8/source/optee_os/lib/libutils/ext/mempool.c:104
    9680:	f2400a7f 	tst	x19, #0x7
    9684:	54000140 	b.eq	96ac <mempool_alloc_pool+0x4c>  // b.none
/home/jayanth/quemu-v8/source/optee_os/lib/libutils/ext/mempool.c:104 (discriminator 1)
    9688:	f0000003 	adrp	x3, c000 <__func__.4194+0x3e3>
    968c:	f0000001 	adrp	x1, c000 <__func__.4194+0x3e3>
    9690:	91238063 	add	x3, x3, #0x8e0
    9694:	91219821 	add	x1, x1, #0x866
    9698:	f0000000 	adrp	x0, c000 <__func__.4194+0x3e3>
    969c:	91220400 	add	x0, x0, #0x881
    96a0:	52800d02 	mov	w2, #0x68                  	// #104
    96a4:	97ffe35e 	bl	241c <_assert_log>
    96a8:	97ffe36e 	bl	2460 <_assert_break>
/home/jayanth/quemu-v8/source/optee_os/lib/libutils/ext/mempool.c:106 (discriminator 2)
    96ac:	b4000080 	cbz	x0, 96bc <mempool_alloc_pool+0x5c>
/home/jayanth/quemu-v8/source/optee_os/lib/libutils/ext/mempool.c:109
    96b0:	92800001 	mov	x1, #0xffffffffffffffff    	// #-1
    96b4:	a9000414 	stp	x20, x1, [x0]
/home/jayanth/quemu-v8/source/optee_os/lib/libutils/ext/mempool.c:108
    96b8:	f9000813 	str	x19, [x0, #16]
/home/jayanth/quemu-v8/source/optee_os/lib/libutils/ext/mempool.c:117
    96bc:	a94153f3 	ldp	x19, x20, [sp, #16]
    96c0:	a8c27bfd 	ldp	x29, x30, [sp], #32
    96c4:	d65f03c0 	ret

00000000000096c8 <mempool_alloc>:
mempool_alloc():
/home/jayanth/quemu-v8/source/optee_os/lib/libutils/ext/mempool.c:120
    96c8:	aa0103e5 	mov	x5, x1
/home/jayanth/quemu-v8/source/optee_os/lib/libutils/ext/mempool.c:127
    96cc:	a9400c01 	ldp	x1, x3, [x0]
    96d0:	b7f802e3 	tbnz	x3, #63, 972c <mempool_alloc+0x64>
/home/jayanth/quemu-v8/source/optee_os/lib/libutils/ext/mempool.c:130
    96d4:	f9400806 	ldr	x6, [x0, #16]
/home/jayanth/quemu-v8/source/optee_os/lib/libutils/ext/mempool.c:134
    96d8:	91001c62 	add	x2, x3, #0x7
/home/jayanth/quemu-v8/source/optee_os/lib/libutils/ext/mempool.c:130
    96dc:	8b060064 	add	x4, x3, x6
/home/jayanth/quemu-v8/source/optee_os/lib/libutils/ext/mempool.c:134
    96e0:	f8666866 	ldr	x6, [x3, x6]
    96e4:	8b060042 	add	x2, x2, x6
    96e8:	927df042 	and	x2, x2, #0xfffffffffffffff8
/home/jayanth/quemu-v8/source/optee_os/lib/libutils/ext/mempool.c:135
    96ec:	eb02003f 	cmp	x1, x2
    96f0:	54000222 	b.cs	9734 <mempool_alloc+0x6c>  // b.hs, b.nlast
/home/jayanth/quemu-v8/source/optee_os/lib/libutils/ext/mempool.c:120
    96f4:	a9bf7bfd 	stp	x29, x30, [sp, #-16]!
/home/jayanth/quemu-v8/source/optee_os/lib/libutils/ext/mempool.c:162
    96f8:	f0000000 	adrp	x0, c000 <__func__.4194+0x3e3>
    96fc:	91238000 	add	x0, x0, #0x8e0
/home/jayanth/quemu-v8/source/optee_os/lib/libutils/ext/mempool.c:120
    9700:	910003fd 	mov	x29, sp
/home/jayanth/quemu-v8/source/optee_os/lib/libutils/ext/mempool.c:162
    9704:	91004c00 	add	x0, x0, #0x13
    9708:	52800023 	mov	w3, #0x1                   	// #1
    970c:	52800022 	mov	w2, #0x1                   	// #1
    9710:	52801441 	mov	w1, #0xa2                  	// #162
    9714:	f0000004 	adrp	x4, c000 <__func__.4194+0x3e3>
    9718:	9122a084 	add	x4, x4, #0x8a8
    971c:	97ffdfc4 	bl	162c <trace_printf>
/home/jayanth/quemu-v8/source/optee_os/lib/libutils/ext/mempool.c:164
    9720:	d2800000 	mov	x0, #0x0                   	// #0
/home/jayanth/quemu-v8/source/optee_os/lib/libutils/ext/mempool.c:165
    9724:	a8c17bfd 	ldp	x29, x30, [sp], #16
    9728:	d65f03c0 	ret
/home/jayanth/quemu-v8/source/optee_os/lib/libutils/ext/mempool.c:123
    972c:	d2800004 	mov	x4, #0x0                   	// #0
/home/jayanth/quemu-v8/source/optee_os/lib/libutils/ext/mempool.c:128
    9730:	d2800002 	mov	x2, #0x0                   	// #0
/home/jayanth/quemu-v8/source/optee_os/lib/libutils/ext/mempool.c:140
    9734:	91007ca5 	add	x5, x5, #0x1f
    9738:	927df0a5 	and	x5, x5, #0xfffffffffffffff8
/home/jayanth/quemu-v8/source/optee_os/lib/libutils/ext/mempool.c:141
    973c:	8b050046 	add	x6, x2, x5
    9740:	eb0100df 	cmp	x6, x1
    9744:	54fffd88 	b.hi	96f4 <mempool_alloc+0x2c>  // b.pmore
/home/jayanth/quemu-v8/source/optee_os/lib/libutils/ext/mempool.c:144
    9748:	f9400806 	ldr	x6, [x0, #16]
    974c:	8b060041 	add	x1, x2, x6
/home/jayanth/quemu-v8/source/optee_os/lib/libutils/ext/mempool.c:145
    9750:	f8266845 	str	x5, [x2, x6]
/home/jayanth/quemu-v8/source/optee_os/lib/libutils/ext/mempool.c:146
    9754:	f9000423 	str	x3, [x1, #8]
/home/jayanth/quemu-v8/source/optee_os/lib/libutils/ext/mempool.c:147
    9758:	b4000044 	cbz	x4, 9760 <mempool_alloc+0x98>
/home/jayanth/quemu-v8/source/optee_os/lib/libutils/ext/mempool.c:148
    975c:	f9000882 	str	x2, [x4, #16]
/home/jayanth/quemu-v8/source/optee_os/lib/libutils/ext/mempool.c:149
    9760:	92800003 	mov	x3, #0xffffffffffffffff    	// #-1
    9764:	f9000823 	str	x3, [x1, #16]
/home/jayanth/quemu-v8/source/optee_os/lib/libutils/ext/mempool.c:150
    9768:	f9000402 	str	x2, [x0, #8]
/home/jayanth/quemu-v8/source/optee_os/lib/libutils/ext/mempool.c:159
    976c:	91006020 	add	x0, x1, #0x18
/home/jayanth/quemu-v8/source/optee_os/lib/libutils/ext/mempool.c:165
    9770:	d65f03c0 	ret

0000000000009774 <mempool_calloc>:
mempool_calloc():
/home/jayanth/quemu-v8/source/optee_os/lib/libutils/ext/mempool.c:168
    9774:	a9be7bfd 	stp	x29, x30, [sp, #-32]!
/home/jayanth/quemu-v8/source/optee_os/lib/libutils/ext/mempool.c:172
    9778:	9bc27c23 	umulh	x3, x1, x2
/home/jayanth/quemu-v8/source/optee_os/lib/libutils/ext/mempool.c:168
    977c:	910003fd 	mov	x29, sp
    9780:	a90153f3 	stp	x19, x20, [sp, #16]
/home/jayanth/quemu-v8/source/optee_os/lib/libutils/ext/mempool.c:172
    9784:	9b027c34 	mul	x20, x1, x2
    9788:	b5000123 	cbnz	x3, 97ac <mempool_calloc+0x38>
/home/jayanth/quemu-v8/source/optee_os/lib/libutils/ext/mempool.c:175
    978c:	aa1403e1 	mov	x1, x20
    9790:	97ffffce 	bl	96c8 <mempool_alloc>
    9794:	aa0003f3 	mov	x19, x0
/home/jayanth/quemu-v8/source/optee_os/lib/libutils/ext/mempool.c:176
    9798:	b50000e0 	cbnz	x0, 97b4 <mempool_calloc+0x40>
/home/jayanth/quemu-v8/source/optee_os/lib/libutils/ext/mempool.c:180
    979c:	aa1303e0 	mov	x0, x19
    97a0:	a94153f3 	ldp	x19, x20, [sp, #16]
    97a4:	a8c27bfd 	ldp	x29, x30, [sp], #32
    97a8:	d65f03c0 	ret
/home/jayanth/quemu-v8/source/optee_os/lib/libutils/ext/mempool.c:173
    97ac:	d2800013 	mov	x19, #0x0                   	// #0
    97b0:	17fffffb 	b	979c <mempool_calloc+0x28>
/home/jayanth/quemu-v8/source/optee_os/lib/libutils/ext/mempool.c:177
    97b4:	aa1403e2 	mov	x2, x20
    97b8:	52800001 	mov	w1, #0x0                   	// #0
    97bc:	97ffdf07 	bl	13d8 <memset>
    97c0:	17fffff7 	b	979c <mempool_calloc+0x28>

00000000000097c4 <mempool_free>:
mempool_free():
/home/jayanth/quemu-v8/source/optee_os/lib/libutils/ext/mempool.c:189
    97c4:	b40001c1 	cbz	x1, 97fc <mempool_free+0x38>
/home/jayanth/quemu-v8/source/optee_os/lib/libutils/ext/mempool.c:194
    97c8:	f85f0022 	ldur	x2, [x1, #-16]
    97cc:	b7f801a2 	tbnz	x2, #63, 9800 <mempool_free+0x3c>
/home/jayanth/quemu-v8/source/optee_os/lib/libutils/ext/mempool.c:197
    97d0:	f9400803 	ldr	x3, [x0, #16]
    97d4:	f85f8024 	ldur	x4, [x1, #-8]
    97d8:	8b020063 	add	x3, x3, x2
    97dc:	f9000864 	str	x4, [x3, #16]
    97e0:	aa0203e3 	mov	x3, x2
/home/jayanth/quemu-v8/source/optee_os/lib/libutils/ext/mempool.c:201
    97e4:	f85f8024 	ldur	x4, [x1, #-8]
    97e8:	b7f80084 	tbnz	x4, #63, 97f8 <mempool_free+0x34>
/home/jayanth/quemu-v8/source/optee_os/lib/libutils/ext/mempool.c:204
    97ec:	a9408403 	ldp	x3, x1, [x0, #8]
    97f0:	8b040021 	add	x1, x1, x4
    97f4:	f9000422 	str	x2, [x1, #8]
/home/jayanth/quemu-v8/source/optee_os/lib/libutils/ext/mempool.c:208
    97f8:	f9000403 	str	x3, [x0, #8]
/home/jayanth/quemu-v8/source/optee_os/lib/libutils/ext/mempool.c:210
    97fc:	d65f03c0 	ret
/home/jayanth/quemu-v8/source/optee_os/lib/libutils/ext/mempool.c:187
    9800:	92800003 	mov	x3, #0xffffffffffffffff    	// #-1
    9804:	17fffff8 	b	97e4 <mempool_free+0x20>

0000000000009808 <consttime_memcmp>:
consttime_memcmp():
/home/jayanth/quemu-v8/source/optee_os/lib/libutils/ext/consttime_memcmp.c:36
    9808:	d10043ff 	sub	sp, sp, #0x10
/home/jayanth/quemu-v8/source/optee_os/lib/libutils/ext/consttime_memcmp.c:41
    980c:	52802003 	mov	w3, #0x100                 	// #256
/home/jayanth/quemu-v8/source/optee_os/lib/libutils/ext/consttime_memcmp.c:43
    9810:	d2800005 	mov	x5, #0x0                   	// #0
/home/jayanth/quemu-v8/source/optee_os/lib/libutils/ext/consttime_memcmp.c:39
    9814:	52800006 	mov	w6, #0x0                   	// #0
/home/jayanth/quemu-v8/source/optee_os/lib/libutils/ext/consttime_memcmp.c:41
    9818:	b9000fe3 	str	w3, [sp, #12]
/home/jayanth/quemu-v8/source/optee_os/lib/libutils/ext/consttime_memcmp.c:40
    981c:	52800003 	mov	w3, #0x0                   	// #0
/home/jayanth/quemu-v8/source/optee_os/lib/libutils/ext/consttime_memcmp.c:43 (discriminator 1)
    9820:	eb0200bf 	cmp	x5, x2
    9824:	540000a1 	b.ne	9838 <consttime_memcmp+0x30>  // b.any
/home/jayanth/quemu-v8/source/optee_os/lib/libutils/ext/consttime_memcmp.c:50
    9828:	53087c63 	lsr	w3, w3, #8
/home/jayanth/quemu-v8/source/optee_os/lib/libutils/ext/consttime_memcmp.c:51
    982c:	4b462060 	sub	w0, w3, w6, lsr #8
    9830:	910043ff 	add	sp, sp, #0x10
    9834:	d65f03c0 	ret
/home/jayanth/quemu-v8/source/optee_os/lib/libutils/ext/consttime_memcmp.c:45 (discriminator 2)
    9838:	38656808 	ldrb	w8, [x0, x5]
    983c:	38656824 	ldrb	w4, [x1, x5]
    9840:	910004a5 	add	x5, x5, #0x1
/home/jayanth/quemu-v8/source/optee_os/lib/libutils/ext/consttime_memcmp.c:44 (discriminator 2)
    9844:	b9400fe9 	ldr	w9, [sp, #12]
/home/jayanth/quemu-v8/source/optee_os/lib/libutils/ext/consttime_memcmp.c:45 (discriminator 2)
    9848:	4b040107 	sub	w7, w8, w4
/home/jayanth/quemu-v8/source/optee_os/lib/libutils/ext/consttime_memcmp.c:47 (discriminator 2)
    984c:	4b080084 	sub	w4, w4, w8
/home/jayanth/quemu-v8/source/optee_os/lib/libutils/ext/consttime_memcmp.c:44 (discriminator 2)
    9850:	0a0900e7 	and	w7, w7, w9
    9854:	2a0700c6 	orr	w6, w6, w7
/home/jayanth/quemu-v8/source/optee_os/lib/libutils/ext/consttime_memcmp.c:46 (discriminator 2)
    9858:	b9400fe7 	ldr	w7, [sp, #12]
    985c:	0a070084 	and	w4, w4, w7
/home/jayanth/quemu-v8/source/optee_os/lib/libutils/ext/consttime_memcmp.c:48 (discriminator 2)
    9860:	b9400fe7 	ldr	w7, [sp, #12]
/home/jayanth/quemu-v8/source/optee_os/lib/libutils/ext/consttime_memcmp.c:46 (discriminator 2)
    9864:	2a040063 	orr	w3, w3, w4
/home/jayanth/quemu-v8/source/optee_os/lib/libutils/ext/consttime_memcmp.c:48 (discriminator 2)
    9868:	2a0300c4 	orr	w4, w6, w3
    986c:	0a2400e4 	bic	w4, w7, w4
    9870:	b9000fe4 	str	w4, [sp, #12]
/home/jayanth/quemu-v8/source/optee_os/lib/libutils/ext/consttime_memcmp.c:43 (discriminator 2)
    9874:	17ffffeb 	b	9820 <consttime_memcmp+0x18>
